(dp0
S'worst_score'
p1
cnumpy.core.multiarray
scalar
p2
(cnumpy
dtype
p3
(S'f8'
p4
I0
I1
tp5
Rp6
(I3
S'<'
p7
NNNI-1
I-1
I0
tp8
bS'\x00\x00\x00\x00\x00\xc0z\xc0'
p9
tp10
Rp11
sS'best_pin_pt'
p12
(lp13
g2
(g3
(S'i8'
p14
I0
I1
tp15
Rp16
(I3
S'<'
p17
NNNI-1
I-1
I0
tp18
bS'\x18\x01\x00\x00\x00\x00\x00\x00'
p19
tp20
Rp21
ag2
(g16
S'\xc8\x00\x00\x00\x00\x00\x00\x00'
p22
tp23
Rp24
asS'worst_pin_pt'
p25
(lp26
g2
(g16
S'P\x00\x00\x00\x00\x00\x00\x00'
p27
tp28
Rp29
ag2
(g16
S'<\x00\x00\x00\x00\x00\x00\x00'
p30
tp31
Rp32
asS'totalpts'
p33
I52
sS'indices_of_pts'
p34
(lp35
(lp36
I227
aI228
aI229
aI230
aI231
aI232
aI233
aI234
aI235
aI236
aI237
aI238
aI239
aI240
aI241
aI242
aI243
aI244
aI245
aI246
aI247
aI248
aI249
aI250
aI251
aI252
aI253
aI254
aI255
aI256
aI257
aI258
aI259
aI260
aI261
aI262
aI263
aI264
aI265
aI266
aI267
aI268
aI269
aI270
aI271
aI272
aI273
aI274
aI275
aI276
aI277
aI278
aI279
aI280
aI281
aI282
aI283
aI284
aI285
aI286
aI287
aI288
aI289
aI290
aI291
aI292
aI293
aI294
aI295
aI296
aI297
aI298
aI299
aI300
aI301
aI302
aI303
aI304
aI305
aI306
aI307
aI308
aI309
aa(lp37
I82
aI83
aI84
aI85
aI86
aI87
aI88
aI89
aI90
aI91
aI92
aI93
aI94
aI95
aI96
aI97
aI98
aI99
aI100
aI101
aI102
aI103
aI104
aI105
aI106
aI107
aI108
aI109
aI110
aI111
aI112
aI113
aI114
aI115
aI116
aI117
aI118
aI119
aI120
aI121
aI122
aI123
aI124
aI125
aI126
aI127
aI128
aI129
aI130
aI131
aI132
aI133
aI134
aI135
aI136
aI137
aI138
aI139
aI140
aI141
aI142
aI143
aI144
aI145
aI146
aI147
aI148
aI149
aI150
aI151
aI152
aI153
aI154
aa(lp38
I227
aI226
aI225
aI224
aI223
aI222
aI221
aI220
aI219
aI218
aI217
aI216
aI215
aI214
aI213
aI212
aI211
aI210
aI209
aI208
aI207
aI206
aI205
aI204
aI203
aI202
aI201
aI200
aI199
aI198
aI197
aI196
aI195
aI194
aI193
aI192
aI191
aI190
aI189
aI188
aI187
aI186
aI185
aI184
aI183
aI182
aI181
aI180
aI179
aI178
aI177
aI176
aI175
aI174
aI173
aI172
aI171
aI170
aI169
aI168
aI167
aI166
aI165
aI164
aI163
aI162
aI161
aI160
aI159
aI158
aI157
aI156
aI155
aI154
aa(lp39
I82
aI81
aI80
aI79
aI78
aI77
aI76
aI75
aI74
aI73
aI72
aI71
aI70
aI69
aI68
aI67
aI66
aI65
aI64
aI63
aI62
aI61
aI60
aI59
aI58
aI57
aI56
aI55
aI54
aI53
aI52
aI51
aI50
aI49
aI48
aI47
aI46
aI45
aI44
aI43
aI42
aI41
aI40
aI39
aI38
aI37
aI36
aI35
aI34
aI33
aI32
aI31
aI30
aI29
aI28
aI27
aI26
aI25
aI24
aI23
aI22
aI21
aI20
aI19
aI18
aI17
aI16
aI15
aI14
aI13
aI12
aI11
aI10
aI9
aI8
aI7
aI6
aI5
aI4
aI3
aI2
aI1
aI0
aasS'old_trajectory'
p40
(lp41
(lp42
F359.6116504854369
aF400.77669902912623
aa(lp43
F358.6407766990291
aF402.71844660194176
aa(lp44
F357.66990291262135
aF404.6601941747573
aa(lp45
F356.6990291262136
aF406.6019417475728
aa(lp46
F355.7281553398058
aF408.54368932038835
aa(lp47
F354.75728155339806
aF410.4854368932039
aa(lp48
F353.7864077669903
aF412.4271844660194
aa(lp49
F352.81553398058253
aF414.368932038835
aa(lp50
F351.84466019417476
aF416.3106796116505
aa(lp51
F350.873786407767
aF418.25242718446606
aa(lp52
F349.6116504854369
aF420.1941747572816
aa(lp53
F345.7281553398058
aF422.1359223300971
aa(lp54
F341.8446601941747
aF424.07766990291265
aa(lp55
F337.96116504854365
aF426.0194174757282
aa(lp56
F334.0776699029126
aF427.9611650485437
aa(lp57
F330.19417475728153
aF429.90291262135923
aa(lp58
F326.3106796116504
aF431.84466019417476
aa(lp59
F322.42718446601936
aF433.7864077669903
aa(lp60
F318.5436893203883
aF435.7281553398058
aa(lp61
F314.66019417475724
aF437.66990291262135
aa(lp62
F310.7766990291262
aF439.6116504854369
aa(lp63
F306.8932038834951
aF441.55339805825247
aa(lp64
F303.00970873786406
aF443.495145631068
aa(lp65
F299.126213592233
aF445.4368932038835
aa(lp66
F295.24271844660194
aF447.37864077669906
aa(lp67
F291.3592233009708
aF449.3203883495146
aa(lp68
F287.47572815533977
aF451.2621359223301
aa(lp69
F283.5922330097087
aF453.20388349514565
aa(lp70
F279.70873786407765
aF455.1456310679612
aa(lp71
F275.8252427184466
aF457.0873786407767
aa(lp72
F271.94174757281553
aF459.02912621359224
aa(lp73
F268.54368932038835
aF460.97087378640776
aa(lp74
F265.63106796116506
aF462.9126213592233
aa(lp75
F262.71844660194176
aF464.8543689320388
aa(lp76
F259.8058252427184
aF466.7961165048544
aa(lp77
F256.8932038834951
aF468.73786407766994
aa(lp78
F253.98058252427182
aF470.67961165048547
aa(lp79
F251.06796116504853
aF472.621359223301
aa(lp80
F248.15533980582524
aF474.56310679611653
aa(lp81
F245.2427184466019
aF476.50485436893206
aa(lp82
F242.33009708737862
aF478.4466019417476
aa(lp83
F239.0291262135922
aF480.3883495145631
aa(lp84
F234.17475728155338
aF482.33009708737865
aa(lp85
F229.32038834951453
aF484.2718446601942
aa(lp86
F224.4660194174757
aF486.2135922330097
aa(lp87
F219.61165048543688
aF488.15533980582524
aa(lp88
F214.75728155339803
aF490.09708737864077
aa(lp89
F209.9029126213592
aF492.0388349514563
aa(lp90
F205.04854368932035
aF493.9805825242719
aa(lp91
F200.19417475728153
aF495.9223300970874
aa(lp92
F195.3398058252427
aF497.86407766990294
aa(lp93
F190.48543689320388
aF499.80582524271847
aa(lp94
F186.504854368932
aF501.747572815534
aa(lp95
F182.62135922330094
aF503.68932038834953
aa(lp96
F178.73786407766988
aF505.63106796116506
aa(lp97
F174.85436893203882
aF507.5728155339806
aa(lp98
F170.97087378640774
aF509.5145631067961
aa(lp99
F167.08737864077668
aF511.45631067961165
aa(lp100
F163.20388349514562
aF513.3980582524272
aa(lp101
F159.32038834951456
aF515.3398058252427
aa(lp102
F155.4368932038835
aF517.2815533980582
aa(lp103
F151.5533980582524
aF519.2233009708738
aa(lp104
F148.83495145631068
aF520.5825242718447
aa(lp105
F146.89320388349515
aF521.5533980582525
aa(lp106
F144.95145631067962
aF522.5242718446602
aa(lp107
F143.0097087378641
aF523.495145631068
aa(lp108
F141.06796116504853
aF524.4660194174758
aa(lp109
F139.126213592233
aF525.4368932038835
aa(lp110
F137.18446601941747
aF526.4077669902913
aa(lp111
F135.24271844660194
aF527.3786407766991
aa(lp112
F133.3009708737864
aF528.3495145631068
aa(lp113
F131.35922330097088
aF529.3203883495146
aa(lp114
F129.126213592233
aF530.2912621359224
aa(lp115
F126.2135922330097
aF531.2621359223301
aa(lp116
F123.30097087378641
aF532.2330097087379
aa(lp117
F120.3883495145631
aF533.2038834951456
aa(lp118
F117.4757281553398
aF534.1747572815534
aa(lp119
F114.5631067961165
aF535.1456310679612
aa(lp120
F111.6504854368932
aF536.1165048543689
aa(lp121
F108.7378640776699
aF537.0873786407767
aa(lp122
F105.8252427184466
aF538.0582524271845
aa(lp123
F102.9126213592233
aF539.0291262135922
aa(lp124
F100.0
aF540.0
aa(lp125
F379.6116504854369
aF168.8349514563107
aa(lp126
F379.41747572815535
aF170.58252427184465
aa(lp127
F378.4466019417476
aF171.5533980582524
aa(lp128
F377.47572815533977
aF172.5242718446602
aa(lp129
F376.504854368932
aF173.49514563106797
aa(lp130
F375.5339805825243
aF174.46601941747574
aa(lp131
F374.5631067961165
aF175.43689320388353
aa(lp132
F373.5922330097087
aF176.4077669902913
aa(lp133
F372.62135922330094
aF177.37864077669903
aa(lp134
F371.6504854368932
aF178.34951456310682
aa(lp135
F370.6796116504854
aF179.3203883495146
aa(lp136
F369.70873786407765
aF180.29126213592235
aa(lp137
F368.7378640776699
aF181.26213592233012
aa(lp138
F367.7669902912621
aF182.23300970873788
aa(lp139
F366.79611650485435
aF183.20388349514565
aa(lp140
F365.8252427184466
aF184.1747572815534
aa(lp141
F364.8543689320388
aF185.1456310679612
aa(lp142
F363.88349514563106
aF186.11650485436894
aa(lp143
F362.9126213592233
aF187.0873786407767
aa(lp144
F361.94174757281553
aF188.0582524271845
aa(lp145
F360.97087378640776
aF189.02912621359224
aa(lp146
F360.0
aF190.0
aa(lp147
F357.0873786407766
aF191.9417475728156
aa(lp148
F354.17475728155335
aF193.88349514563112
aa(lp149
F351.26213592233006
aF195.82524271844662
aa(lp150
F348.3495145631068
aF197.76699029126215
aa(lp151
F345.4368932038834
aF199.70873786407773
aa(lp152
F342.5242718446601
aF201.65048543689323
aa(lp153
F339.6116504854369
aF203.59223300970876
aa(lp154
F336.6990291262135
aF205.53398058252435
aa(lp155
F333.78640776699024
aF207.47572815533985
aa(lp156
F330.87378640776694
aF209.41747572815538
aa(lp157
F327.9611650485436
aF210.67961165048547
aa(lp158
F325.0485436893203
aF211.65048543689323
aa(lp159
F322.13592233009706
aF212.621359223301
aa(lp160
F319.22330097087365
aF213.59223300970876
aa(lp161
F316.3106796116504
aF214.56310679611653
aa(lp162
F313.3980582524271
aF215.5339805825243
aa(lp163
F310.4854368932039
aF216.50485436893203
aa(lp164
F307.57281553398053
aF217.47572815533982
aa(lp165
F304.66019417475724
aF218.4466019417476
aa(lp166
F301.747572815534
aF219.41747572815535
aa(lp167
F298.4466019417475
aF220.38834951456312
aa(lp168
F294.5631067961165
aF221.35922330097088
aa(lp169
F290.6796116504854
aF222.33009708737865
aa(lp170
F286.79611650485424
aF223.30097087378644
aa(lp171
F282.9126213592232
aF224.2718446601942
aa(lp172
F279.0291262135922
aF225.24271844660197
aa(lp173
F275.1456310679611
aF226.2135922330097
aa(lp174
F271.26213592232995
aF227.1844660194175
aa(lp175
F267.37864077669894
aF228.15533980582526
aa(lp176
F263.4951456310679
aF229.12621359223303
aa(lp177
F259.70873786407753
aF230.09708737864082
aa(lp178
F256.7961165048543
aF231.0679611650486
aa(lp179
F253.88349514563103
aF232.03883495145632
aa(lp180
F250.97087378640765
aF233.00970873786412
aa(lp181
F248.05825242718439
aF233.98058252427188
aa(lp182
F245.14563106796112
aF234.95145631067962
aa(lp183
F242.23300970873777
aF235.9223300970874
aa(lp184
F239.3203883495145
aF236.89320388349518
aa(lp185
F236.40776699029124
aF237.8640776699029
aa(lp186
F233.49514563106797
aF238.83495145631068
aa(lp187
F230.5825242718446
aF239.80582524271847
aa(lp188
F228.44660194174753
aF242.33009708737868
aa(lp189
F226.50485436893203
aF245.24271844660194
aa(lp190
F224.56310679611644
aF248.15533980582532
aa(lp191
F222.62135922330094
aF251.0679611650486
aa(lp192
F220.6796116504854
aF253.98058252427185
aa(lp193
F218.73786407766988
aF256.8932038834952
aa(lp194
F216.79611650485433
aF259.8058252427185
aa(lp195
F214.85436893203882
aF262.71844660194176
aa(lp196
F212.91262135922327
aF265.6310679611651
aa(lp197
F210.9708737864077
aF268.5436893203884
aa(lp198
F210.0
aF270.97087378640776
aag42
a(lp199
F358.8349514563107
aF398.8349514563107
aa(lp200
F356.8932038834952
aF396.8932038834952
aa(lp201
F354.95145631067965
aF394.95145631067965
aa(lp202
F353.0097087378641
aF393.0097087378641
aa(lp203
F351.06796116504853
aF391.06796116504853
aa(lp204
F349.126213592233
aF389.126213592233
aa(lp205
F347.18446601941747
aF387.18446601941747
aa(lp206
F345.24271844660194
aF385.24271844660194
aa(lp207
F343.3009708737864
aF383.3009708737864
aa(lp208
F341.3592233009709
aF381.3592233009709
aa(lp209
F339.41747572815535
aF379.70873786407765
aa(lp210
F337.4757281553398
aF378.73786407766994
aa(lp211
F335.5339805825243
aF377.7669902912621
aa(lp212
F333.59223300970876
aF376.7961165048544
aa(lp213
F331.65048543689323
aF375.8252427184466
aa(lp214
F329.70873786407765
aF374.8543689320388
aa(lp215
F327.7669902912622
aF373.88349514563106
aa(lp216
F325.8252427184466
aF372.9126213592233
aa(lp217
F323.88349514563106
aF371.94174757281553
aa(lp218
F321.94174757281553
aF370.97087378640776
aa(lp219
F320.0
aF370.0
aa(lp220
F315.14563106796123
aF369.02912621359224
aa(lp221
F310.29126213592235
aF368.05825242718447
aa(lp222
F305.43689320388347
aF367.0873786407767
aa(lp223
F300.5825242718447
aF366.11650485436894
aa(lp224
F295.7281553398058
aF365.1456310679612
aa(lp225
F290.87378640776706
aF364.1747572815534
aa(lp226
F286.0194174757282
aF363.20388349514565
aa(lp227
F281.1650485436893
aF362.2330097087379
aa(lp228
F276.3106796116505
aF361.2621359223301
aa(lp229
F271.45631067961165
aF360.29126213592235
aa(lp230
F267.9611650485437
aF358.6407766990292
aa(lp231
F265.0485436893204
aF356.6990291262136
aa(lp232
F262.1359223300971
aF354.75728155339806
aa(lp233
F259.2233009708738
aF352.81553398058253
aa(lp234
F256.3106796116505
aF350.873786407767
aa(lp235
F253.3980582524272
aF348.93203883495147
aa(lp236
F250.48543689320394
aF346.99029126213594
aa(lp237
F247.57281553398062
aF345.0485436893204
aa(lp238
F244.66019417475735
aF343.1067961165049
aa(lp239
F241.74757281553403
aF341.16504854368935
aa(lp240
F239.22330097087382
aF339.2233009708738
aa(lp241
F237.2815533980583
aF337.2815533980583
aa(lp242
F235.33980582524273
aF335.33980582524276
aa(lp243
F233.39805825242723
aF333.39805825242723
aa(lp244
F231.45631067961168
aF331.4563106796117
aa(lp245
F229.51456310679615
aF329.5145631067961
aa(lp246
F227.57281553398062
aF327.57281553398064
aa(lp247
F225.6310679611651
aF325.63106796116506
aa(lp248
F223.68932038834956
aF323.6893203883496
aa(lp249
F221.74757281553403
aF321.747572815534
aa(lp250
F219.90291262135923
aF319.7087378640777
aa(lp251
F218.93203883495147
aF316.7961165048544
aa(lp252
F217.9611650485437
aF313.8834951456311
aa(lp253
F216.99029126213594
aF310.9708737864078
aa(lp254
F216.01941747572818
aF308.0582524271845
aa(lp255
F215.0485436893204
aF305.1456310679612
aa(lp256
F214.07766990291265
aF302.23300970873794
aa(lp257
F213.10679611650488
aF299.3203883495146
aa(lp258
F212.1359223300971
aF296.4077669902913
aa(lp259
F211.16504854368935
aF293.495145631068
aa(lp260
F210.19417475728156
aF290.5825242718447
aa(lp261
F210.0
aF288.44660194174764
aa(lp262
F210.0
aF286.50485436893206
aa(lp263
F210.0
aF284.56310679611653
aa(lp264
F210.0
aF282.621359223301
aa(lp265
F210.0
aF280.67961165048547
aa(lp266
F210.0
aF278.73786407766994
aa(lp267
F210.0
aF276.7961165048544
aa(lp268
F210.0
aF274.8543689320389
aa(lp269
F210.0
aF272.91262135922335
aag198
ag125
a(lp270
F378.6407766990292
aF165.92233009708744
aa(lp271
F377.66990291262135
aF163.0097087378641
aa(lp272
F376.6990291262136
aF160.09708737864082
aa(lp273
F375.7281553398058
aF157.18446601941756
aa(lp274
F374.75728155339806
aF154.27184466019418
aa(lp275
F373.7864077669903
aF151.3592233009709
aa(lp276
F372.81553398058253
aF148.44660194174764
aa(lp277
F371.84466019417476
aF145.5339805825243
aa(lp278
F370.873786407767
aF142.62135922330103
aa(lp279
F369.8058252427185
aF139.90291262135926
aa(lp280
F367.86407766990294
aF138.93203883495147
aa(lp281
F365.9223300970874
aF137.9611650485437
aa(lp282
F363.9805825242719
aF136.99029126213594
aa(lp283
F362.0388349514564
aF136.0194174757282
aa(lp284
F360.0970873786408
aF135.0485436893204
aa(lp285
F358.1553398058253
aF134.07766990291265
aa(lp286
F356.2135922330098
aF133.1067961165049
aa(lp287
F354.27184466019423
aF132.13592233009712
aa(lp288
F352.3300970873787
aF131.16504854368935
aa(lp289
F350.3883495145632
aF130.1941747572816
aa(lp290
F346.11650485436905
aF129.2233009708738
aa(lp291
F341.26213592233023
aF128.25242718446606
aa(lp292
F336.40776699029146
aF127.28155339805829
aa(lp293
F331.55339805825264
aF126.31067961165053
aa(lp294
F326.6990291262137
aF125.33980582524273
aa(lp295
F321.84466019417493
aF124.36893203883498
aa(lp296
F316.9902912621361
aF123.39805825242722
aa(lp297
F312.1359223300972
aF122.42718446601943
aa(lp298
F307.28155339805835
aF121.45631067961168
aa(lp299
F302.4271844660196
aF120.48543689320391
aa(lp300
F298.05825242718447
aF119.51456310679612
aa(lp301
F294.17475728155347
aF118.54368932038837
aa(lp302
F290.29126213592247
aF117.57281553398062
aa(lp303
F286.4077669902913
aF116.60194174757282
aa(lp304
F282.5242718446603
aF115.63106796116507
aa(lp305
F278.64077669902923
aF114.66019417475731
aa(lp306
F274.75728155339823
aF113.68932038834956
aa(lp307
F270.87378640776706
aF112.71844660194176
aa(lp308
F266.99029126213605
aF111.74757281553401
aa(lp309
F263.10679611650505
aF110.77669902912626
aa(lp310
F259.2233009708739
aF109.80582524271847
aa(lp311
F255.33980582524285
aF108.8349514563107
aa(lp312
F251.45631067961182
aF107.86407766990295
aa(lp313
F247.57281553398064
aF106.89320388349516
aa(lp314
F243.6893203883496
aF105.9223300970874
aa(lp315
F239.80582524271858
aF104.95145631067965
aa(lp316
F235.92233009708752
aF103.98058252427188
aa(lp317
F232.03883495145635
aF103.00970873786409
aa(lp318
F228.15533980582535
aF102.03883495145634
aa(lp319
F224.2718446601943
aF101.06796116504857
aa(lp320
F220.38834951456312
aF100.09708737864078
aa(lp321
F218.25242718446606
aF98.25242718446606
aa(lp322
F216.31067961165056
aF96.31067961165054
aa(lp323
F214.36893203883497
aF94.36893203883497
aa(lp324
F212.42718446601947
aF92.42718446601945
aa(lp325
F210.48543689320394
aF90.48543689320394
aa(lp326
F208.54368932038835
aF88.54368932038837
aa(lp327
F206.60194174757285
aF86.60194174757285
aa(lp328
F204.66019417475735
aF84.66019417475735
aa(lp329
F202.71844660194185
aF82.71844660194184
aa(lp330
F200.77669902912626
aF80.77669902912626
aa(lp331
F198.25242718446611
aF79.41747572815537
aa(lp332
F195.33980582524285
aF78.44660194174762
aa(lp333
F192.42718446601947
aF77.47572815533982
aa(lp334
F189.5145631067962
aF76.50485436893206
aa(lp335
F186.6019417475729
aF75.53398058252431
aa(lp336
F183.68932038834953
aF74.56310679611651
aa(lp337
F180.77669902912626
aF73.59223300970875
aa(lp338
F177.864077669903
aF72.621359223301
aa(lp339
F174.9514563106797
aF71.65048543689323
aa(lp340
F172.03883495145632
aF70.67961165048544
aa(lp341
F169.41747572815538
aF69.41747572815537
aa(lp342
F167.47572815533985
aF67.47572815533985
aa(lp343
F165.53398058252426
aF65.53398058252426
aa(lp344
F163.59223300970876
aF63.59223300970876
aa(lp345
F161.65048543689323
aF61.650485436893234
aa(lp346
F159.70873786407765
aF59.70873786407765
aa(lp347
F157.76699029126215
aF57.76699029126213
aa(lp348
F155.82524271844662
aF55.82524271844662
aa(lp349
F153.88349514563103
aF53.88349514563103
aa(lp350
F151.94174757281553
aF51.941747572815515
aa(lp351
F150.0
aF50.0
aasS'pin_pts'
p352
(lp353
g26
a(lp354
g2
(g16
S'x\x00\x00\x00\x00\x00\x00\x00'
p355
tp356
Rp357
ag2
(g16
S'\xf0\x00\x00\x00\x00\x00\x00\x00'
p358
tp359
Rp360
aa(lp361
g2
(g16
S'\x96\x00\x00\x00\x00\x00\x00\x00'
p362
tp363
Rp364
ag2
(g16
S'Z\x00\x00\x00\x00\x00\x00\x00'
p365
tp366
Rp367
aa(lp368
g2
(g16
S'\xf0\x00\x00\x00\x00\x00\x00\x00'
p369
tp370
Rp371
ag2
(g16
S'x\x00\x00\x00\x00\x00\x00\x00'
p372
tp373
Rp374
aa(lp375
g2
(g16
S'\x0e\x01\x00\x00\x00\x00\x00\x00'
p376
tp377
Rp378
ag2
(g16
S'\x18\x01\x00\x00\x00\x00\x00\x00'
p379
tp380
Rp381
aa(lp382
g2
(g16
S'2\x00\x00\x00\x00\x00\x00\x00'
p383
tp384
Rp385
ag2
(g16
S'\x0e\x01\x00\x00\x00\x00\x00\x00'
p386
tp387
Rp388
aa(lp389
g2
(g16
S'2\x00\x00\x00\x00\x00\x00\x00'
p390
tp391
Rp392
ag2
(g16
S'\xaa\x00\x00\x00\x00\x00\x00\x00'
p393
tp394
Rp395
aa(lp396
g2
(g16
S'\xdc\x00\x00\x00\x00\x00\x00\x00'
p397
tp398
Rp399
ag2
(g16
S'Z\x00\x00\x00\x00\x00\x00\x00'
p400
tp401
Rp402
aa(lp403
g2
(g16
S'\x8c\x00\x00\x00\x00\x00\x00\x00'
p404
tp405
Rp406
ag2
(g16
S'\xf0\x00\x00\x00\x00\x00\x00\x00'
p407
tp408
Rp409
aa(lp410
g2
(g16
S'\xd2\x00\x00\x00\x00\x00\x00\x00'
p411
tp412
Rp413
ag2
(g16
S'<\x00\x00\x00\x00\x00\x00\x00'
p414
tp415
Rp416
aa(lp417
g2
(g16
S'P\x00\x00\x00\x00\x00\x00\x00'
p418
tp419
Rp420
ag2
(g16
S'\x18\x01\x00\x00\x00\x00\x00\x00'
p421
tp422
Rp423
aa(lp424
g2
(g16
S'\x8c\x00\x00\x00\x00\x00\x00\x00'
p425
tp426
Rp427
ag2
(g16
S'\x04\x01\x00\x00\x00\x00\x00\x00'
p428
tp429
Rp430
aag13
a(lp431
g2
(g16
S'<\x00\x00\x00\x00\x00\x00\x00'
p432
tp433
Rp434
ag2
(g16
S'"\x01\x00\x00\x00\x00\x00\x00'
p435
tp436
Rp437
aa(lp438
g2
(g16
S'\xaa\x00\x00\x00\x00\x00\x00\x00'
p439
tp440
Rp441
ag2
(g16
S'd\x00\x00\x00\x00\x00\x00\x00'
p442
tp443
Rp444
aa(lp445
g2
(g16
S'\xd2\x00\x00\x00\x00\x00\x00\x00'
p446
tp447
Rp448
ag2
(g16
S'd\x00\x00\x00\x00\x00\x00\x00'
p449
tp450
Rp451
aa(lp452
g2
(g16
S'\xdc\x00\x00\x00\x00\x00\x00\x00'
p453
tp454
Rp455
ag2
(g16
S'2\x00\x00\x00\x00\x00\x00\x00'
p456
tp457
Rp458
aa(lp459
g2
(g16
S'\xa0\x00\x00\x00\x00\x00\x00\x00'
p460
tp461
Rp462
ag2
(g16
S'\x18\x01\x00\x00\x00\x00\x00\x00'
p463
tp464
Rp465
aa(lp466
g2
(g16
S'\xa0\x00\x00\x00\x00\x00\x00\x00'
p467
tp468
Rp469
ag2
(g16
S'\xf0\x00\x00\x00\x00\x00\x00\x00'
p470
tp471
Rp472
aa(lp473
g2
(g16
S'2\x00\x00\x00\x00\x00\x00\x00'
p474
tp475
Rp476
ag2
(g16
S'<\x00\x00\x00\x00\x00\x00\x00'
p477
tp478
Rp479
aa(lp480
g2
(g16
S'\xa0\x00\x00\x00\x00\x00\x00\x00'
p481
tp482
Rp483
ag2
(g16
S'd\x00\x00\x00\x00\x00\x00\x00'
p484
tp485
Rp486
aa(lp487
g2
(g16
S'\xbe\x00\x00\x00\x00\x00\x00\x00'
p488
tp489
Rp490
ag2
(g16
S'2\x00\x00\x00\x00\x00\x00\x00'
p491
tp492
Rp493
aa(lp494
g2
(g16
S'\x0e\x01\x00\x00\x00\x00\x00\x00'
p495
tp496
Rp497
ag2
(g16
S'\xf0\x00\x00\x00\x00\x00\x00\x00'
p498
tp499
Rp500
aa(lp501
g2
(g16
S'\x18\x01\x00\x00\x00\x00\x00\x00'
p502
tp503
Rp504
ag2
(g16
S'\xfa\x00\x00\x00\x00\x00\x00\x00'
p505
tp506
Rp507
aa(lp508
g2
(g16
S'\x18\x01\x00\x00\x00\x00\x00\x00'
p509
tp510
Rp511
ag2
(g16
S'\x0e\x01\x00\x00\x00\x00\x00\x00'
p512
tp513
Rp514
aa(lp515
g2
(g16
S'2\x00\x00\x00\x00\x00\x00\x00'
p516
tp517
Rp518
ag2
(g16
S'\xdc\x00\x00\x00\x00\x00\x00\x00'
p519
tp520
Rp521
aa(lp522
g2
(g16
S'<\x00\x00\x00\x00\x00\x00\x00'
p523
tp524
Rp525
ag2
(g16
S'\xfa\x00\x00\x00\x00\x00\x00\x00'
p526
tp527
Rp528
aa(lp529
g2
(g16
S'\x96\x00\x00\x00\x00\x00\x00\x00'
p530
tp531
Rp532
ag2
(g16
S'<\x00\x00\x00\x00\x00\x00\x00'
p533
tp534
Rp535
aa(lp536
g2
(g16
S'\xbe\x00\x00\x00\x00\x00\x00\x00'
p537
tp538
Rp539
ag2
(g16
S'\xfa\x00\x00\x00\x00\x00\x00\x00'
p540
tp541
Rp542
aa(lp543
g2
(g16
S'd\x00\x00\x00\x00\x00\x00\x00'
p544
tp545
Rp546
ag2
(g16
S'\xfa\x00\x00\x00\x00\x00\x00\x00'
p547
tp548
Rp549
aasS'trajectory'
p550
(lp551
(lp552
g125
ag270
ag271
ag272
ag273
ag274
ag275
ag276
ag277
ag278
ag279
ag280
ag281
ag282
ag283
ag284
ag285
ag286
ag287
ag288
ag289
ag290
ag291
ag292
ag293
ag294
ag295
ag296
ag297
ag298
ag299
ag300
ag301
ag302
ag303
ag304
ag305
ag306
ag307
ag308
ag309
ag310
ag311
ag312
ag313
ag314
ag315
ag316
ag317
ag318
ag319
ag320
ag321
ag322
ag323
ag324
ag325
ag326
ag327
ag328
ag329
ag330
ag331
ag332
ag333
ag334
ag335
ag336
ag337
ag338
ag339
ag340
ag341
ag342
ag343
ag344
ag345
ag346
ag347
ag348
ag349
ag350
ag351
aa(lp553
g42
ag199
ag200
ag201
ag202
ag203
ag204
ag205
ag206
ag207
ag208
ag209
ag210
ag211
ag212
ag213
ag214
ag215
ag216
ag217
ag218
ag219
ag220
ag221
ag222
ag223
ag224
ag225
ag226
ag227
ag228
ag229
ag230
ag231
ag232
ag233
ag234
ag235
ag236
ag237
ag238
ag239
ag240
ag241
ag242
ag243
ag244
ag245
ag246
ag247
ag248
ag249
ag250
ag251
ag252
ag253
ag254
ag255
ag256
ag257
ag258
ag259
ag260
ag261
ag262
ag263
ag264
ag265
ag266
ag267
ag268
ag269
ag198
aa(lp554
g125
ag126
ag127
ag128
ag129
ag130
ag131
ag132
ag133
ag134
ag135
ag136
ag137
ag138
ag139
ag140
ag141
ag142
ag143
ag144
ag145
ag146
ag147
ag148
ag149
ag150
ag151
ag152
ag153
ag154
ag155
ag156
ag157
ag158
ag159
ag160
ag161
ag162
ag163
ag164
ag165
ag166
ag167
ag168
ag169
ag170
ag171
ag172
ag173
ag174
ag175
ag176
ag177
ag178
ag179
ag180
ag181
ag182
ag183
ag184
ag185
ag186
ag187
ag188
ag189
ag190
ag191
ag192
ag193
ag194
ag195
ag196
ag197
ag198
aa(lp555
g42
ag43
ag44
ag45
ag46
ag47
ag48
ag49
ag50
ag51
ag52
ag53
ag54
ag55
ag56
ag57
ag58
ag59
ag60
ag61
ag62
ag63
ag64
ag65
ag66
ag67
ag68
ag69
ag70
ag71
ag72
ag73
ag74
ag75
ag76
ag77
ag78
ag79
ag80
ag81
ag82
ag83
ag84
ag85
ag86
ag87
ag88
ag89
ag90
ag91
ag92
ag93
ag94
ag95
ag96
ag97
ag98
ag99
ag100
ag101
ag102
ag103
ag104
ag105
ag106
ag107
ag108
ag109
ag110
ag111
ag112
ag113
ag114
ag115
ag116
ag117
ag118
ag119
ag120
ag121
ag122
ag123
ag124
aasS'pin_scores'
p556
(lp557
g2
(g6
S'\x00\x00\x00\x00\x00@P\xc0'
p558
tp559
Rp560
ag2
(g6
S'\x00\x00\x00\x00\x00\xc0P\xc0'
p561
tp562
Rp563
ag2
(g6
S'\x00\x00\x00\x00\x00\xc0P\xc0'
p564
tp565
Rp566
ag2
(g6
S'\x00\x00\x00\x00\x00@Q\xc0'
p567
tp568
Rp569
ag2
(g6
S'\x00\x00\x00\x00\x00\x80N\xc0'
p570
tp571
Rp572
ag2
(g6
S'\x00\x00\x00\x00\x00\x00R\xc0'
p573
tp574
Rp575
ag2
(g6
S'\x00\x00\x00\x00\x00\x80Q\xc0'
p576
tp577
Rp578
ag2
(g6
S'\x00\x00\x00\x00\x00\x80P\xc0'
p579
tp580
Rp581
ag2
(g6
S'\x00\x00\x00\x00\x00\x00R\xc0'
p582
tp583
Rp584
ag2
(g6
S'\x00\x00\x00\x00\x00\xc0Q\xc0'
p585
tp586
Rp587
ag2
(g6
S'\x00\x00\x00\x00\x00\x80R\xc0'
p588
tp589
Rp590
ag2
(g6
S'\x00\x00\x00\x00\x00\x80P\xc0'
p591
tp592
Rp593
ag2
(g6
S'\x00\x00\x00\x00\x00\x00K\xc0'
p594
tp595
Rp596
ag2
(g6
S'\x00\x00\x00\x00\x00\x80O\xc0'
p597
tp598
Rp599
ag2
(g6
S'\x00\x00\x00\x00\x00\x00P\xc0'
p600
tp601
Rp602
ag2
(g6
S'\x00\x00\x00\x00\x00\x80O\xc0'
p603
tp604
Rp605
ag2
(g6
S'\x00\x00\x00\x00\x00\x80P\xc0'
p606
tp607
Rp608
ag2
(g6
S'\x00\x00\x00\x00\x00\xc0P\xc0'
p609
tp610
Rp611
ag2
(g6
S'\x00\x00\x00\x00\x00\x80P\xc0'
p612
tp613
Rp614
ag2
(g6
S'\x00\x00\x00\x00\x00\xc0P\xc0'
p615
tp616
Rp617
ag2
(g6
S'\x00\x00\x00\x00\x00\x80P\xc0'
p618
tp619
Rp620
ag2
(g6
S'\x00\x00\x00\x00\x00@Q\xc0'
p621
tp622
Rp623
ag2
(g6
S'\x00\x00\x00\x00\x00\x80K\xc0'
p624
tp625
Rp626
ag2
(g6
S'\x00\x00\x00\x00\x00\x80K\xc0'
p627
tp628
Rp629
ag2
(g6
S'\x00\x00\x00\x00\x00\x00K\xc0'
p630
tp631
Rp632
ag2
(g6
S'\x00\x00\x00\x00\x00\x00Q\xc0'
p633
tp634
Rp635
ag2
(g6
S'\x00\x00\x00\x00\x00\x80Q\xc0'
p636
tp637
Rp638
ag2
(g6
S'\x00\x00\x00\x00\x00@P\xc0'
p639
tp640
Rp641
ag2
(g6
S'\x00\x00\x00\x00\x00\x00Q\xc0'
p642
tp643
Rp644
ag2
(g6
S'\x00\x00\x00\x00\x00@R\xc0'
p645
tp646
Rp647
asS'best_score'
p648
g596
s.