(dp0
S'worst_score'
p1
cnumpy.core.multiarray
scalar
p2
(cnumpy
dtype
p3
(S'f8'
p4
I0
I1
tp5
Rp6
(I3
S'<'
p7
NNNI-1
I-1
I0
tp8
bS'\x00\x00\x00\x00\x00@f\xc0'
p9
tp10
Rp11
sS'best_pin_pt'
p12
(lp13
g2
(g3
(S'i8'
p14
I0
I1
tp15
Rp16
(I3
S'<'
p17
NNNI-1
I-1
I0
tp18
bS'"\x01\x00\x00\x00\x00\x00\x00'
p19
tp20
Rp21
ag2
(g16
S'"\x01\x00\x00\x00\x00\x00\x00'
p22
tp23
Rp24
asS'worst_pin_pt'
p25
(lp26
g2
(g16
S'2\x00\x00\x00\x00\x00\x00\x00'
p27
tp28
Rp29
ag2
(g16
S'\xdc\x00\x00\x00\x00\x00\x00\x00'
p30
tp31
Rp32
asS'totalpts'
p33
I52
sS'indices_of_pts'
p34
(lp35
(lp36
I0
aI1
aI2
aI3
aI4
aI5
aI6
aI7
aI8
aI9
aI10
aI11
aI12
aI13
aI14
aI15
aI16
aI17
aI18
aI19
aI20
aI21
aI22
aI23
aI24
aI25
aI26
aI27
aI28
aI29
aI30
aI31
aI32
aI33
aI34
aI35
aI36
aI37
aI38
aI39
aI40
aI41
aI42
aI43
aI44
aI45
aI46
aI47
aI48
aI49
aI50
aI51
aI52
aI53
aI54
aI55
aI56
aI57
aI58
aI59
aI60
aI61
aI62
aI63
aI64
aI65
aI66
aI67
aI68
aI69
aI70
aI71
aI72
aI73
aI74
aI75
aI76
aI77
aI78
aI79
aI80
aI81
aI82
aI83
aI84
aI85
aI86
aI87
aI88
aI89
aI90
aI91
aI92
aI93
aI94
aI95
aI96
aI97
aI98
aI99
aI100
aI101
aI102
aI103
aI104
aI105
aI106
aI107
aI108
aI109
aI110
aI111
aI112
aI113
aI114
aI115
aI116
aI117
aI118
aI119
aI120
aI121
aI122
aI123
aI124
aI125
aI126
aI127
aI128
aI129
aI130
aI131
aI132
aI133
aI134
aI135
aI136
aI137
aI138
aI139
aI140
aI141
aI142
aI143
aI144
aI145
aI146
aI147
aI148
aI149
aI150
aI151
aI152
aI153
aI154
aI155
aI156
aI157
aI158
aI159
aI160
aI161
aI162
aI163
aI164
aI165
aI166
aI167
aI168
aI169
aI170
aI171
aI172
aI173
aI174
aI175
aI176
aI177
aI178
aI179
aI180
aI181
aI182
aI183
aI184
aI185
aI186
aI187
aI188
aI189
aI190
aI191
aI192
aI193
aI194
aI195
aI196
aI197
aI198
aI199
aI200
aI201
aI202
aI203
aI204
aI205
aI206
aI207
aI208
aI209
aI210
aI211
aI212
aI213
aI214
aI215
aI216
aI217
aI218
aI219
aI220
aI221
aI222
aI223
aI224
aI225
aI226
aI227
aI228
aI229
aI230
aI231
aI232
aI233
aI234
aI235
aI236
aI237
aI238
aI239
aI240
aI241
aI242
aI243
aI244
aI245
aI246
aI247
aI248
aI249
aI250
aI251
aI252
aI253
aI254
aI255
aI256
aI257
aI258
aI259
aI260
aI261
aI262
aI263
aI264
aI265
aI266
aI267
aI268
aI269
aI270
aI271
aI272
aI273
aI274
aI275
aI276
aI277
aI278
aI279
aI280
aI281
aI282
aI283
aI284
aI285
aI286
aI287
aI288
aI289
aI290
aI291
aI292
aI293
aI294
aI295
aI296
aI297
aI298
aI299
aI300
aI301
aI302
aI303
aI304
aI305
aI306
aI307
aI308
aI309
aI310
aI311
aI312
aI313
aI314
aI315
aI316
aI317
aI318
aI319
aI320
aI321
aI322
aI323
aI324
aI325
aI326
aI327
aI328
aI329
aI330
aI331
aI332
aI333
aI334
aI335
aI336
aI337
aI338
aI339
aI340
aI341
aI342
aI343
aI344
aI345
aI346
aI347
aI348
aI349
aI350
aI351
aI352
aI353
aI354
aI355
aI356
aI357
aI358
aI359
aI360
aI361
aI362
aI363
aI364
aI365
aI366
aI367
aI368
aI369
aI370
aI371
aI372
aI373
aI374
aI375
aI376
aI377
aI378
aI379
aI0
aI1
aI2
aI3
aI4
aI5
aI6
aI7
aI8
aI9
aI10
aI11
aI12
aI13
aI14
aI15
aI16
aI17
aI18
aI19
aI20
aI21
aI22
aI23
aI24
aI25
aI26
aI27
aI28
aI29
aI30
aI31
aI32
aI33
aI34
aI35
aI36
aI37
aI38
aI39
aI40
aI41
aI42
aI43
aI44
aI45
aI46
aI47
aI48
aI49
aI50
aI51
aI52
aI53
aI54
aI55
aI56
aI57
aI58
aI59
aI60
aI61
aI62
aI63
aI64
aI65
aI66
aI67
aI68
aI69
aI70
aI71
aI72
aa(lp37
a(lp38
I194
aI195
aI196
aI197
aI198
aI199
aI200
aI201
aI202
aI203
aI204
aI205
aI206
aI207
aI208
aI209
aI210
aI211
aI212
aI213
aI214
aI215
aI216
aI217
aI218
aI219
aI220
aI221
aI222
aI223
aI224
aI225
aI226
aI227
aI228
aI229
aI230
aI231
aI232
aI233
aI234
aI235
aI236
aI237
aI238
aI239
aI240
aI241
aI242
aI243
aI244
aI245
aI246
aI247
aI248
aI249
aI250
aI251
aI252
aI253
aI254
aI255
aI256
aI257
aI258
aI259
aI260
aI261
aI262
aI263
aI264
aI265
aI266
aI267
aI268
aI269
aI270
aI271
aI272
aI273
aI274
aI275
aI276
aI277
aI278
aI279
aI280
aI281
aI282
aI283
aI284
aI285
aI286
aI287
aI288
aI289
aI290
aI291
aI292
aI293
aI294
aI295
aI296
aI297
aI298
aI299
aI300
aI301
aI302
aI303
aI304
aI305
aI306
aI307
aa(lp39
I194
aI193
aI192
aI191
aI190
aI189
aI188
aI187
aI186
aI185
aI184
aI183
aI182
aI181
aI180
aI179
aI178
aI177
aI176
aI175
aI174
aI173
aI172
aI171
aI170
aI169
aI168
aI167
aI166
aI165
aI164
aI163
aI162
aI161
aI160
aI159
aI158
aI157
aI156
aI155
aI154
aI153
aI152
aI151
aI150
aI149
aI148
aI147
aI146
aI145
aI144
aI143
aI142
aI141
aI140
aI139
aI138
aI137
aI136
aI135
aI134
aI133
aI132
aI131
aI130
aI129
aI128
aI127
aI126
aI125
aI124
aI123
aI122
aI121
aI120
aI119
aI118
aI117
aI116
aI115
aI114
aI113
aI112
aI111
aI110
aI109
aI108
aI107
aI106
aI105
aI104
aI103
aI102
aI101
aI100
aI99
aI98
aI97
aI96
aI95
aI94
aI93
aI92
aI91
aI90
aI89
aI88
aI87
aI86
aI85
aI84
aI83
aI82
aI81
aI80
aI79
aI78
aI77
aI76
aI75
aI74
aI73
aI72
aasS'old_trajectory'
p40
(lp41
(lp42
F240.0
aF290.0
aa(lp43
F240.0
aF291.9525065963061
aa(lp44
F240.0
aF293.90501319261216
aa(lp45
F240.0
aF295.8575197889182
aa(lp46
F240.0
aF297.81002638522426
aa(lp47
F240.0
aF299.76253298153034
aa(lp48
F240.0
aF301.7150395778364
aa(lp49
F240.0
aF303.6675461741425
aa(lp50
F240.0
aF305.6200527704485
aa(lp51
F240.0
aF307.5725593667546
aa(lp52
F240.0
aF309.5250659630607
aa(lp53
F239.26121372031662
aF312.21635883905014
aa(lp54
F238.28496042216358
aF315.14511873350926
aa(lp55
F237.30870712401057
aF318.0738786279683
aa(lp56
F236.33245382585753
aF321.00263852242745
aa(lp57
F235.3562005277045
aF323.93139841688657
aa(lp58
F234.37994722955145
aF326.86015831134563
aa(lp59
F233.4036939313984
aF329.78891820580475
aa(lp60
F232.4274406332454
aF332.71767810026387
aa(lp61
F231.45118733509236
aF335.646437994723
aa(lp62
F230.47493403693932
aF338.57519788918205
aa(lp63
F228.99736147757255
aF341.00263852242745
aa(lp64
F227.04485488126647
aF342.9551451187335
aa(lp65
F225.09234828496042
aF344.9076517150396
aa(lp66
F223.13984168865434
aF346.86015831134563
aa(lp67
F221.1873350923483
aF348.8126649076517
aa(lp68
F219.2348284960422
aF350.7651715039578
aa(lp69
F217.28232189973613
aF352.71767810026387
aa(lp70
F215.32981530343008
aF354.67018469656995
aa(lp71
F213.377308707124
aF356.62269129287597
aa(lp72
F211.42480211081795
aF358.57519788918205
aa(lp73
F209.2084432717678
aF360.52770448548813
aa(lp74
F206.2796833773087
aF362.4802110817942
aa(lp75
F203.3509234828496
aF364.4327176781003
aa(lp76
F200.42216358839048
aF366.38522427440637
aa(lp77
F197.49340369393138
aF368.3377308707124
aa(lp78
F194.5646437994723
aF370.29023746701847
aa(lp79
F191.63588390501317
aF372.24274406332455
aa(lp80
F188.70712401055408
aF374.19525065963063
aa(lp81
F185.778364116095
aF376.14775725593665
aa(lp82
F182.8496042216359
aF378.10026385224273
aa(lp83
F179.9472295514512
aF380.0263852242744
aa(lp84
F177.9947229551451
aF381.00263852242745
aa(lp85
F176.04221635883906
aF381.9788918205805
aa(lp86
F174.08970976253298
aF382.9551451187335
aa(lp87
F172.13720316622693
aF383.93139841688657
aa(lp88
F170.18469656992085
aF384.90765171503955
aa(lp89
F168.2321899736148
aF385.8839050131926
aa(lp90
F166.2796833773087
aF386.86015831134563
aa(lp91
F164.32717678100263
aF387.83641160949867
aa(lp92
F162.37467018469658
aF388.8126649076517
aa(lp93
F160.4221635883905
aF389.78891820580475
aa(lp94
F158.46965699208442
aF391.5303430079156
aa(lp95
F156.51715039577837
aF393.48284960422166
aa(lp96
F154.5646437994723
aF395.4353562005277
aa(lp97
F152.6121372031662
aF397.38786279683376
aa(lp98
F150.65963060686016
aF399.34036939313984
aa(lp99
F148.70712401055408
aF401.2928759894459
aa(lp100
F146.754617414248
aF403.245382585752
aa(lp101
F144.80211081794195
aF405.1978891820581
aa(lp102
F142.84960422163587
aF407.1503957783641
aa(lp103
F140.8970976253298
aF409.1029023746702
aa(lp104
F139.47229551451187
aF411.5831134564644
aa(lp105
F138.49604221635883
aF414.5118733509235
aa(lp106
F137.5197889182058
aF417.4406332453826
aa(lp107
F136.54353562005278
aF420.3693931398417
aa(lp108
F135.56728232189974
aF423.2981530343008
aa(lp109
F134.5910290237467
aF426.2269129287599
aa(lp110
F133.61477572559366
aF429.15567282321905
aa(lp111
F132.63852242744062
aF432.0844327176781
aa(lp112
F131.6622691292876
aF435.01319261213723
aa(lp113
F130.68601583113457
aF437.9419525065963
aa(lp114
F130.58047493403694
aF440.58047493403694
aa(lp115
F132.53298153034302
aF442.532981530343
aa(lp116
F134.4854881266491
aF444.4854881266491
aa(lp117
F136.43799472295515
aF446.4379947229552
aa(lp118
F138.39050131926123
aF448.3905013192612
aa(lp119
F140.34300791556728
aF450.3430079155673
aa(lp120
F142.29551451187336
aF452.29551451187336
aa(lp121
F144.24802110817942
aF454.24802110817944
aa(lp122
F146.2005277044855
aF456.20052770448547
aa(lp123
F148.15303430079155
aF458.15303430079155
aa(lp124
F150.21108179419522
aF460.0527704485488
aa(lp125
F154.11609498680735
aF461.02902374670185
aa(lp126
F158.02110817941957
aF462.0052770448549
aa(lp127
F161.9261213720317
aF462.98153034300793
aa(lp128
F165.83113456464383
aF463.957783641161
aa(lp129
F169.73614775725596
aF464.934036939314
aa(lp130
F173.6411609498681
aF465.91029023746705
aa(lp131
F177.54617414248025
aF466.88654353562004
aa(lp132
F181.45118733509238
aF467.8627968337731
aa(lp133
F185.35620052770452
aF468.8390501319261
aa(lp134
F189.26121372031665
aF469.81530343007915
aa(lp135
F192.37467018469658
aF469.2084432717678
aa(lp136
F195.30343007915567
aF468.23218997361477
aa(lp137
F198.23218997361477
aF467.2559366754617
aa(lp138
F201.1609498680739
aF466.2796833773087
aa(lp139
F204.089709762533
aF465.30343007915565
aa(lp140
F207.01846965699212
aF464.3271767810026
aa(lp141
F209.94722955145122
aF463.3509234828496
aa(lp142
F212.8759894459103
aF462.3746701846966
aa(lp143
F215.8047493403694
aF461.39841688654354
aa(lp144
F218.7335092348285
aF460.4221635883905
aa(lp145
F221.6622691292876
aF458.8918205804749
aa(lp146
F224.5910290237467
aF456.93931398416885
aa(lp147
F227.5197889182058
aF454.9868073878628
aa(lp148
F230.4485488126649
aF453.03430079155675
aa(lp149
F233.377308707124
aF451.08179419525067
aa(lp150
F236.3060686015831
aF449.1292875989446
aa(lp151
F239.23482849604224
aF447.1767810026385
aa(lp152
F242.16358839050136
aF445.2242744063324
aa(lp153
F245.09234828496045
aF443.27176781002635
aa(lp154
F248.02110817941954
aF441.3192612137203
aa(lp155
F250.94986807387866
aF439.36675461741424
aa(lp156
F253.87862796833775
aF437.41424802110816
aa(lp157
F256.8073878627969
aF435.4617414248021
aa(lp158
F259.73614775725594
aF433.509234828496
aa(lp159
F262.66490765171505
aF431.55672823219
aa(lp160
F265.5936675461742
aF429.6042216358839
aa(lp161
F268.52242744063324
aF427.6517150395778
aa(lp162
F271.45118733509236
aF425.69920844327174
aa(lp163
F274.3799472295515
aF423.7467018469657
aa(lp164
F277.3087071240106
aF421.7941952506596
aa(lp165
F280.1583113456465
aF419.8416886543535
aa(lp166
F282.1108179419525
aF417.8891820580475
aa(lp167
F284.0633245382586
aF415.9366754617414
aa(lp168
F286.0158311345647
aF413.9841688654353
aa(lp169
F287.96833773087076
aF412.03166226912924
aa(lp170
F289.9208443271768
aF410.0791556728232
aa(lp171
F291.87335092348286
aF408.12664907651714
aa(lp172
F293.82585751978894
aF406.17414248021106
aa(lp173
F295.77836411609496
aF404.22163588390504
aa(lp174
F297.73087071240104
aF402.26912928759896
aa(lp175
F299.6833773087071
aF400.3166226912929
aa(lp176
F301.6358839050132
aF398.3641160949868
aa(lp177
F303.5883905013193
aF396.4116094986807
aa(lp178
F305.54089709762536
aF394.45910290237464
aa(lp179
F307.49340369393144
aF392.50659630606856
aa(lp180
F309.44591029023746
aF390.55408970976254
aa(lp181
F311.39841688654354
aF388.60158311345646
aa(lp182
F313.3509234828496
aF386.6490765171504
aa(lp183
F315.3034300791557
aF384.6965699208443
aa(lp184
F317.2559366754617
aF382.7440633245383
aa(lp185
F319.2084432717678
aF380.7915567282322
aa(lp186
F320.58047493403694
aF378.8390501319261
aa(lp187
F321.55672823219
aF376.88654353562004
aa(lp188
F322.532981530343
aF374.934036939314
aa(lp189
F323.50923482849606
aF372.98153034300793
aa(lp190
F324.4854881266491
aF371.0290237467018
aa(lp191
F325.46174142480214
aF369.0765171503958
aa(lp192
F326.4379947229552
aF367.1240105540897
aa(lp193
F327.41424802110816
aF365.1715039577836
aa(lp194
F328.3905013192612
aF363.2189973614776
aa(lp195
F329.36675461741424
aF361.2664907651715
aa(lp196
F330.3430079155673
aF358.97097625329815
aa(lp197
F331.3192612137203
aF356.0422163588391
aa(lp198
F332.29551451187336
aF353.11345646437996
aa(lp199
F333.2717678100264
aF350.18469656992085
aa(lp200
F334.2480211081794
aF347.2559366754617
aa(lp201
F335.2242744063324
aF344.32717678100266
aa(lp202
F336.20052770448547
aF341.39841688654354
aa(lp203
F337.1767810026385
aF338.4696569920844
aa(lp204
F338.15303430079155
aF335.54089709762536
aa(lp205
F339.1292875989446
aF332.61213720316624
aa(lp206
F340.1055408970976
aF329.78891820580475
aa(lp207
F341.08179419525067
aF327.8364116094987
aa(lp208
F342.0580474934037
aF325.88390501319265
aa(lp209
F343.03430079155675
aF323.9313984168865
aa(lp210
F344.0105540897098
aF321.97889182058043
aa(lp211
F344.9868073878628
aF320.02638522427435
aa(lp212
F345.96306068601587
aF318.0738786279683
aa(lp213
F346.93931398416885
aF316.12137203166225
aa(lp214
F347.9155672823219
aF314.16886543535617
aa(lp215
F348.8918205804749
aF312.21635883905014
aa(lp216
F349.86807387862797
aF310.26385224274406
aa(lp217
F350.844327176781
aF307.467018469657
aa(lp218
F351.82058047493405
aF304.53825857519786
aa(lp219
F352.7968337730871
aF301.6094986807388
aa(lp220
F353.7730870712401
aF298.6807387862797
aa(lp221
F354.74934036939317
aF295.75197889182056
aa(lp222
F355.7255936675462
aF292.82321899736144
aa(lp223
F356.70184696569925
aF289.8944591029024
aa(lp224
F357.67810026385223
aF286.96569920844325
aa(lp225
F358.65435356200527
aF284.03693931398413
aa(lp226
F359.6306068601583
aF281.108179419525
aa(lp227
F360.0
aF278.17941952506595
aa(lp228
F360.0
aF275.25065963060683
aa(lp229
F360.0
aF272.3218997361477
aa(lp230
F360.0
aF269.39313984168865
aa(lp231
F360.0
aF266.46437994722953
aa(lp232
F360.0
aF263.53562005277047
aa(lp233
F360.0
aF260.60686015831135
aa(lp234
F360.0
aF257.6781002638522
aa(lp235
F360.0
aF254.74934036939305
aa(lp236
F360.0
aF251.82058047493396
aa(lp237
F359.6306068601583
aF248.89182058047487
aa(lp238
F358.65435356200527
aF245.96306068601578
aa(lp239
F357.67810026385223
aF243.0343007915567
aa(lp240
F356.7018469656992
aF240.10554089709757
aa(lp241
F355.72559366754615
aF237.17678100263848
aa(lp242
F354.7493403693931
aF234.2480211081794
aa(lp243
F353.77308707124007
aF231.3192612137203
aa(lp244
F352.7968337730871
aF228.3905013192612
aa(lp245
F351.82058047493405
aF225.4617414248021
aa(lp246
F350.844327176781
aF222.53298153034302
aa(lp247
F349.86807387862797
aF219.73614775725594
aa(lp248
F348.8918205804749
aF217.78364116094986
aa(lp249
F347.9155672823219
aF215.8311345646438
aa(lp250
F346.93931398416885
aF213.87862796833772
aa(lp251
F345.9630606860158
aF211.92612137203164
aa(lp252
F344.98680738786277
aF209.9736147757256
aa(lp253
F344.0105540897098
aF208.0211081794195
aa(lp254
F343.03430079155675
aF206.06860158311343
aa(lp255
F342.0580474934037
aF204.11609498680738
aa(lp256
F341.08179419525067
aF202.1635883905013
aa(lp257
F340.1055408970976
aF200.21108179419522
aa(lp258
F338.2585751978892
aF198.25857519788917
aa(lp259
F336.3060686015831
aF196.3060686015831
aa(lp260
F334.35356200527696
aF194.35356200527698
aa(lp261
F332.40105540897093
aF192.4010554089709
aa(lp262
F330.44854881266485
aF190.44854881266485
aa(lp263
F328.4960422163588
aF188.49604221635877
aa(lp264
F326.5435356200527
aF186.54353562005272
aa(lp265
F324.59102902374667
aF184.59102902374664
aa(lp266
F322.6385224274406
aF182.6385224274406
aa(lp267
F320.6860158311345
aF180.6860158311345
aa(lp268
F318.7335092348285
aF178.1002638522427
aa(lp269
F316.7810026385224
aF175.17150395778359
aa(lp270
F314.82849604221633
aF172.2427440633245
aa(lp271
F312.87598944591025
aF169.3139841688654
aa(lp272
F310.9234828496042
aF166.3852242744063
aa(lp273
F308.97097625329815
aF163.45646437994722
aa(lp274
F307.01846965699207
aF160.52770448548813
aa(lp275
F305.065963060686
aF157.598944591029
aa(lp276
F303.11345646437996
aF154.67018469656992
aa(lp277
F301.1609498680739
aF151.74142480211083
aa(lp278
F298.8126649076517
aF149.6042216358839
aa(lp279
F295.88390501319265
aF148.62796833773086
aa(lp280
F292.9551451187335
aF147.65171503957785
aa(lp281
F290.0263852242744
aF146.6754617414248
aa(lp282
F287.0976253298153
aF145.69920844327177
aa(lp283
F284.1688654353562
aF144.72295514511873
aa(lp284
F281.2401055408971
aF143.7467018469657
aa(lp285
F278.311345646438
aF142.77044854881265
aa(lp286
F275.3825857519788
aF141.79419525065958
aa(lp287
F272.4538258575197
aF140.81794195250654
aa(lp288
F269.52506596306057
aF139.68337730870704
aa(lp289
F266.59630606860145
aF137.73087071240099
aa(lp290
F263.6675461741424
aF135.7783641160949
aa(lp291
F260.73878627968327
aF133.82585751978885
aa(lp292
F257.8100263852242
aF131.8733509234828
aa(lp293
F254.88126649076509
aF129.92084432717672
aa(lp294
F251.952506596306
aF127.96833773087066
aa(lp295
F249.0237467018469
aF126.01583113456459
aa(lp296
F246.0949868073878
aF124.06332453825854
aa(lp297
F243.16622691292872
aF122.11081794195246
aa(lp298
F240.2374670184696
aF120.15831134564641
aa(lp299
F236.4116094986807
aF120.0
aa(lp300
F232.50659630606856
aF120.0
aa(lp301
F228.60158311345643
aF120.0
aa(lp302
F224.6965699208443
aF120.0
aa(lp303
F220.79155672823217
aF120.0
aa(lp304
F216.88654353562004
aF120.0
aa(lp305
F212.98153034300793
aF120.0
aa(lp306
F209.0765171503958
aF120.0
aa(lp307
F205.17150395778367
aF120.0
aa(lp308
F201.26649076517154
aF120.0
aa(lp309
F198.02110817941957
aF120.0
aa(lp310
F195.09234828496045
aF120.0
aa(lp311
F192.16358839050127
aF120.0
aa(lp312
F189.23482849604216
aF120.0
aa(lp313
F186.30606860158306
aF120.0
aa(lp314
F183.37730870712397
aF120.0
aa(lp315
F180.44854881266488
aF120.0
aa(lp316
F177.5197889182058
aF120.0
aa(lp317
F174.5910290237467
aF120.0
aa(lp318
F171.66226912928758
aF120.0
aa(lp319
F168.7335092348285
aF120.4221635883905
aa(lp320
F165.8047493403694
aF121.39841688654354
aa(lp321
F162.87598944591028
aF122.37467018469657
aa(lp322
F159.9472295514512
aF123.35092348284961
aa(lp323
F157.01846965699207
aF124.32717678100265
aa(lp324
F154.08970976253295
aF125.30343007915567
aa(lp325
F151.16094986807386
aF126.27968337730871
aa(lp326
F148.23218997361477
aF127.25593667546175
aa(lp327
F145.30343007915565
aF128.2321899736148
aa(lp328
F142.37467018469653
aF129.20844327176783
aa(lp329
F139.63060686015828
aF130.36939313984172
aa(lp330
F137.67810026385223
aF132.32189973614777
aa(lp331
F135.72559366754615
aF134.27440633245385
aa(lp332
F133.7730870712401
aF136.2269129287599
aa(lp333
F131.82058047493405
aF138.17941952506595
aa(lp334
F129.86807387862797
aF140.13192612137203
aa(lp335
F127.9155672823219
aF142.08443271767808
aa(lp336
F125.96306068601584
aF144.03693931398416
aa(lp337
F124.01055408970971
aF145.9894459102903
aa(lp338
F122.05804749340365
aF147.94195250659635
aa(lp339
F120.10554089709758
aF149.89445910290243
aa(lp340
F120.0
aF152.7704485488127
aa(lp341
F120.0
aF155.69920844327183
aa(lp342
F120.0
aF158.62796833773092
aa(lp343
F120.0
aF161.55672823219
aa(lp344
F120.0
aF164.4854881266491
aa(lp345
F120.0
aF167.4142480211082
aa(lp346
F120.0
aF170.34300791556728
aa(lp347
F120.0
aF173.2717678100264
aa(lp348
F120.0
aF176.2005277044855
aa(lp349
F120.0
aF179.1292875989446
aa(lp350
F120.68601583113457
aF181.37203166226914
aa(lp351
F121.6622691292876
aF183.3245382585752
aa(lp352
F122.63852242744063
aF185.27704485488127
aa(lp353
F123.61477572559367
aF187.22955145118735
aa(lp354
F124.5910290237467
aF189.1820580474934
aa(lp355
F125.56728232189974
aF191.13456464379948
aa(lp356
F126.54353562005278
aF193.08707124010556
aa(lp357
F127.5197889182058
aF195.0395778364116
aa(lp358
F128.49604221635886
aF196.9920844327177
aa(lp359
F129.47229551451187
aF198.94459102902377
aa(lp360
F130.89709762532982
aF200.4485488126649
aa(lp361
F132.8496042216359
aF201.42480211081795
aa(lp362
F134.80211081794195
aF202.401055408971
aa(lp363
F136.7546174142481
aF203.37730870712406
aa(lp364
F138.70712401055408
aF204.35356200527704
aa(lp365
F140.65963060686022
aF205.3298153034301
aa(lp366
F142.6121372031662
aF206.3060686015831
aa(lp367
F144.56464379947235
aF207.28232189973616
aa(lp368
F146.51715039577834
aF208.25857519788917
aa(lp369
F148.46965699208448
aF209.23482849604224
aa(lp370
F150.6332453825857
aF210.21108179419522
aa(lp371
F153.5620052770449
aF211.1873350923483
aa(lp372
F156.4907651715039
aF212.1635883905013
aa(lp373
F159.41952506596311
aF213.13984168865437
aa(lp374
F162.34828496042212
aF214.11609498680738
aa(lp375
F165.27704485488132
aF215.09234828496045
aa(lp376
F168.20580474934053
aF216.06860158311352
aa(lp377
F171.13456464379954
aF217.04485488126653
aa(lp378
F174.06332453825877
aF218.0211081794196
aa(lp379
F176.99208443271775
aF218.99736147757258
aa(lp380
F179.92084432717698
aF219.97361477572565
aa(lp381
F181.8997361477573
aF221.8997361477573
aa(lp382
F183.85224274406343
aF223.85224274406343
aa(lp383
F185.80474934036943
aF225.80474934036943
aa(lp384
F187.75725593667553
aF227.75725593667553
aa(lp385
F189.70976253298153
aF229.70976253298153
aa(lp386
F191.66226912928767
aF231.66226912928767
aa(lp387
F193.61477572559363
aF233.61477572559363
aa(lp388
F195.56728232189977
aF235.56728232189977
aa(lp389
F197.51978891820576
aF237.51978891820576
aa(lp390
F199.47229551451187
aF239.47229551451187
aa(lp391
F201.4248021108179
aF240.71240105540895
aa(lp392
F203.37730870712403
aF241.68865435356201
aa(lp393
F205.32981530343002
aF242.664907651715
aa(lp394
F207.28232189973616
aF243.6411609498681
aa(lp395
F209.23482849604216
aF244.61741424802108
aa(lp396
F211.1873350923483
aF245.59366754617415
aa(lp397
F213.13984168865431
aF246.56992084432716
aa(lp398
F215.09234828496045
aF247.54617414248023
aa(lp399
F217.04485488126645
aF248.52242744063324
aa(lp400
F218.99736147757258
aF249.4986807387863
aa(lp401
F220.47493403693937
aF250.94986807387872
aa(lp402
F221.45118733509236
aF252.90237467018474
aa(lp403
F222.42744063324542
aF254.85488126649088
aa(lp404
F223.40369393139844
aF256.8073878627969
aa(lp405
F224.3799472295515
aF258.759894459103
aa(lp406
F225.35620052770452
aF260.71240105540903
aa(lp407
F226.33245382585758
aF262.66490765171517
aa(lp408
F227.30870712401057
aF264.61741424802113
aa(lp409
F228.28496042216364
aF266.56992084432727
aa(lp410
F229.26121372031665
aF268.5224274406333
aa(lp411
F230.23746701846972
aF270.47493403693943
aa(lp412
F231.2137203166227
aF272.4274406332454
aa(lp413
F232.18997361477577
aF274.37994722955153
aa(lp414
F233.16622691292878
aF276.33245382585756
aa(lp415
F234.14248021108182
aF278.28496042216364
aa(lp416
F235.11873350923483
aF280.23746701846966
aa(lp417
F236.0949868073879
aF282.1899736147758
aa(lp418
F237.07124010554088
aF284.14248021108176
aa(lp419
F238.04749340369395
aF286.0949868073879
aa(lp420
F239.02374670184693
aF288.04749340369386
aa(lp421
F240.0
aF290.0
aag42
ag43
ag44
ag45
ag46
ag47
ag48
ag49
ag50
ag51
ag52
ag53
ag54
ag55
ag56
ag57
ag58
ag59
ag60
ag61
ag62
ag63
ag64
ag65
ag66
ag67
ag68
ag69
ag70
ag71
ag72
ag73
ag74
ag75
ag76
ag77
ag78
ag79
ag80
ag81
ag82
ag83
ag84
ag85
ag86
ag87
ag88
ag89
ag90
ag91
ag92
ag93
ag94
ag95
ag96
ag97
ag98
ag99
ag100
ag101
ag102
ag103
ag104
ag105
ag106
ag107
ag108
ag109
ag110
ag111
ag112
ag113
ag114
ag236
ag237
ag238
ag239
ag240
ag241
ag242
ag243
ag244
ag245
ag246
ag247
ag248
ag249
ag250
ag251
ag252
ag253
ag254
ag255
ag256
ag257
ag258
ag259
ag260
ag261
ag262
ag263
ag264
ag265
ag266
ag267
ag268
ag269
ag270
ag271
ag272
ag273
ag274
ag275
ag276
ag277
ag278
ag279
ag280
ag281
ag282
ag283
ag284
ag285
ag286
ag287
ag288
ag289
ag290
ag291
ag292
ag293
ag294
ag295
ag296
ag297
ag298
ag299
ag300
ag301
ag302
ag303
ag304
ag305
ag306
ag307
ag308
ag309
ag310
ag311
ag312
ag313
ag314
ag315
ag316
ag317
ag318
ag319
ag320
ag321
ag322
ag323
ag324
ag325
ag326
ag327
ag328
ag329
ag330
ag331
ag332
ag333
ag334
ag335
ag336
ag337
ag338
ag339
ag340
ag341
ag342
ag343
ag344
ag345
ag346
ag347
ag348
ag349
ag236
ag235
ag234
ag233
ag232
ag231
ag230
ag229
ag228
ag227
ag226
ag225
ag224
ag223
ag222
ag221
ag220
ag219
ag218
ag217
ag216
ag215
ag214
ag213
ag212
ag211
ag210
ag209
ag208
ag207
ag206
ag205
ag204
ag203
ag202
ag201
ag200
ag199
ag198
ag197
ag196
ag195
ag194
ag193
ag192
ag191
ag190
ag189
ag188
ag187
ag186
ag185
ag184
ag183
ag182
ag181
ag180
ag179
ag178
ag177
ag176
ag175
ag174
ag173
ag172
ag171
ag170
ag169
ag168
ag167
ag166
ag165
ag164
ag163
ag162
ag161
ag160
ag159
ag158
ag157
ag156
ag155
ag154
ag153
ag152
ag151
ag150
ag149
ag148
ag147
ag146
ag145
ag144
ag143
ag142
ag141
ag140
ag139
ag138
ag137
ag136
ag135
ag134
ag133
ag132
ag131
ag130
ag129
ag128
ag127
ag126
ag125
ag124
ag123
ag122
ag121
ag120
ag119
ag118
ag117
ag116
ag115
ag114
asS'pin_pts'
p422
(lp423
(lp424
g2
(g16
S'<\x00\x00\x00\x00\x00\x00\x00'
p425
tp426
Rp427
ag2
(g16
S'\xb4\x00\x00\x00\x00\x00\x00\x00'
p428
tp429
Rp430
aa(lp431
g2
(g16
S'n\x00\x00\x00\x00\x00\x00\x00'
p432
tp433
Rp434
ag2
(g16
S'\x04\x01\x00\x00\x00\x00\x00\x00'
p435
tp436
Rp437
aa(lp438
g2
(g16
S'\x0e\x01\x00\x00\x00\x00\x00\x00'
p439
tp440
Rp441
ag2
(g16
S'\xfa\x00\x00\x00\x00\x00\x00\x00'
p442
tp443
Rp444
aa(lp445
g2
(g16
S'2\x00\x00\x00\x00\x00\x00\x00'
p446
tp447
Rp448
ag2
(g16
S'P\x00\x00\x00\x00\x00\x00\x00'
p449
tp450
Rp451
aa(lp452
g2
(g16
S'\x8c\x00\x00\x00\x00\x00\x00\x00'
p453
tp454
Rp455
ag2
(g16
S'\xfa\x00\x00\x00\x00\x00\x00\x00'
p456
tp457
Rp458
aa(lp459
g2
(g16
S'n\x00\x00\x00\x00\x00\x00\x00'
p460
tp461
Rp462
ag2
(g16
S'\xe6\x00\x00\x00\x00\x00\x00\x00'
p463
tp464
Rp465
aa(lp466
g2
(g16
S'Z\x00\x00\x00\x00\x00\x00\x00'
p467
tp468
Rp469
ag2
(g16
S'\x0e\x01\x00\x00\x00\x00\x00\x00'
p470
tp471
Rp472
aa(lp473
g2
(g16
S'\xaa\x00\x00\x00\x00\x00\x00\x00'
p474
tp475
Rp476
ag2
(g16
S'\x04\x01\x00\x00\x00\x00\x00\x00'
p477
tp478
Rp479
aa(lp480
g2
(g16
S'\x96\x00\x00\x00\x00\x00\x00\x00'
p481
tp482
Rp483
ag2
(g16
S'\xaa\x00\x00\x00\x00\x00\x00\x00'
p484
tp485
Rp486
aa(lp487
g2
(g16
S'<\x00\x00\x00\x00\x00\x00\x00'
p488
tp489
Rp490
ag2
(g16
S'P\x00\x00\x00\x00\x00\x00\x00'
p491
tp492
Rp493
aa(lp494
g2
(g16
S'\x04\x01\x00\x00\x00\x00\x00\x00'
p495
tp496
Rp497
ag2
(g16
S'\xdc\x00\x00\x00\x00\x00\x00\x00'
p498
tp499
Rp500
aag26
a(lp501
g2
(g16
S'd\x00\x00\x00\x00\x00\x00\x00'
p502
tp503
Rp504
ag2
(g16
S'\xe6\x00\x00\x00\x00\x00\x00\x00'
p505
tp506
Rp507
aa(lp508
g2
(g16
S'P\x00\x00\x00\x00\x00\x00\x00'
p509
tp510
Rp511
ag2
(g16
S'\xe6\x00\x00\x00\x00\x00\x00\x00'
p512
tp513
Rp514
aa(lp515
g2
(g16
S'"\x01\x00\x00\x00\x00\x00\x00'
p516
tp517
Rp518
ag2
(g16
S'F\x00\x00\x00\x00\x00\x00\x00'
p519
tp520
Rp521
aa(lp522
g2
(g16
S'<\x00\x00\x00\x00\x00\x00\x00'
p523
tp524
Rp525
ag2
(g16
S'2\x00\x00\x00\x00\x00\x00\x00'
p526
tp527
Rp528
aa(lp529
g2
(g16
S'\x82\x00\x00\x00\x00\x00\x00\x00'
p530
tp531
Rp532
ag2
(g16
S'\x04\x01\x00\x00\x00\x00\x00\x00'
p533
tp534
Rp535
aa(lp536
g2
(g16
S'\xc8\x00\x00\x00\x00\x00\x00\x00'
p537
tp538
Rp539
ag2
(g16
S'\x18\x01\x00\x00\x00\x00\x00\x00'
p540
tp541
Rp542
aa(lp543
g2
(g16
S'"\x01\x00\x00\x00\x00\x00\x00'
p544
tp545
Rp546
ag2
(g16
S'<\x00\x00\x00\x00\x00\x00\x00'
p547
tp548
Rp549
aa(lp550
g2
(g16
S'\x18\x01\x00\x00\x00\x00\x00\x00'
p551
tp552
Rp553
ag2
(g16
S'F\x00\x00\x00\x00\x00\x00\x00'
p554
tp555
Rp556
aa(lp557
g2
(g16
S'"\x01\x00\x00\x00\x00\x00\x00'
p558
tp559
Rp560
ag2
(g16
S'\x0e\x01\x00\x00\x00\x00\x00\x00'
p561
tp562
Rp563
aag13
a(lp564
g2
(g16
S'\xb4\x00\x00\x00\x00\x00\x00\x00'
p565
tp566
Rp567
ag2
(g16
S'\xf0\x00\x00\x00\x00\x00\x00\x00'
p568
tp569
Rp570
aa(lp571
g2
(g16
S'2\x00\x00\x00\x00\x00\x00\x00'
p572
tp573
Rp574
ag2
(g16
S'\xf0\x00\x00\x00\x00\x00\x00\x00'
p575
tp576
Rp577
aa(lp578
g2
(g16
S'd\x00\x00\x00\x00\x00\x00\x00'
p579
tp580
Rp581
ag2
(g16
S'"\x01\x00\x00\x00\x00\x00\x00'
p582
tp583
Rp584
aa(lp585
g2
(g16
S'2\x00\x00\x00\x00\x00\x00\x00'
p586
tp587
Rp588
ag2
(g16
S'\xb4\x00\x00\x00\x00\x00\x00\x00'
p589
tp590
Rp591
aa(lp592
g2
(g16
S'\xbe\x00\x00\x00\x00\x00\x00\x00'
p593
tp594
Rp595
ag2
(g16
S'\x18\x01\x00\x00\x00\x00\x00\x00'
p596
tp597
Rp598
aa(lp599
g2
(g16
S'x\x00\x00\x00\x00\x00\x00\x00'
p600
tp601
Rp602
ag2
(g16
S'\x04\x01\x00\x00\x00\x00\x00\x00'
p603
tp604
Rp605
aa(lp606
g2
(g16
S'\x8c\x00\x00\x00\x00\x00\x00\x00'
p607
tp608
Rp609
ag2
(g16
S'\x04\x01\x00\x00\x00\x00\x00\x00'
p610
tp611
Rp612
aa(lp613
g2
(g16
S'\xfa\x00\x00\x00\x00\x00\x00\x00'
p614
tp615
Rp616
ag2
(g16
S'\xf0\x00\x00\x00\x00\x00\x00\x00'
p617
tp618
Rp619
aasS'trajectory'
p620
(lp621
(lp622
g42
ag43
ag44
ag45
ag46
ag47
ag48
ag49
ag50
ag51
ag52
ag53
ag54
ag55
ag56
ag57
ag58
ag59
ag60
ag61
ag62
ag63
ag64
ag65
ag66
ag67
ag68
ag69
ag70
ag71
ag72
ag73
ag74
ag75
ag76
ag77
ag78
ag79
ag80
ag81
ag82
ag83
ag84
ag85
ag86
ag87
ag88
ag89
ag90
ag91
ag92
ag93
ag94
ag95
ag96
ag97
ag98
ag99
ag100
ag101
ag102
ag103
ag104
ag105
ag106
ag107
ag108
ag109
ag110
ag111
ag112
ag113
ag114
ag115
ag116
ag117
ag118
ag119
ag120
ag121
ag122
ag123
ag124
ag125
ag126
ag127
ag128
ag129
ag130
ag131
ag132
ag133
ag134
ag135
ag136
ag137
ag138
ag139
ag140
ag141
ag142
ag143
ag144
ag145
ag146
ag147
ag148
ag149
ag150
ag151
ag152
ag153
ag154
ag155
ag156
ag157
ag158
ag159
ag160
ag161
ag162
ag163
ag164
ag165
ag166
ag167
ag168
ag169
ag170
ag171
ag172
ag173
ag174
ag175
ag176
ag177
ag178
ag179
ag180
ag181
ag182
ag183
ag184
ag185
ag186
ag187
ag188
ag189
ag190
ag191
ag192
ag193
ag194
ag195
ag196
ag197
ag198
ag199
ag200
ag201
ag202
ag203
ag204
ag205
ag206
ag207
ag208
ag209
ag210
ag211
ag212
ag213
ag214
ag215
ag216
ag217
ag218
ag219
ag220
ag221
ag222
ag223
ag224
ag225
ag226
ag227
ag228
ag229
ag230
ag231
ag232
ag233
ag234
ag235
ag236
ag237
ag238
ag239
ag240
ag241
ag242
ag243
ag244
ag245
ag246
ag247
ag248
ag249
ag250
ag251
ag252
ag253
ag254
ag255
ag256
ag257
ag258
ag259
ag260
ag261
ag262
ag263
ag264
ag265
ag266
ag267
ag268
ag269
ag270
ag271
ag272
ag273
ag274
ag275
ag276
ag277
ag278
ag279
ag280
ag281
ag282
ag283
ag284
ag285
ag286
ag287
ag288
ag289
ag290
ag291
ag292
ag293
ag294
ag295
ag296
ag297
ag298
ag299
ag300
ag301
ag302
ag303
ag304
ag305
ag306
ag307
ag308
ag309
ag310
ag311
ag312
ag313
ag314
ag315
ag316
ag317
ag318
ag319
ag320
ag321
ag322
ag323
ag324
ag325
ag326
ag327
ag328
ag329
ag330
ag331
ag332
ag333
ag334
ag335
ag336
ag337
ag338
ag339
ag340
ag341
ag342
ag343
ag344
ag345
ag346
ag347
ag348
ag349
ag350
ag351
ag352
ag353
ag354
ag355
ag356
ag357
ag358
ag359
ag360
ag361
ag362
ag363
ag364
ag365
ag366
ag367
ag368
ag369
ag370
ag371
ag372
ag373
ag374
ag375
ag376
ag377
ag378
ag379
ag380
ag381
ag382
ag383
ag384
ag385
ag386
ag387
ag388
ag389
ag390
ag391
ag392
ag393
ag394
ag395
ag396
ag397
ag398
ag399
ag400
ag401
ag402
ag403
ag404
ag405
ag406
ag407
ag408
ag409
ag410
ag411
ag412
ag413
ag414
ag415
ag416
ag417
ag418
ag419
ag420
ag421
ag42
ag43
ag44
ag45
ag46
ag47
ag48
ag49
ag50
ag51
ag52
ag53
ag54
ag55
ag56
ag57
ag58
ag59
ag60
ag61
ag62
ag63
ag64
ag65
ag66
ag67
ag68
ag69
ag70
ag71
ag72
ag73
ag74
ag75
ag76
ag77
ag78
ag79
ag80
ag81
ag82
ag83
ag84
ag85
ag86
ag87
ag88
ag89
ag90
ag91
ag92
ag93
ag94
ag95
ag96
ag97
ag98
ag99
ag100
ag101
ag102
ag103
ag104
ag105
ag106
ag107
ag108
ag109
ag110
ag111
ag112
ag113
ag114
aa(lp623
a(lp624
g236
ag237
ag238
ag239
ag240
ag241
ag242
ag243
ag244
ag245
ag246
ag247
ag248
ag249
ag250
ag251
ag252
ag253
ag254
ag255
ag256
ag257
ag258
ag259
ag260
ag261
ag262
ag263
ag264
ag265
ag266
ag267
ag268
ag269
ag270
ag271
ag272
ag273
ag274
ag275
ag276
ag277
ag278
ag279
ag280
ag281
ag282
ag283
ag284
ag285
ag286
ag287
ag288
ag289
ag290
ag291
ag292
ag293
ag294
ag295
ag296
ag297
ag298
ag299
ag300
ag301
ag302
ag303
ag304
ag305
ag306
ag307
ag308
ag309
ag310
ag311
ag312
ag313
ag314
ag315
ag316
ag317
ag318
ag319
ag320
ag321
ag322
ag323
ag324
ag325
ag326
ag327
ag328
ag329
ag330
ag331
ag332
ag333
ag334
ag335
ag336
ag337
ag338
ag339
ag340
ag341
ag342
ag343
ag344
ag345
ag346
ag347
ag348
ag349
aa(lp625
g236
ag235
ag234
ag233
ag232
ag231
ag230
ag229
ag228
ag227
ag226
ag225
ag224
ag223
ag222
ag221
ag220
ag219
ag218
ag217
ag216
ag215
ag214
ag213
ag212
ag211
ag210
ag209
ag208
ag207
ag206
ag205
ag204
ag203
ag202
ag201
ag200
ag199
ag198
ag197
ag196
ag195
ag194
ag193
ag192
ag191
ag190
ag189
ag188
ag187
ag186
ag185
ag184
ag183
ag182
ag181
ag180
ag179
ag178
ag177
ag176
ag175
ag174
ag173
ag172
ag171
ag170
ag169
ag168
ag167
ag166
ag165
ag164
ag163
ag162
ag161
ag160
ag159
ag158
ag157
ag156
ag155
ag154
ag153
ag152
ag151
ag150
ag149
ag148
ag147
ag146
ag145
ag144
ag143
ag142
ag141
ag140
ag139
ag138
ag137
ag136
ag135
ag134
ag133
ag132
ag131
ag130
ag129
ag128
ag127
ag126
ag125
ag124
ag123
ag122
ag121
ag120
ag119
ag118
ag117
ag116
ag115
ag114
aasS'pin_scores'
p626
(lp627
g2
(g6
S'\x00\x00\x00\x00\x00\xc0]\xc0'
p628
tp629
Rp630
ag2
(g6
S'\x00\x00\x00\x00\x00\x80_\xc0'
p631
tp632
Rp633
ag2
(g6
S'\x00\x00\x00\x00\x00\x80X\xc0'
p634
tp635
Rp636
ag2
(g6
S'\x00\x00\x00\x00\x00@\\\xc0'
p637
tp638
Rp639
ag2
(g6
S'\x00\x00\x00\x00\x00\x00]\xc0'
p640
tp641
Rp642
ag2
(g6
S'\x00\x00\x00\x00\x00@]\xc0'
p643
tp644
Rp645
ag2
(g6
S'\x00\x00\x00\x00\x00\xc0_\xc0'
p646
tp647
Rp648
ag2
(g6
S'\x00\x00\x00\x00\x00@\\\xc0'
p649
tp650
Rp651
ag2
(g6
S'\x00\x00\x00\x00\x00\xc0Z\xc0'
p652
tp653
Rp654
ag2
(g6
S'\x00\x00\x00\x00\x00\x00]\xc0'
p655
tp656
Rp657
ag2
(g6
S'\x00\x00\x00\x00\x00\x80Y\xc0'
p658
tp659
Rp660
ag2
(g6
S'\x00\x00\x00\x00\x00\xc0^\xc0'
p661
tp662
Rp663
ag2
(g6
S'\x00\x00\x00\x00\x00\xc0\\\xc0'
p664
tp665
Rp666
ag2
(g6
S'\x00\x00\x00\x00\x00@]\xc0'
p667
tp668
Rp669
ag2
(g6
S'\x00\x00\x00\x00\x00@[\xc0'
p670
tp671
Rp672
ag2
(g6
S'\x00\x00\x00\x00\x00\x00[\xc0'
p673
tp674
Rp675
ag2
(g6
S'\x00\x00\x00\x00\x00\x80_\xc0'
p676
tp677
Rp678
ag2
(g6
S'\x00\x00\x00\x00\x00\x80[\xc0'
p679
tp680
Rp681
ag2
(g6
S'\x00\x00\x00\x00\x00@`\xc0'
p682
tp683
Rp684
ag2
(g6
S'\x00\x00\x00\x00\x00\x80`\xc0'
p685
tp686
Rp687
ag2
(g6
S'\x00\x00\x00\x00\x00\x00W\xc0'
p688
tp689
Rp690
ag2
(g6
S'\x00\x00\x00\x00\x00@T\xc0'
p691
tp692
Rp693
ag2
(g6
S'\x00\x00\x00\x00\x00\xc0Z\xc0'
p694
tp695
Rp696
ag2
(g6
S'\x00\x00\x00\x00\x00\xa0`\xc0'
p697
tp698
Rp699
ag2
(g6
S'\x00\x00\x00\x00\x00\x00_\xc0'
p700
tp701
Rp702
ag2
(g6
S'\x00\x00\x00\x00\x00\xc0]\xc0'
p703
tp704
Rp705
ag2
(g6
S'\x00\x00\x00\x00\x00@[\xc0'
p706
tp707
Rp708
ag2
(g6
S'\x00\x00\x00\x00\x00\x00_\xc0'
p709
tp710
Rp711
ag2
(g6
S'\x00\x00\x00\x00\x00\xc0]\xc0'
p712
tp713
Rp714
ag2
(g6
S'\x00\x00\x00\x00\x00\x00Z\xc0'
p715
tp716
Rp717
asS'best_score'
p718
g693
s.