(dp0
S'worst_pin_pt'
p1
(lp2
cnumpy.core.multiarray
scalar
p3
(cnumpy
dtype
p4
(S'i8'
p5
I0
I1
tp6
Rp7
(I3
S'<'
p8
NNNI-1
I-1
I0
tp9
bS'2\x00\x00\x00\x00\x00\x00\x00'
p10
tp11
Rp12
ag3
(g7
S'2\x00\x00\x00\x00\x00\x00\x00'
p13
tp14
Rp15
asS'pin_scores'
p16
(lp17
I59
aI61
aI58
aI58
aI58
aI58
aI61
aI61
asS'best_score'
p18
I60
sS'init_score'
p19
I0
sS'worst_score'
p20
I40
sS'totalpts'
p21
I132
sS'pin_pts'
p22
(lp23
g2
a(lp24
g3
(g7
S'2\x00\x00\x00\x00\x00\x00\x00'
p25
tp26
Rp27
ag3
(g7
S'\xfa\x00\x00\x00\x00\x00\x00\x00'
p28
tp29
Rp30
aa(lp31
g3
(g7
S'Z\x00\x00\x00\x00\x00\x00\x00'
p32
tp33
Rp34
ag3
(g7
S'<\x00\x00\x00\x00\x00\x00\x00'
p35
tp36
Rp37
aa(lp38
g3
(g7
S'\x8c\x00\x00\x00\x00\x00\x00\x00'
p39
tp40
Rp41
ag3
(g7
S'<\x00\x00\x00\x00\x00\x00\x00'
p42
tp43
Rp44
aa(lp45
g3
(g7
S'\xaa\x00\x00\x00\x00\x00\x00\x00'
p46
tp47
Rp48
ag3
(g7
S'<\x00\x00\x00\x00\x00\x00\x00'
p49
tp50
Rp51
aa(lp52
g3
(g7
S'\xc8\x00\x00\x00\x00\x00\x00\x00'
p53
tp54
Rp55
ag3
(g7
S'F\x00\x00\x00\x00\x00\x00\x00'
p56
tp57
Rp58
aa(lp59
g3
(g7
S'\xfa\x00\x00\x00\x00\x00\x00\x00'
p60
tp61
Rp62
ag3
(g7
S'F\x00\x00\x00\x00\x00\x00\x00'
p63
tp64
Rp65
aa(lp66
g3
(g7
S'"\x01\x00\x00\x00\x00\x00\x00'
p67
tp68
Rp69
ag3
(g7
S'2\x00\x00\x00\x00\x00\x00\x00'
p70
tp71
Rp72
aasS'trajectory'
p73
(lp74
(lp75
(lp76
F469.8119122257053
aF286.9122257053292
aa(lp77
F467.86833855799375
aF280.83855799373043
aa(lp78
F465.9247648902821
aF274.76489028213166
aa(lp79
F463.98119122257054
aF268.6912225705329
aa(lp80
F462.03761755485897
aF262.6175548589342
aa(lp81
F460.09404388714734
aF256.54388714733545
aa(lp82
F458.15047021943576
aF250.47021943573668
aa(lp83
F456.2068965517242
aF244.39655172413802
aa(lp84
F454.26332288401255
aF238.32288401253925
aa(lp85
F452.319749216301
aF232.24921630094047
aa(lp86
F450.3761755485894
aF226.17554858934182
aa(lp87
F448.43260188087777
aF223.0407523510972
aa(lp88
F446.48902821316614
aF220.61128526645768
aa(lp89
F444.54545454545456
aF218.1818181818182
aa(lp90
F442.601880877743
aF215.75235109717872
aa(lp91
F440.65830721003135
aF213.3228840125392
aa(lp92
F438.7147335423197
aF210.8934169278997
aa(lp93
F436.77115987460814
aF208.46394984326022
aa(lp94
F434.82758620689657
aF206.0344827586207
aa(lp95
F432.88401253918494
aF203.6050156739812
aa(lp96
F430.94043887147336
aF201.17554858934173
aa(lp97
F427.9937304075235
aF198.1191222570533
aa(lp98
F424.1065830721003
aF194.47492163009403
aa(lp99
F420.2194357366771
aF190.83072100313476
aa(lp100
F416.33228840125395
aF187.18652037617557
aa(lp101
F412.44514106583074
aF183.5423197492163
aa(lp102
F408.5579937304075
aF179.89811912225701
aa(lp103
F404.6708463949843
aF176.25391849529782
aa(lp104
F400.7836990595611
aF172.60971786833855
aa(lp105
F396.8965517241379
aF168.96551724137927
aa(lp106
F393.00940438871464
aF165.32131661442
aa(lp107
F388.6833855799373
aF161.9514106583072
aa(lp108
F382.85266457680245
aF159.5219435736677
aa(lp109
F377.0219435736676
aF157.09247648902817
aa(lp110
F371.19122257053294
aF154.66300940438873
aa(lp111
F365.3605015673981
aF152.2335423197492
aa(lp112
F359.52978056426326
aF149.8040752351097
aa(lp113
F353.6990595611286
aF147.37460815047024
aa(lp114
F347.86833855799375
aF144.94514106583074
aa(lp115
F342.0376175548589
aF142.5156739811912
aa(lp116
F336.20689655172407
aF140.08620689655172
aa(lp117
F330.3761755485894
aF137.65673981191225
aa(lp118
F324.54545454545456
aF136.36363636363637
aa(lp119
F318.7147335423197
aF135.14890282131663
aa(lp120
F312.884012539185
aF133.93416927899688
aa(lp121
F307.0532915360502
aF132.71943573667713
aa(lp122
F301.22257053291537
aF131.50470219435738
aa(lp123
F295.39184952978064
aF130.28996865203763
aa(lp124
F289.5611285266458
aF129.07523510971788
aa(lp125
F283.730407523511
aF127.86050156739813
aa(lp126
F277.8996865203762
aF126.64576802507837
aa(lp127
F272.06896551724145
aF125.43103448275863
aa(lp128
F266.23824451410667
aF125.0
aa(lp129
F260.4075235109718
aF125.0
aa(lp130
F254.57680250783707
aF125.0
aa(lp131
F248.74608150470226
aF125.0
aa(lp132
F242.91536050156742
aF125.0
aa(lp133
F237.0846394984327
aF125.0
aa(lp134
F231.25391849529785
aF125.0
aa(lp135
F225.423197492163
aF125.0
aa(lp136
F219.5924764890282
aF125.0
aa(lp137
F213.76175548589336
aF125.0
aa(lp138
F208.62068965517236
aF125.86206896551728
aa(lp139
F204.73354231974926
aF128.2915360501567
aa(lp140
F200.84639498432605
aF130.7210031347962
aa(lp141
F196.95924764890282
aF133.15047021943573
aa(lp142
F193.0721003134796
aF135.57993730407526
aa(lp143
F189.18495297805637
aF138.00940438871476
aa(lp144
F185.29780564263316
aF140.43887147335428
aa(lp145
F181.41065830721007
aF142.8683385579937
aa(lp146
F177.52351097178686
aF145.29780564263322
aa(lp147
F173.63636363636363
aF147.72727272727272
aa(lp148
F170.0626959247649
aF150.23510971786837
aaa(lp149
g76
a(lp150
F469.12225705329155
aF292.98589341692787
aa(lp151
F468.15047021943576
aF299.05956112852664
aa(lp152
F467.1786833855799
aF305.1332288401254
aa(lp153
F466.2068965517241
aF311.20689655172407
aa(lp154
F465.23510971786834
aF317.28056426332284
aa(lp155
F464.26332288401255
aF323.3542319749216
aa(lp156
F463.29153605015676
aF329.4278996865203
aa(lp157
F462.319749216301
aF335.50156739811905
aa(lp158
F461.34796238244513
aF341.5752351097178
aa(lp159
F460.37617554858934
aF347.6489028213166
aa(lp160
F460.0
aF352.2335423197492
aa(lp161
F460.0
aF355.87774294670845
aa(lp162
F460.0
aF359.5219435736677
aa(lp163
F460.0
aF363.1661442006269
aa(lp164
F460.0
aF366.81034482758616
aa(lp165
F460.0
aF370.45454545454544
aa(lp166
F460.0
aF374.0987460815047
aa(lp167
F460.0
aF377.74294670846393
aa(lp168
F460.0
aF381.3871473354232
aa(lp169
F460.0
aF385.0313479623825
aa(lp170
F459.37304075235113
aF388.6755485893417
aa(lp171
F457.4294670846395
aF392.3197492163009
aa(lp172
F455.48589341692787
aF395.9639498432602
aa(lp173
F453.5423197492163
aF399.60815047021947
aa(lp174
F451.5987460815047
aF403.2523510971787
aa(lp175
F449.6551724137931
aF406.89655172413796
aa(lp176
F447.7115987460815
aF410.5407523510972
aa(lp177
F445.7680250783699
aF414.18495297805646
aa(lp178
F443.8244514106583
aF417.8291536050157
aa(lp179
F441.8808777429467
aF421.4733542319749
aa(lp180
F439.8746081504702
aF425.0783699059561
aa(lp181
F435.98746081504703
aF427.5078369905956
aa(lp182
F432.1003134796238
aF429.93730407523515
aa(lp183
F428.2131661442006
aF432.3667711598746
aa(lp184
F424.32601880877746
aF434.7962382445141
aa(lp185
F420.4388714733542
aF437.2257053291536
aa(lp186
F416.55172413793105
aF439.6551724137931
aa(lp187
F412.66457680250784
aF442.08463949843264
aa(lp188
F408.77742946708463
aF444.5141065830721
aa(lp189
F404.8902821316615
aF446.9435736677116
aa(lp190
F401.0031347962382
aF449.37304075235113
aa(lp191
F396.3949843260188
aF450.9012539184953
aa(lp192
F391.5360501567398
aF452.11598746081506
aa(lp193
F386.6771159874608
aF453.3307210031348
aa(lp194
F381.8181818181818
aF454.54545454545456
aa(lp195
F376.9592476489028
aF455.7601880877743
aa(lp196
F372.1003134796238
aF456.97492163009406
aa(lp197
F367.2413793103448
aF458.1896551724138
aa(lp198
F362.38244514106583
aF459.40438871473356
aa(lp199
F357.52351097178683
aF460.6191222570533
aa(lp200
F352.66457680250784
aF461.83385579937305
aa(lp201
F347.80564263322884
aF463.0485893416928
aa(lp202
F342.94670846394985
aF464.26332288401255
aa(lp203
F338.08777429467085
aF465.4780564263323
aa(lp204
F333.22884012539186
aF466.69278996865205
aa(lp205
F328.36990595611286
aF467.90752351097177
aa(lp206
F323.51097178683386
aF469.12225705329155
aa(lp207
F318.65203761755487
aF470.33699059561127
aa(lp208
F313.7931034482759
aF471.55172413793105
aa(lp209
F308.9341692789968
aF472.76645768025077
aa(lp210
F304.0752351097179
aF473.98119122257054
aa(lp211
F299.2163009404389
aF474.80407523510974
aa(lp212
F294.35736677115983
aF473.58934169278996
aa(lp213
F289.4984326018809
aF472.37460815047024
aa(lp214
F284.6394984326019
aF471.15987460815046
aa(lp215
F279.7805642633229
aF469.94514106583074
aa(lp216
F274.9216300940439
aF468.73040752351096
aa(lp217
F270.06269592476485
aF467.51567398119124
aa(lp218
F265.2037617554859
aF466.30094043887146
aa(lp219
F260.3448275862069
aF465.08620689655174
aa(lp220
F255.4858934169279
aF463.87147335423197
aa(lp221
F250.6269592476489
aF462.65673981191225
aa(lp222
F246.6144200626959
aF460.38401253918494
aa(lp223
F242.72727272727275
aF457.95454545454544
aa(lp224
F238.84012539184954
aF455.52507836990594
aa(lp225
F234.95297805642633
aF453.09561128526644
aa(lp226
F231.06583072100312
aF450.66614420062695
aa(lp227
F227.17868338557992
aF448.23667711598745
aa(lp228
F223.29153605015674
aF445.80721003134795
aa(lp229
F219.40438871473356
aF443.37774294670845
aa(lp230
F215.51724137931035
aF440.94827586206895
aa(lp231
F211.63009404388714
aF438.51880877742946
aa(lp232
F208.30721003134795
aF435.38401253918494
aa(lp233
F205.39184952978056
aF431.7398119122257
aa(lp234
F202.47648902821317
aF428.09561128526644
aa(lp235
F199.56112852664577
aF424.4514106583072
aa(lp236
F196.64576802507838
aF420.80721003134795
aa(lp237
F193.73040752351096
aF417.16300940438873
aa(lp238
F190.81504702194357
aF413.51880877742946
aa(lp239
F187.89968652037618
aF409.87460815047024
aa(lp240
F184.9843260188088
aF406.23040752351096
aa(lp241
F182.06896551724137
aF402.58620689655174
aa(lp242
F179.717868338558
aF399.6473354231975
aa(lp243
F178.7460815047022
aF398.43260188087777
aa(lp244
F177.7742946708464
aF397.217868338558
aa(lp245
F176.8025078369906
aF396.00313479623827
aa(lp246
F175.83072100313478
aF394.7884012539185
aa(lp247
F174.858934169279
aF393.5736677115988
aa(lp248
F173.8871473354232
aF392.358934169279
aa(lp249
F172.9153605015674
aF391.1442006269593
aa(lp250
F171.9435736677116
aF389.9294670846395
aa(lp251
F170.9717868338558
aF388.7147335423198
aa(lp252
F170.0
aF387.5
aa(lp253
F170.0
aF387.5
aa(lp254
F170.97178683385582
aF385.0705329153605
aa(lp255
F171.9435736677116
aF382.64106583072095
aa(lp256
F172.91536050156742
aF380.21159874608145
aa(lp257
F173.8871473354232
aF377.78213166144195
aa(lp258
F174.85893416927902
aF375.35266457680245
aa(lp259
F175.83072100313478
aF372.923197492163
aa(lp260
F176.8025078369906
aF370.4937304075235
aa(lp261
F177.77429467084642
aF368.06426332288396
aa(lp262
F178.7460815047022
aF365.63479623824446
aa(lp263
F179.71786833855802
aF363.20532915360496
aa(lp264
F184.13793103448293
aF361.63793103448273
aa(lp265
F189.96865203761774
aF360.42319749216296
aa(lp266
F195.79937304075236
aF359.20846394984324
aa(lp267
F201.63009404388717
aF357.9937304075235
aa(lp268
F207.46081504702198
aF356.77899686520374
aa(lp269
F213.2915360501568
aF355.564263322884
aa(lp270
F219.1222570532916
aF354.34952978056424
aa(lp271
F224.95297805642642
aF353.1347962382445
aa(lp272
F230.78369905956123
aF351.92006269592474
aa(lp273
F236.6144200626958
aF350.705329153605
aa(lp274
F242.85266457680243
aF350.0
aa(lp275
F249.65517241379305
aF350.0
aa(lp276
F256.4576802507837
aF350.0
aa(lp277
F263.26018808777434
aF350.0
aa(lp278
F270.06269592476497
aF350.0
aa(lp279
F276.86520376175537
aF350.0
aa(lp280
F283.667711598746
aF350.0
aa(lp281
F290.4702194357366
aF350.0
aa(lp282
F297.27272727272725
aF350.0
aa(lp283
F304.07523510971794
aF350.0
aa(lp284
F310.75235109717875
aF349.6865203761755
aa(lp285
F316.5830721003136
aF347.257053291536
aa(lp286
F322.4137931034482
aF344.82758620689657
aa(lp287
F328.24451410658304
aF342.39811912225707
aa(lp288
F334.0752351097179
aF339.9686520376176
aa(lp289
F339.9059561128527
aF337.539184952978
aa(lp290
F345.73667711598756
aF335.1097178683385
aa(lp291
F351.56739811912234
aF332.680250783699
aa(lp292
F357.3981191222572
aF330.2507836990595
aa(lp293
F363.22884012539186
aF327.8213166144201
aa(lp294
F369.05956112852664
aF325.3918495297806
aa(lp295
F370.8150470219436
aF322.96238244514103
aa(lp296
F371.7868338557994
aF320.53291536050153
aa(lp297
F372.7586206896552
aF318.10344827586204
aa(lp298
F373.73040752351096
aF315.67398119122254
aa(lp299
F374.7021943573668
aF313.24451410658304
aa(lp300
F375.67398119122254
aF310.8150470219436
aa(lp301
F376.6457680250784
aF308.3855799373041
aa(lp302
F377.61755485893417
aF305.9561128526646
aa(lp303
F378.58934169278996
aF303.5266457680251
aa(lp304
F379.56112852664575
aF301.0971786833856
aa(lp305
F380.0
aF298.6677115987461
aa(lp306
F380.0
aF296.23824451410667
aa(lp307
F380.0
aF293.80877742946717
aa(lp308
F380.0
aF291.3793103448276
aa(lp309
F380.0
aF288.9498432601881
aa(lp310
F380.0
aF286.5203761755486
aa(lp311
F380.0
aF284.09090909090907
aa(lp312
F380.0
aF281.66144200626957
aa(lp313
F380.0
aF279.2319749216301
aa(lp314
F380.0
aF276.8025078369906
aa(lp315
F379.7492163009405
aF274.37304075235113
aa(lp316
F378.77742946708463
aF271.94357366771163
aa(lp317
F377.80564263322884
aF269.5141065830721
aa(lp318
F376.83385579937305
aF267.0846394984326
aa(lp319
F375.8620689655172
aF264.6551724137931
aa(lp320
F374.8902821316615
aF262.22570532915364
aa(lp321
F373.91849529780563
aF259.79623824451414
aa(lp322
F372.94670846394985
aF257.3667711598746
aa(lp323
F371.97492163009406
aF254.9373040752351
aa(lp324
F371.0031347962382
aF252.5078369905956
aa(lp325
F370.0313479623824
aF250.07836990595607
aa(lp326
F367.17868338557986
aF247.64890282131657
aa(lp327
F364.26332288401255
aF245.21943573667713
aa(lp328
F361.34796238244513
aF242.78996865203763
aa(lp329
F358.4326018808777
aF240.3605015673981
aa(lp330
F355.5172413793103
aF237.9310344827586
aa(lp331
F352.60188087774293
aF235.50156739811908
aa(lp332
F349.6865203761755
aF233.07210031347958
aa(lp333
F346.77115987460814
aF230.64263322884014
aa(lp334
F343.8557993730408
aF228.21316614420064
aa(lp335
F340.94043887147336
aF225.78369905956112
aa(lp336
F337.3667711598746
aF224.1771159874608
aa(lp337
F333.4796238244513
aF222.96238244514103
aa(lp338
F329.5924764890281
aF221.74764890282128
aa(lp339
F325.7053291536049
aF220.53291536050153
aa(lp340
F321.8181818181818
aF219.3181818181818
aa(lp341
F317.9310344827586
aF218.10344827586206
aa(lp342
F314.0438871473354
aF216.88871473354232
aa(lp343
F310.15673981191213
aF215.67398119122254
aa(lp344
F306.2695924764889
aF214.4592476489028
aa(lp345
F302.3824451410657
aF213.24451410658304
aa(lp346
F298.87147335423185
aF212.0297805642633
aa(lp347
F295.95611285266455
aF210.81504702194357
aa(lp348
F293.0407523510972
aF209.60031347962382
aa(lp349
F290.12539184952976
aF208.38557993730407
aa(lp350
F287.21003134796234
aF207.17084639498432
aa(lp351
F284.2946708463949
aF205.95611285266457
aa(lp352
F281.37931034482756
aF204.7413793103448
aa(lp353
F278.46394984326014
aF203.52664576802505
aa(lp354
F275.54858934169283
aF202.31191222570536
aa(lp355
F272.6332288401254
aF201.0971786833856
aa(lp356
F269.717868338558
aF200.0
aa(lp357
F266.8025078369906
aF200.0
aa(lp358
F263.8871473354232
aF200.0
aa(lp359
F260.9717868338558
aF200.0
aa(lp360
F258.0564263322885
aF200.0
aa(lp361
F255.14106583072103
aF200.0
aa(lp362
F252.22570532915364
aF200.0
aa(lp363
F249.31034482758622
aF200.0
aa(lp364
F246.3949843260188
aF200.0
aa(lp365
F243.47962382445138
aF200.0
aa(lp366
F240.56426332288396
aF200.0
aa(lp367
F237.64890282131665
aF200.0
aa(lp368
F234.73354231974923
aF200.0
aa(lp369
F231.8181818181818
aF200.0
aa(lp370
F228.9028213166144
aF200.0
aa(lp371
F225.98746081504697
aF200.0
aa(lp372
F223.07210031347958
aF200.0
aa(lp373
F220.15673981191216
aF200.0
aa(lp374
F217.24137931034485
aF200.0
aa(lp375
F214.32601880877743
aF200.0
aa(lp376
F211.41065830721
aF200.0
aa(lp377
F208.4952978056426
aF199.37304075235107
aa(lp378
F205.5799373040752
aF198.15830721003132
aa(lp379
F202.66457680250778
aF196.94357366771158
aa(lp380
F199.74921630094047
aF195.72884012539186
aa(lp381
F196.83385579937308
aF194.5141065830721
aa(lp382
F193.91849529780566
aF193.29937304075236
aa(lp383
F191.00313479623827
aF192.0846394984326
aa(lp384
F188.08777429467085
aF190.86990595611286
aa(lp385
F185.17241379310346
aF189.6551724137931
aa(lp386
F182.25705329153604
aF188.44043887147336
aa(lp387
F179.7805642633229
aF186.67711598746092
aa(lp388
F178.8087774294671
aF183.03291536050165
aa(lp389
F177.8369905956113
aF179.3887147335424
aa(lp390
F176.8652037617555
aF175.74451410658313
aa(lp391
F175.8934169278997
aF172.10031347962385
aa(lp392
F174.92163009404388
aF168.45611285266457
aa(lp393
F173.9498432601881
aF164.81191222570533
aa(lp394
F172.9780564263323
aF161.16771159874617
aa(lp395
F172.0062695924765
aF157.5235109717869
aa(lp396
F171.0344827586207
aF153.87931034482764
aag148
ag147
ag146
ag145
ag144
ag143
ag142
ag141
ag140
ag139
ag138
ag137
ag136
ag135
ag134
ag133
ag132
ag131
ag130
ag129
ag128
ag127
ag126
ag125
ag124
ag123
ag122
ag121
ag120
ag119
ag118
ag117
ag116
ag115
ag114
ag113
ag112
ag111
ag110
ag109
ag108
ag107
ag106
ag105
ag104
ag103
ag102
ag101
ag100
ag99
ag98
ag97
ag96
ag95
ag94
ag93
ag92
ag91
ag90
ag89
ag88
ag87
ag86
ag85
ag84
ag83
ag82
ag81
ag80
ag79
ag78
ag77
ag76
ag150
ag151
ag152
ag153
ag154
ag155
ag156
ag157
ag158
ag159
ag160
ag161
ag162
ag163
ag164
ag165
ag166
ag167
ag168
ag169
ag170
ag171
ag172
ag173
ag174
ag175
ag176
ag177
ag178
ag179
ag180
ag181
ag182
ag183
ag184
ag185
ag186
ag187
ag188
ag189
ag190
ag191
ag192
ag193
ag194
ag195
ag196
ag197
ag198
ag199
ag200
ag201
ag202
ag203
ag204
ag205
ag206
ag207
ag208
ag209
ag210
ag211
ag212
ag213
ag214
ag215
ag216
ag217
ag218
ag219
ag220
ag221
ag222
ag223
ag224
ag225
ag226
ag227
ag228
ag229
ag230
ag231
ag232
ag233
ag234
ag235
ag236
ag237
ag238
ag239
ag240
ag241
ag242
ag243
ag244
ag245
ag246
ag247
ag248
ag249
ag250
ag251
ag252
aa(lp397
a(lp398
g305
ag306
ag307
ag308
ag309
ag310
ag311
ag312
ag313
ag314
ag315
ag316
ag317
ag318
ag319
ag320
ag321
ag322
ag323
ag324
ag325
ag326
ag327
ag328
ag329
ag330
ag331
ag332
ag333
ag334
ag335
ag336
ag337
ag338
ag339
ag340
ag341
ag342
ag343
ag344
ag345
ag346
ag347
ag348
ag349
ag350
ag351
ag352
ag353
ag354
ag355
ag356
ag357
ag358
ag359
ag360
ag361
ag362
ag363
ag364
ag365
ag366
ag367
ag368
ag369
ag370
ag371
ag372
ag373
ag374
ag375
ag376
ag377
ag378
ag379
ag380
ag381
ag382
ag383
ag384
ag385
ag386
ag387
ag388
ag389
ag390
ag391
ag392
ag393
ag394
ag395
ag396
ag148
aasS'best_pin_pt'
p399
g24
sS'old_trajectory'
p400
(lp401
g76
ag77
ag78
ag79
ag80
ag81
ag82
ag83
ag84
ag85
ag86
ag87
ag88
ag89
ag90
ag91
ag92
ag93
ag94
ag95
ag96
ag97
ag98
ag99
ag100
ag101
ag102
ag103
ag104
ag105
ag106
ag107
ag108
ag109
ag110
ag111
ag112
ag113
ag114
ag115
ag116
ag117
ag118
ag119
ag120
ag121
ag122
ag123
ag124
ag125
ag126
ag127
ag128
ag129
ag130
ag131
ag132
ag133
ag134
ag135
ag136
ag137
ag138
ag139
ag140
ag141
ag142
ag143
ag144
ag145
ag146
ag147
ag148
ag76
ag150
ag151
ag152
ag153
ag154
ag155
ag156
ag157
ag158
ag159
ag160
ag161
ag162
ag163
ag164
ag165
ag166
ag167
ag168
ag169
ag170
ag171
ag172
ag173
ag174
ag175
ag176
ag177
ag178
ag179
ag180
ag181
ag182
ag183
ag184
ag185
ag186
ag187
ag188
ag189
ag190
ag191
ag192
ag193
ag194
ag195
ag196
ag197
ag198
ag199
ag200
ag201
ag202
ag203
ag204
ag205
ag206
ag207
ag208
ag209
ag210
ag211
ag212
ag213
ag214
ag215
ag216
ag217
ag218
ag219
ag220
ag221
ag222
ag223
ag224
ag225
ag226
ag227
ag228
ag229
ag230
ag231
ag232
ag233
ag234
ag235
ag236
ag237
ag238
ag239
ag240
ag241
ag242
ag243
ag244
ag245
ag246
ag247
ag248
ag249
ag250
ag251
ag252
ag253
ag254
ag255
ag256
ag257
ag258
ag259
ag260
ag261
ag262
ag263
ag264
ag265
ag266
ag267
ag268
ag269
ag270
ag271
ag272
ag273
ag274
ag275
ag276
ag277
ag278
ag279
ag280
ag281
ag282
ag283
ag284
ag285
ag286
ag287
ag288
ag289
ag290
ag291
ag292
ag293
ag294
ag295
ag296
ag297
ag298
ag299
ag300
ag301
ag302
ag303
ag304
ag305
ag306
ag307
ag308
ag309
ag310
ag311
ag312
ag313
ag314
ag315
ag316
ag317
ag318
ag319
ag320
ag321
ag322
ag323
ag324
ag325
ag326
ag327
ag328
ag329
ag330
ag331
ag332
ag333
ag334
ag335
ag336
ag337
ag338
ag339
ag340
ag341
ag342
ag343
ag344
ag345
ag346
ag347
ag348
ag349
ag350
ag351
ag352
ag353
ag354
ag355
ag356
ag357
ag358
ag359
ag360
ag361
ag362
ag363
ag364
ag365
ag366
ag367
ag368
ag369
ag370
ag371
ag372
ag373
ag374
ag375
ag376
ag377
ag378
ag379
ag380
ag381
ag382
ag383
ag384
ag385
ag386
ag387
ag388
ag389
ag390
ag391
ag392
ag393
ag394
ag395
ag396
ag148
ag147
ag146
ag145
ag144
ag143
ag142
ag141
ag140
ag139
ag138
ag137
ag136
ag135
ag134
ag133
ag132
ag131
ag130
ag129
ag128
ag127
ag126
ag125
ag124
ag123
ag122
ag121
ag120
ag119
ag118
ag117
ag116
ag115
ag114
ag113
ag112
ag111
ag110
ag109
ag108
ag107
ag106
ag105
ag104
ag103
ag102
ag101
ag100
ag99
ag98
ag97
ag96
ag95
ag94
ag93
ag92
ag91
ag90
ag89
ag88
ag87
ag86
ag85
ag84
ag83
ag82
ag81
ag80
ag79
ag78
ag77
ag76
ag150
ag151
ag152
ag153
ag154
ag155
ag156
ag157
ag158
ag159
ag160
ag161
ag162
ag163
ag164
ag165
ag166
ag167
ag168
ag169
ag170
ag171
ag172
ag173
ag174
ag175
ag176
ag177
ag178
ag179
ag180
ag181
ag182
ag183
ag184
ag185
ag186
ag187
ag188
ag189
ag190
ag191
ag192
ag193
ag194
ag195
ag196
ag197
ag198
ag199
ag200
ag201
ag202
ag203
ag204
ag205
ag206
ag207
ag208
ag209
ag210
ag211
ag212
ag213
ag214
ag215
ag216
ag217
ag218
ag219
ag220
ag221
ag222
ag223
ag224
ag225
ag226
ag227
ag228
ag229
ag230
ag231
ag232
ag233
ag234
ag235
ag236
ag237
ag238
ag239
ag240
ag241
ag242
ag243
ag244
ag245
ag246
ag247
ag248
ag249
ag250
ag251
ag252
ag305
ag306
ag307
ag308
ag309
ag310
ag311
ag312
ag313
ag314
ag315
ag316
ag317
ag318
ag319
ag320
ag321
ag322
ag323
ag324
ag325
ag326
ag327
ag328
ag329
ag330
ag331
ag332
ag333
ag334
ag335
ag336
ag337
ag338
ag339
ag340
ag341
ag342
ag343
ag344
ag345
ag346
ag347
ag348
ag349
ag350
ag351
ag352
ag353
ag354
ag355
ag356
ag357
ag358
ag359
ag360
ag361
ag362
ag363
ag364
ag365
ag366
ag367
ag368
ag369
ag370
ag371
ag372
ag373
ag374
ag375
ag376
ag377
ag378
ag379
ag380
ag381
ag382
ag383
ag384
ag385
ag386
ag387
ag388
ag389
ag390
ag391
ag392
ag393
ag394
ag395
ag396
ag148
asS'indices_of_pts'
p402
(lp403
(lp404
I103
aI104
aI105
aI106
aI107
aI108
aI109
aI110
aI111
aI112
aI113
aI114
aI115
aI116
aI117
aI118
aI119
aI120
aI121
aI122
aI123
aI124
aI125
aI126
aI127
aI128
aI129
aI130
aI131
aI132
aI133
aI134
aI135
aI136
aI137
aI138
aI139
aI140
aI141
aI142
aI143
aI144
aI145
aI146
aI147
aI148
aI149
aI150
aI151
aI152
aI153
aI154
aI155
aI156
aI157
aI158
aI159
aI160
aI161
aI162
aI163
aI164
aI165
aI166
aI167
aI168
aI169
aI170
aI171
aI172
aI173
aI174
aI175
aa(lp405
I103
aI102
aI101
aI100
aI99
aI98
aI97
aI96
aI95
aI94
aI93
aI92
aI91
aI90
aI89
aI88
aI87
aI86
aI85
aI84
aI83
aI82
aI81
aI80
aI79
aI78
aI77
aI76
aI75
aI74
aI73
aI72
aI71
aI70
aI69
aI68
aI67
aI66
aI65
aI64
aI63
aI62
aI61
aI60
aI59
aI58
aI57
aI56
aI55
aI54
aI53
aI52
aI51
aI50
aI49
aI48
aI47
aI46
aI45
aI44
aI43
aI42
aI41
aI40
aI39
aI38
aI37
aI36
aI35
aI34
aI33
aI32
aI31
aI30
aI29
aI28
aI27
aI26
aI25
aI24
aI23
aI22
aI21
aI20
aI19
aI18
aI17
aI16
aI15
aI14
aI13
aI12
aI11
aI10
aI9
aI8
aI7
aI6
aI5
aI4
aI3
aI2
aI1
aI0
aI319
aI318
aI317
aI316
aI315
aI314
aI313
aI312
aI311
aI310
aI309
aI308
aI307
aI306
aI305
aI304
aI303
aI302
aI301
aI300
aI299
aI298
aI297
aI296
aI295
aI294
aI293
aI292
aI291
aI290
aI289
aI288
aI287
aI286
aI285
aI284
aI283
aI282
aI281
aI280
aI279
aI278
aI277
aI276
aI275
aI274
aI273
aI272
aI271
aI270
aI269
aI268
aI267
aI266
aI265
aI264
aI263
aI262
aI261
aI260
aI259
aI258
aI257
aI256
aI255
aI254
aI253
aI252
aI251
aI250
aI249
aI248
aI247
aI246
aI245
aI244
aI243
aI242
aI241
aI240
aI239
aI238
aI237
aI236
aI235
aI234
aI233
aI232
aI231
aI230
aI229
aI228
aI227
aI226
aI225
aI224
aI223
aI222
aI221
aI220
aI219
aI218
aI217
aI216
aI215
aI214
aI213
aI212
aI211
aI210
aI209
aI208
aI207
aI206
aI205
aI204
aI203
aI202
aI201
aI200
aI199
aI198
aI197
aI196
aI195
aI194
aI193
aI192
aI191
aI190
aI189
aI188
aI187
aI186
aI185
aI184
aI183
aI182
aI181
aI180
aI179
aI178
aI177
aI176
aI175
aI174
aI173
aI172
aI171
aI170
aI169
aI168
aI167
aI166
aI165
aI164
aI163
aI162
aI161
aI160
aI159
aI158
aI157
aI156
aI155
aI154
aI153
aI152
aI151
aI150
aI149
aI148
aI147
aI146
aI145
aI144
aI143
aI142
aI141
aI140
aI139
aI138
aI137
aI136
aI135
aI134
aI133
aI132
aI131
aI130
aI129
aI128
aI127
aI126
aI125
aI124
aI123
aI122
aI121
aI120
aI119
aI118
aI117
aI116
aI115
aI114
aI113
aI112
aI111
aI110
aI109
aI108
aI107
aI106
aI105
aI104
aI103
aI102
aI101
aI100
aI99
aI98
aI97
aI96
aI95
aI94
aI93
aI92
aI91
aI90
aI89
aI88
aI87
aI86
aI85
aI84
aI83
aI82
aI81
aI80
aI79
aI78
aI77
aI76
aI75
aI74
aI73
aI72
aI71
aI70
aI69
aI68
aI67
aI66
aI65
aI64
aI63
aI62
aI61
aI60
aI59
aI58
aI57
aI56
aI55
aI54
aI53
aI52
aI51
aI50
aI49
aI48
aI47
aI46
aI45
aI44
aI43
aI42
aI41
aI40
aI39
aI38
aI37
aI36
aI35
aI34
aI33
aI32
aI31
aI30
aI29
aI28
aI27
aI26
aI25
aI24
aI23
aI22
aI21
aI20
aI19
aI18
aI17
aI16
aI15
aI14
aI13
aI12
aI11
aI10
aI9
aI8
aI7
aI6
aI5
aI4
aI3
aI2
aI1
aI0
aa(lp406
a(lp407
I267
aI266
aI265
aI264
aI263
aI262
aI261
aI260
aI259
aI258
aI257
aI256
aI255
aI254
aI253
aI252
aI251
aI250
aI249
aI248
aI247
aI246
aI245
aI244
aI243
aI242
aI241
aI240
aI239
aI238
aI237
aI236
aI235
aI234
aI233
aI232
aI231
aI230
aI229
aI228
aI227
aI226
aI225
aI224
aI223
aI222
aI221
aI220
aI219
aI218
aI217
aI216
aI215
aI214
aI213
aI212
aI211
aI210
aI209
aI208
aI207
aI206
aI205
aI204
aI203
aI202
aI201
aI200
aI199
aI198
aI197
aI196
aI195
aI194
aI193
aI192
aI191
aI190
aI189
aI188
aI187
aI186
aI185
aI184
aI183
aI182
aI181
aI180
aI179
aI178
aI177
aI176
aI175
aas.