(dp0
S'worst_pin_pt'
p1
(lp2
cnumpy.core.multiarray
scalar
p3
(cnumpy
dtype
p4
(S'i8'
p5
I0
I1
tp6
Rp7
(I3
S'<'
p8
NNNI-1
I-1
I0
tp9
bS'\x0e\x01\x00\x00\x00\x00\x00\x00'
p10
tp11
Rp12
ag3
(g7
S'P\x00\x00\x00\x00\x00\x00\x00'
p13
tp14
Rp15
asS'pin_scores'
p16
(lp17
I37
aI46
aI36
aI39
aI36
aI37
aI36
aI37
aI37
aI44
aI44
aI37
aI38
aI37
aI37
aI37
aI38
aI36
aI37
aI45
aI36
aI38
aI37
aI36
aI37
aI43
aI36
aI40
aI38
aI38
asS'best_score'
p18
I46
sS'init_score'
p19
I0
sS'worst_score'
p20
I21
sS'totalpts'
p21
I62
sS'pin_pts'
p22
(lp23
g2
a(lp24
g3
(g7
S'\xfa\x00\x00\x00\x00\x00\x00\x00'
p25
tp26
Rp27
ag3
(g7
S'\x18\x01\x00\x00\x00\x00\x00\x00'
p28
tp29
Rp30
aa(lp31
g3
(g7
S'2\x00\x00\x00\x00\x00\x00\x00'
p32
tp33
Rp34
ag3
(g7
S'\x8c\x00\x00\x00\x00\x00\x00\x00'
p35
tp36
Rp37
aa(lp38
g3
(g7
S'd\x00\x00\x00\x00\x00\x00\x00'
p39
tp40
Rp41
ag3
(g7
S'\x18\x01\x00\x00\x00\x00\x00\x00'
p42
tp43
Rp44
aa(lp45
g3
(g7
S'\xfa\x00\x00\x00\x00\x00\x00\x00'
p46
tp47
Rp48
ag3
(g7
S'2\x00\x00\x00\x00\x00\x00\x00'
p49
tp50
Rp51
aa(lp52
g3
(g7
S'2\x00\x00\x00\x00\x00\x00\x00'
p53
tp54
Rp55
ag3
(g7
S'n\x00\x00\x00\x00\x00\x00\x00'
p56
tp57
Rp58
aa(lp59
g3
(g7
S'2\x00\x00\x00\x00\x00\x00\x00'
p60
tp61
Rp62
ag3
(g7
S'\xc8\x00\x00\x00\x00\x00\x00\x00'
p63
tp64
Rp65
aa(lp66
g3
(g7
S'Z\x00\x00\x00\x00\x00\x00\x00'
p67
tp68
Rp69
ag3
(g7
S'F\x00\x00\x00\x00\x00\x00\x00'
p70
tp71
Rp72
aa(lp73
g3
(g7
S'\xe6\x00\x00\x00\x00\x00\x00\x00'
p74
tp75
Rp76
ag3
(g7
S'2\x00\x00\x00\x00\x00\x00\x00'
p77
tp78
Rp79
aa(lp80
g3
(g7
S'\x0e\x01\x00\x00\x00\x00\x00\x00'
p81
tp82
Rp83
ag3
(g7
S'\x04\x01\x00\x00\x00\x00\x00\x00'
p84
tp85
Rp86
aa(lp87
g3
(g7
S'"\x01\x00\x00\x00\x00\x00\x00'
p88
tp89
Rp90
ag3
(g7
S'"\x01\x00\x00\x00\x00\x00\x00'
p91
tp92
Rp93
aa(lp94
g3
(g7
S'F\x00\x00\x00\x00\x00\x00\x00'
p95
tp96
Rp97
ag3
(g7
S'P\x00\x00\x00\x00\x00\x00\x00'
p98
tp99
Rp100
aa(lp101
g3
(g7
S'n\x00\x00\x00\x00\x00\x00\x00'
p102
tp103
Rp104
ag3
(g7
S'2\x00\x00\x00\x00\x00\x00\x00'
p105
tp106
Rp107
aa(lp108
g3
(g7
S'\xf0\x00\x00\x00\x00\x00\x00\x00'
p109
tp110
Rp111
ag3
(g7
S'F\x00\x00\x00\x00\x00\x00\x00'
p112
tp113
Rp114
aa(lp115
g3
(g7
S'<\x00\x00\x00\x00\x00\x00\x00'
p116
tp117
Rp118
ag3
(g7
S'\x0e\x01\x00\x00\x00\x00\x00\x00'
p119
tp120
Rp121
aa(lp122
g3
(g7
S'P\x00\x00\x00\x00\x00\x00\x00'
p123
tp124
Rp125
ag3
(g7
S'F\x00\x00\x00\x00\x00\x00\x00'
p126
tp127
Rp128
aa(lp129
g3
(g7
S'<\x00\x00\x00\x00\x00\x00\x00'
p130
tp131
Rp132
ag3
(g7
S'\x04\x01\x00\x00\x00\x00\x00\x00'
p133
tp134
Rp135
aa(lp136
g3
(g7
S'\xb4\x00\x00\x00\x00\x00\x00\x00'
p137
tp138
Rp139
ag3
(g7
S'F\x00\x00\x00\x00\x00\x00\x00'
p140
tp141
Rp142
aa(lp143
g3
(g7
S'Z\x00\x00\x00\x00\x00\x00\x00'
p144
tp145
Rp146
ag3
(g7
S'P\x00\x00\x00\x00\x00\x00\x00'
p147
tp148
Rp149
aa(lp150
g3
(g7
S'\x04\x01\x00\x00\x00\x00\x00\x00'
p151
tp152
Rp153
ag3
(g7
S'"\x01\x00\x00\x00\x00\x00\x00'
p154
tp155
Rp156
aa(lp157
g3
(g7
S'\xa0\x00\x00\x00\x00\x00\x00\x00'
p158
tp159
Rp160
ag3
(g7
S'P\x00\x00\x00\x00\x00\x00\x00'
p161
tp162
Rp163
aa(lp164
g3
(g7
S'"\x01\x00\x00\x00\x00\x00\x00'
p165
tp166
Rp167
ag3
(g7
S'\x96\x00\x00\x00\x00\x00\x00\x00'
p168
tp169
Rp170
aa(lp171
g3
(g7
S'2\x00\x00\x00\x00\x00\x00\x00'
p172
tp173
Rp174
ag3
(g7
S'Z\x00\x00\x00\x00\x00\x00\x00'
p175
tp176
Rp177
aa(lp178
g3
(g7
S'<\x00\x00\x00\x00\x00\x00\x00'
p179
tp180
Rp181
ag3
(g7
S'\x8c\x00\x00\x00\x00\x00\x00\x00'
p182
tp183
Rp184
aa(lp185
g3
(g7
S'\x96\x00\x00\x00\x00\x00\x00\x00'
p186
tp187
Rp188
ag3
(g7
S'F\x00\x00\x00\x00\x00\x00\x00'
p189
tp190
Rp191
aa(lp192
g3
(g7
S'"\x01\x00\x00\x00\x00\x00\x00'
p193
tp194
Rp195
ag3
(g7
S'\x0e\x01\x00\x00\x00\x00\x00\x00'
p196
tp197
Rp198
aa(lp199
g3
(g7
S'\xa0\x00\x00\x00\x00\x00\x00\x00'
p200
tp201
Rp202
ag3
(g7
S'Z\x00\x00\x00\x00\x00\x00\x00'
p203
tp204
Rp205
aa(lp206
g3
(g7
S'\xb4\x00\x00\x00\x00\x00\x00\x00'
p207
tp208
Rp209
ag3
(g7
S'"\x01\x00\x00\x00\x00\x00\x00'
p210
tp211
Rp212
aa(lp213
g3
(g7
S'\x96\x00\x00\x00\x00\x00\x00\x00'
p214
tp215
Rp216
ag3
(g7
S'Z\x00\x00\x00\x00\x00\x00\x00'
p217
tp218
Rp219
aa(lp220
g3
(g7
S'<\x00\x00\x00\x00\x00\x00\x00'
p221
tp222
Rp223
ag3
(g7
S'2\x00\x00\x00\x00\x00\x00\x00'
p224
tp225
Rp226
aasS'trajectory'
p227
(lp228
(lp229
(lp230
F469.8119122257053
aF286.9122257053292
aa(lp231
F467.86833855799375
aF280.83855799373043
aa(lp232
F465.9247648902821
aF274.76489028213166
aa(lp233
F463.98119122257054
aF268.6912225705329
aa(lp234
F462.03761755485897
aF262.6175548589342
aa(lp235
F460.09404388714734
aF256.54388714733545
aa(lp236
F458.15047021943576
aF250.47021943573668
aa(lp237
F456.2068965517242
aF244.39655172413802
aa(lp238
F454.26332288401255
aF238.32288401253925
aa(lp239
F452.319749216301
aF232.24921630094047
aa(lp240
F450.3761755485894
aF226.17554858934182
aa(lp241
F448.43260188087777
aF223.0407523510972
aa(lp242
F446.48902821316614
aF220.61128526645768
aa(lp243
F444.54545454545456
aF218.1818181818182
aa(lp244
F442.601880877743
aF215.75235109717872
aa(lp245
F440.65830721003135
aF213.3228840125392
aa(lp246
F438.7147335423197
aF210.8934169278997
aa(lp247
F436.77115987460814
aF208.46394984326022
aa(lp248
F434.82758620689657
aF206.0344827586207
aa(lp249
F432.88401253918494
aF203.6050156739812
aa(lp250
F430.94043887147336
aF201.17554858934173
aa(lp251
F427.9937304075235
aF198.1191222570533
aa(lp252
F424.1065830721003
aF194.47492163009403
aa(lp253
F420.2194357366771
aF190.83072100313476
aa(lp254
F416.33228840125395
aF187.18652037617557
aa(lp255
F412.44514106583074
aF183.5423197492163
aa(lp256
F408.5579937304075
aF179.89811912225701
aa(lp257
F404.6708463949843
aF176.25391849529782
aa(lp258
F400.7836990595611
aF172.60971786833855
aa(lp259
F396.8965517241379
aF168.96551724137927
aa(lp260
F393.00940438871464
aF165.32131661442
aa(lp261
F388.6833855799373
aF161.9514106583072
aa(lp262
F382.85266457680245
aF159.5219435736677
aa(lp263
F377.0219435736676
aF157.09247648902817
aa(lp264
F371.19122257053294
aF154.66300940438873
aa(lp265
F365.3605015673981
aF152.2335423197492
aa(lp266
F359.52978056426326
aF149.8040752351097
aa(lp267
F353.6990595611286
aF147.37460815047024
aa(lp268
F347.86833855799375
aF144.94514106583074
aa(lp269
F342.0376175548589
aF142.5156739811912
aa(lp270
F336.20689655172407
aF140.08620689655172
aa(lp271
F330.3761755485894
aF137.65673981191225
aa(lp272
F324.54545454545456
aF136.36363636363637
aa(lp273
F318.7147335423197
aF135.14890282131663
aa(lp274
F312.884012539185
aF133.93416927899688
aa(lp275
F307.0532915360502
aF132.71943573667713
aa(lp276
F301.22257053291537
aF131.50470219435738
aa(lp277
F295.39184952978064
aF130.28996865203763
aa(lp278
F289.5611285266458
aF129.07523510971788
aa(lp279
F283.730407523511
aF127.86050156739813
aa(lp280
F277.8996865203762
aF126.64576802507837
aa(lp281
F272.06896551724145
aF125.43103448275863
aa(lp282
F266.23824451410667
aF125.0
aa(lp283
F260.4075235109718
aF125.0
aa(lp284
F254.57680250783707
aF125.0
aa(lp285
F248.74608150470226
aF125.0
aa(lp286
F242.91536050156742
aF125.0
aa(lp287
F237.0846394984327
aF125.0
aa(lp288
F231.25391849529785
aF125.0
aa(lp289
F225.423197492163
aF125.0
aa(lp290
F219.5924764890282
aF125.0
aa(lp291
F213.76175548589336
aF125.0
aa(lp292
F208.62068965517236
aF125.86206896551728
aa(lp293
F204.73354231974926
aF128.2915360501567
aa(lp294
F200.84639498432605
aF130.7210031347962
aa(lp295
F196.95924764890282
aF133.15047021943573
aa(lp296
F193.0721003134796
aF135.57993730407526
aa(lp297
F189.18495297805637
aF138.00940438871476
aa(lp298
F185.29780564263316
aF140.43887147335428
aa(lp299
F181.41065830721007
aF142.8683385579937
aa(lp300
F177.52351097178686
aF145.29780564263322
aa(lp301
F173.63636363636363
aF147.72727272727272
aa(lp302
F170.0626959247649
aF150.23510971786837
aaa(lp303
g230
a(lp304
F469.12225705329155
aF292.98589341692787
aa(lp305
F468.15047021943576
aF299.05956112852664
aa(lp306
F467.1786833855799
aF305.1332288401254
aa(lp307
F466.2068965517241
aF311.20689655172407
aa(lp308
F465.23510971786834
aF317.28056426332284
aa(lp309
F464.26332288401255
aF323.3542319749216
aa(lp310
F463.29153605015676
aF329.4278996865203
aa(lp311
F462.319749216301
aF335.50156739811905
aa(lp312
F461.34796238244513
aF341.5752351097178
aa(lp313
F460.37617554858934
aF347.6489028213166
aa(lp314
F460.0
aF352.2335423197492
aa(lp315
F460.0
aF355.87774294670845
aa(lp316
F460.0
aF359.5219435736677
aa(lp317
F460.0
aF363.1661442006269
aa(lp318
F460.0
aF366.81034482758616
aa(lp319
F460.0
aF370.45454545454544
aa(lp320
F460.0
aF374.0987460815047
aa(lp321
F460.0
aF377.74294670846393
aa(lp322
F460.0
aF381.3871473354232
aa(lp323
F460.0
aF385.0313479623825
aa(lp324
F459.37304075235113
aF388.6755485893417
aa(lp325
F457.4294670846395
aF392.3197492163009
aa(lp326
F455.48589341692787
aF395.9639498432602
aa(lp327
F453.5423197492163
aF399.60815047021947
aa(lp328
F451.5987460815047
aF403.2523510971787
aa(lp329
F449.6551724137931
aF406.89655172413796
aa(lp330
F447.7115987460815
aF410.5407523510972
aa(lp331
F445.7680250783699
aF414.18495297805646
aa(lp332
F443.8244514106583
aF417.8291536050157
aa(lp333
F441.8808777429467
aF421.4733542319749
aa(lp334
F439.8746081504702
aF425.0783699059561
aa(lp335
F435.98746081504703
aF427.5078369905956
aa(lp336
F432.1003134796238
aF429.93730407523515
aa(lp337
F428.2131661442006
aF432.3667711598746
aa(lp338
F424.32601880877746
aF434.7962382445141
aa(lp339
F420.4388714733542
aF437.2257053291536
aa(lp340
F416.55172413793105
aF439.6551724137931
aa(lp341
F412.66457680250784
aF442.08463949843264
aa(lp342
F408.77742946708463
aF444.5141065830721
aa(lp343
F404.8902821316615
aF446.9435736677116
aa(lp344
F401.0031347962382
aF449.37304075235113
aa(lp345
F396.3949843260188
aF450.9012539184953
aa(lp346
F391.5360501567398
aF452.11598746081506
aa(lp347
F386.6771159874608
aF453.3307210031348
aa(lp348
F381.8181818181818
aF454.54545454545456
aa(lp349
F376.9592476489028
aF455.7601880877743
aa(lp350
F372.1003134796238
aF456.97492163009406
aa(lp351
F367.2413793103448
aF458.1896551724138
aa(lp352
F362.38244514106583
aF459.40438871473356
aa(lp353
F357.52351097178683
aF460.6191222570533
aa(lp354
F352.66457680250784
aF461.83385579937305
aa(lp355
F347.80564263322884
aF463.0485893416928
aa(lp356
F342.94670846394985
aF464.26332288401255
aa(lp357
F338.08777429467085
aF465.4780564263323
aa(lp358
F333.22884012539186
aF466.69278996865205
aa(lp359
F328.36990595611286
aF467.90752351097177
aa(lp360
F323.51097178683386
aF469.12225705329155
aa(lp361
F318.65203761755487
aF470.33699059561127
aa(lp362
F313.7931034482759
aF471.55172413793105
aa(lp363
F308.9341692789968
aF472.76645768025077
aa(lp364
F304.0752351097179
aF473.98119122257054
aa(lp365
F299.2163009404389
aF474.80407523510974
aa(lp366
F294.35736677115983
aF473.58934169278996
aa(lp367
F289.4984326018809
aF472.37460815047024
aa(lp368
F284.6394984326019
aF471.15987460815046
aa(lp369
F279.7805642633229
aF469.94514106583074
aa(lp370
F274.9216300940439
aF468.73040752351096
aa(lp371
F270.06269592476485
aF467.51567398119124
aa(lp372
F265.2037617554859
aF466.30094043887146
aa(lp373
F260.3448275862069
aF465.08620689655174
aa(lp374
F255.4858934169279
aF463.87147335423197
aa(lp375
F250.6269592476489
aF462.65673981191225
aa(lp376
F246.6144200626959
aF460.38401253918494
aa(lp377
F242.72727272727275
aF457.95454545454544
aa(lp378
F238.84012539184954
aF455.52507836990594
aa(lp379
F234.95297805642633
aF453.09561128526644
aa(lp380
F231.06583072100312
aF450.66614420062695
aa(lp381
F227.17868338557992
aF448.23667711598745
aa(lp382
F223.29153605015674
aF445.80721003134795
aa(lp383
F219.40438871473356
aF443.37774294670845
aa(lp384
F215.51724137931035
aF440.94827586206895
aa(lp385
F211.63009404388714
aF438.51880877742946
aa(lp386
F208.30721003134795
aF435.38401253918494
aa(lp387
F205.39184952978056
aF431.7398119122257
aa(lp388
F202.47648902821317
aF428.09561128526644
aa(lp389
F199.56112852664577
aF424.4514106583072
aa(lp390
F196.64576802507838
aF420.80721003134795
aa(lp391
F193.73040752351096
aF417.16300940438873
aa(lp392
F190.81504702194357
aF413.51880877742946
aa(lp393
F187.89968652037618
aF409.87460815047024
aa(lp394
F184.9843260188088
aF406.23040752351096
aa(lp395
F182.06896551724137
aF402.58620689655174
aa(lp396
F179.717868338558
aF399.6473354231975
aa(lp397
F178.7460815047022
aF398.43260188087777
aa(lp398
F177.7742946708464
aF397.217868338558
aa(lp399
F176.8025078369906
aF396.00313479623827
aa(lp400
F175.83072100313478
aF394.7884012539185
aa(lp401
F174.858934169279
aF393.5736677115988
aa(lp402
F173.8871473354232
aF392.358934169279
aa(lp403
F172.9153605015674
aF391.1442006269593
aa(lp404
F171.9435736677116
aF389.9294670846395
aa(lp405
F170.9717868338558
aF388.7147335423198
aa(lp406
F170.0
aF387.5
aa(lp407
F170.0
aF387.5
aa(lp408
F170.97178683385582
aF385.0705329153605
aa(lp409
F171.9435736677116
aF382.64106583072095
aa(lp410
F172.91536050156742
aF380.21159874608145
aa(lp411
F173.8871473354232
aF377.78213166144195
aa(lp412
F174.85893416927902
aF375.35266457680245
aa(lp413
F175.83072100313478
aF372.923197492163
aa(lp414
F176.8025078369906
aF370.4937304075235
aa(lp415
F177.77429467084642
aF368.06426332288396
aa(lp416
F178.7460815047022
aF365.63479623824446
aa(lp417
F179.71786833855802
aF363.20532915360496
aa(lp418
F184.13793103448293
aF361.63793103448273
aa(lp419
F189.96865203761774
aF360.42319749216296
aa(lp420
F195.79937304075236
aF359.20846394984324
aa(lp421
F201.63009404388717
aF357.9937304075235
aa(lp422
F207.46081504702198
aF356.77899686520374
aa(lp423
F213.2915360501568
aF355.564263322884
aa(lp424
F219.1222570532916
aF354.34952978056424
aa(lp425
F224.95297805642642
aF353.1347962382445
aa(lp426
F230.78369905956123
aF351.92006269592474
aa(lp427
F236.6144200626958
aF350.705329153605
aa(lp428
F242.85266457680243
aF350.0
aa(lp429
F249.65517241379305
aF350.0
aa(lp430
F256.4576802507837
aF350.0
aa(lp431
F263.26018808777434
aF350.0
aa(lp432
F270.06269592476497
aF350.0
aa(lp433
F276.86520376175537
aF350.0
aa(lp434
F283.667711598746
aF350.0
aa(lp435
F290.4702194357366
aF350.0
aa(lp436
F297.27272727272725
aF350.0
aa(lp437
F304.07523510971794
aF350.0
aa(lp438
F310.75235109717875
aF349.6865203761755
aa(lp439
F316.5830721003136
aF347.257053291536
aa(lp440
F322.4137931034482
aF344.82758620689657
aa(lp441
F328.24451410658304
aF342.39811912225707
aa(lp442
F334.0752351097179
aF339.9686520376176
aa(lp443
F339.9059561128527
aF337.539184952978
aa(lp444
F345.73667711598756
aF335.1097178683385
aa(lp445
F351.56739811912234
aF332.680250783699
aa(lp446
F357.3981191222572
aF330.2507836990595
aa(lp447
F363.22884012539186
aF327.8213166144201
aa(lp448
F369.05956112852664
aF325.3918495297806
aa(lp449
F370.8150470219436
aF322.96238244514103
aa(lp450
F371.7868338557994
aF320.53291536050153
aa(lp451
F372.7586206896552
aF318.10344827586204
aa(lp452
F373.73040752351096
aF315.67398119122254
aa(lp453
F374.7021943573668
aF313.24451410658304
aa(lp454
F375.67398119122254
aF310.8150470219436
aa(lp455
F376.6457680250784
aF308.3855799373041
aa(lp456
F377.61755485893417
aF305.9561128526646
aa(lp457
F378.58934169278996
aF303.5266457680251
aa(lp458
F379.56112852664575
aF301.0971786833856
aa(lp459
F380.0
aF298.6677115987461
aa(lp460
F380.0
aF296.23824451410667
aa(lp461
F380.0
aF293.80877742946717
aa(lp462
F380.0
aF291.3793103448276
aa(lp463
F380.0
aF288.9498432601881
aa(lp464
F380.0
aF286.5203761755486
aa(lp465
F380.0
aF284.09090909090907
aa(lp466
F380.0
aF281.66144200626957
aa(lp467
F380.0
aF279.2319749216301
aa(lp468
F380.0
aF276.8025078369906
aa(lp469
F379.7492163009405
aF274.37304075235113
aa(lp470
F378.77742946708463
aF271.94357366771163
aa(lp471
F377.80564263322884
aF269.5141065830721
aa(lp472
F376.83385579937305
aF267.0846394984326
aa(lp473
F375.8620689655172
aF264.6551724137931
aa(lp474
F374.8902821316615
aF262.22570532915364
aa(lp475
F373.91849529780563
aF259.79623824451414
aa(lp476
F372.94670846394985
aF257.3667711598746
aa(lp477
F371.97492163009406
aF254.9373040752351
aa(lp478
F371.0031347962382
aF252.5078369905956
aa(lp479
F370.0313479623824
aF250.07836990595607
aa(lp480
F367.17868338557986
aF247.64890282131657
aa(lp481
F364.26332288401255
aF245.21943573667713
aa(lp482
F361.34796238244513
aF242.78996865203763
aa(lp483
F358.4326018808777
aF240.3605015673981
aa(lp484
F355.5172413793103
aF237.9310344827586
aa(lp485
F352.60188087774293
aF235.50156739811908
aa(lp486
F349.6865203761755
aF233.07210031347958
aa(lp487
F346.77115987460814
aF230.64263322884014
aa(lp488
F343.8557993730408
aF228.21316614420064
aa(lp489
F340.94043887147336
aF225.78369905956112
aa(lp490
F337.3667711598746
aF224.1771159874608
aa(lp491
F333.4796238244513
aF222.96238244514103
aa(lp492
F329.5924764890281
aF221.74764890282128
aa(lp493
F325.7053291536049
aF220.53291536050153
aa(lp494
F321.8181818181818
aF219.3181818181818
aa(lp495
F317.9310344827586
aF218.10344827586206
aa(lp496
F314.0438871473354
aF216.88871473354232
aa(lp497
F310.15673981191213
aF215.67398119122254
aa(lp498
F306.2695924764889
aF214.4592476489028
aa(lp499
F302.3824451410657
aF213.24451410658304
aa(lp500
F298.87147335423185
aF212.0297805642633
aa(lp501
F295.95611285266455
aF210.81504702194357
aa(lp502
F293.0407523510972
aF209.60031347962382
aa(lp503
F290.12539184952976
aF208.38557993730407
aa(lp504
F287.21003134796234
aF207.17084639498432
aa(lp505
F284.2946708463949
aF205.95611285266457
aa(lp506
F281.37931034482756
aF204.7413793103448
aa(lp507
F278.46394984326014
aF203.52664576802505
aa(lp508
F275.54858934169283
aF202.31191222570536
aa(lp509
F272.6332288401254
aF201.0971786833856
aa(lp510
F269.717868338558
aF200.0
aa(lp511
F266.8025078369906
aF200.0
aa(lp512
F263.8871473354232
aF200.0
aa(lp513
F260.9717868338558
aF200.0
aa(lp514
F258.0564263322885
aF200.0
aa(lp515
F255.14106583072103
aF200.0
aa(lp516
F252.22570532915364
aF200.0
aa(lp517
F249.31034482758622
aF200.0
aa(lp518
F246.3949843260188
aF200.0
aa(lp519
F243.47962382445138
aF200.0
aa(lp520
F240.56426332288396
aF200.0
aa(lp521
F237.64890282131665
aF200.0
aa(lp522
F234.73354231974923
aF200.0
aa(lp523
F231.8181818181818
aF200.0
aa(lp524
F228.9028213166144
aF200.0
aa(lp525
F225.98746081504697
aF200.0
aa(lp526
F223.07210031347958
aF200.0
aa(lp527
F220.15673981191216
aF200.0
aa(lp528
F217.24137931034485
aF200.0
aa(lp529
F214.32601880877743
aF200.0
aa(lp530
F211.41065830721
aF200.0
aa(lp531
F208.4952978056426
aF199.37304075235107
aa(lp532
F205.5799373040752
aF198.15830721003132
aa(lp533
F202.66457680250778
aF196.94357366771158
aa(lp534
F199.74921630094047
aF195.72884012539186
aa(lp535
F196.83385579937308
aF194.5141065830721
aa(lp536
F193.91849529780566
aF193.29937304075236
aa(lp537
F191.00313479623827
aF192.0846394984326
aa(lp538
F188.08777429467085
aF190.86990595611286
aa(lp539
F185.17241379310346
aF189.6551724137931
aa(lp540
F182.25705329153604
aF188.44043887147336
aa(lp541
F179.7805642633229
aF186.67711598746092
aa(lp542
F178.8087774294671
aF183.03291536050165
aa(lp543
F177.8369905956113
aF179.3887147335424
aa(lp544
F176.8652037617555
aF175.74451410658313
aa(lp545
F175.8934169278997
aF172.10031347962385
aa(lp546
F174.92163009404388
aF168.45611285266457
aa(lp547
F173.9498432601881
aF164.81191222570533
aa(lp548
F172.9780564263323
aF161.16771159874617
aa(lp549
F172.0062695924765
aF157.5235109717869
aa(lp550
F171.0344827586207
aF153.87931034482764
aag302
ag301
ag300
ag299
ag298
ag297
ag296
ag295
ag294
ag293
ag292
ag291
ag290
ag289
ag288
ag287
ag286
ag285
ag284
ag283
ag282
ag281
ag280
ag279
ag278
ag277
ag276
ag275
ag274
ag273
ag272
ag271
ag270
ag269
ag268
ag267
ag266
ag265
ag264
ag263
ag262
ag261
ag260
ag259
ag258
ag257
ag256
ag255
ag254
ag253
ag252
ag251
ag250
ag249
ag248
ag247
ag246
ag245
ag244
ag243
ag242
ag241
ag240
ag239
ag238
ag237
ag236
ag235
ag234
ag233
ag232
ag231
ag230
ag304
ag305
ag306
ag307
ag308
ag309
ag310
ag311
ag312
ag313
ag314
ag315
ag316
ag317
ag318
ag319
ag320
ag321
ag322
ag323
ag324
ag325
ag326
ag327
ag328
ag329
ag330
ag331
ag332
ag333
ag334
ag335
ag336
ag337
ag338
ag339
ag340
ag341
ag342
ag343
ag344
ag345
ag346
ag347
ag348
ag349
ag350
ag351
ag352
ag353
ag354
ag355
ag356
ag357
ag358
ag359
ag360
ag361
ag362
ag363
ag364
ag365
ag366
ag367
ag368
ag369
ag370
ag371
ag372
ag373
ag374
ag375
ag376
ag377
ag378
ag379
ag380
ag381
ag382
ag383
ag384
ag385
ag386
ag387
ag388
ag389
ag390
ag391
ag392
ag393
ag394
ag395
ag396
ag397
ag398
ag399
ag400
ag401
ag402
ag403
ag404
ag405
ag406
aa(lp551
a(lp552
g459
ag460
ag461
ag462
ag463
ag464
ag465
ag466
ag467
ag468
ag469
ag470
ag471
ag472
ag473
ag474
ag475
ag476
ag477
ag478
ag479
ag480
ag481
ag482
ag483
ag484
ag485
ag486
ag487
ag488
ag489
ag490
ag491
ag492
ag493
ag494
ag495
ag496
ag497
ag498
ag499
ag500
ag501
ag502
ag503
ag504
ag505
ag506
ag507
ag508
ag509
ag510
ag511
ag512
ag513
ag514
ag515
ag516
ag517
ag518
ag519
ag520
ag521
ag522
ag523
ag524
ag525
ag526
ag527
ag528
ag529
ag530
ag531
ag532
ag533
ag534
ag535
ag536
ag537
ag538
ag539
ag540
ag541
ag542
ag543
ag544
ag545
ag546
ag547
ag548
ag549
ag550
ag302
aasS'best_pin_pt'
p553
g24
sS'old_trajectory'
p554
(lp555
g230
ag231
ag232
ag233
ag234
ag235
ag236
ag237
ag238
ag239
ag240
ag241
ag242
ag243
ag244
ag245
ag246
ag247
ag248
ag249
ag250
ag251
ag252
ag253
ag254
ag255
ag256
ag257
ag258
ag259
ag260
ag261
ag262
ag263
ag264
ag265
ag266
ag267
ag268
ag269
ag270
ag271
ag272
ag273
ag274
ag275
ag276
ag277
ag278
ag279
ag280
ag281
ag282
ag283
ag284
ag285
ag286
ag287
ag288
ag289
ag290
ag291
ag292
ag293
ag294
ag295
ag296
ag297
ag298
ag299
ag300
ag301
ag302
ag230
ag304
ag305
ag306
ag307
ag308
ag309
ag310
ag311
ag312
ag313
ag314
ag315
ag316
ag317
ag318
ag319
ag320
ag321
ag322
ag323
ag324
ag325
ag326
ag327
ag328
ag329
ag330
ag331
ag332
ag333
ag334
ag335
ag336
ag337
ag338
ag339
ag340
ag341
ag342
ag343
ag344
ag345
ag346
ag347
ag348
ag349
ag350
ag351
ag352
ag353
ag354
ag355
ag356
ag357
ag358
ag359
ag360
ag361
ag362
ag363
ag364
ag365
ag366
ag367
ag368
ag369
ag370
ag371
ag372
ag373
ag374
ag375
ag376
ag377
ag378
ag379
ag380
ag381
ag382
ag383
ag384
ag385
ag386
ag387
ag388
ag389
ag390
ag391
ag392
ag393
ag394
ag395
ag396
ag397
ag398
ag399
ag400
ag401
ag402
ag403
ag404
ag405
ag406
ag407
ag408
ag409
ag410
ag411
ag412
ag413
ag414
ag415
ag416
ag417
ag418
ag419
ag420
ag421
ag422
ag423
ag424
ag425
ag426
ag427
ag428
ag429
ag430
ag431
ag432
ag433
ag434
ag435
ag436
ag437
ag438
ag439
ag440
ag441
ag442
ag443
ag444
ag445
ag446
ag447
ag448
ag449
ag450
ag451
ag452
ag453
ag454
ag455
ag456
ag457
ag458
ag459
ag460
ag461
ag462
ag463
ag464
ag465
ag466
ag467
ag468
ag469
ag470
ag471
ag472
ag473
ag474
ag475
ag476
ag477
ag478
ag479
ag480
ag481
ag482
ag483
ag484
ag485
ag486
ag487
ag488
ag489
ag490
ag491
ag492
ag493
ag494
ag495
ag496
ag497
ag498
ag499
ag500
ag501
ag502
ag503
ag504
ag505
ag506
ag507
ag508
ag509
ag510
ag511
ag512
ag513
ag514
ag515
ag516
ag517
ag518
ag519
ag520
ag521
ag522
ag523
ag524
ag525
ag526
ag527
ag528
ag529
ag530
ag531
ag532
ag533
ag534
ag535
ag536
ag537
ag538
ag539
ag540
ag541
ag542
ag543
ag544
ag545
ag546
ag547
ag548
ag549
ag550
ag302
ag301
ag300
ag299
ag298
ag297
ag296
ag295
ag294
ag293
ag292
ag291
ag290
ag289
ag288
ag287
ag286
ag285
ag284
ag283
ag282
ag281
ag280
ag279
ag278
ag277
ag276
ag275
ag274
ag273
ag272
ag271
ag270
ag269
ag268
ag267
ag266
ag265
ag264
ag263
ag262
ag261
ag260
ag259
ag258
ag257
ag256
ag255
ag254
ag253
ag252
ag251
ag250
ag249
ag248
ag247
ag246
ag245
ag244
ag243
ag242
ag241
ag240
ag239
ag238
ag237
ag236
ag235
ag234
ag233
ag232
ag231
ag230
ag304
ag305
ag306
ag307
ag308
ag309
ag310
ag311
ag312
ag313
ag314
ag315
ag316
ag317
ag318
ag319
ag320
ag321
ag322
ag323
ag324
ag325
ag326
ag327
ag328
ag329
ag330
ag331
ag332
ag333
ag334
ag335
ag336
ag337
ag338
ag339
ag340
ag341
ag342
ag343
ag344
ag345
ag346
ag347
ag348
ag349
ag350
ag351
ag352
ag353
ag354
ag355
ag356
ag357
ag358
ag359
ag360
ag361
ag362
ag363
ag364
ag365
ag366
ag367
ag368
ag369
ag370
ag371
ag372
ag373
ag374
ag375
ag376
ag377
ag378
ag379
ag380
ag381
ag382
ag383
ag384
ag385
ag386
ag387
ag388
ag389
ag390
ag391
ag392
ag393
ag394
ag395
ag396
ag397
ag398
ag399
ag400
ag401
ag402
ag403
ag404
ag405
ag406
ag459
ag460
ag461
ag462
ag463
ag464
ag465
ag466
ag467
ag468
ag469
ag470
ag471
ag472
ag473
ag474
ag475
ag476
ag477
ag478
ag479
ag480
ag481
ag482
ag483
ag484
ag485
ag486
ag487
ag488
ag489
ag490
ag491
ag492
ag493
ag494
ag495
ag496
ag497
ag498
ag499
ag500
ag501
ag502
ag503
ag504
ag505
ag506
ag507
ag508
ag509
ag510
ag511
ag512
ag513
ag514
ag515
ag516
ag517
ag518
ag519
ag520
ag521
ag522
ag523
ag524
ag525
ag526
ag527
ag528
ag529
ag530
ag531
ag532
ag533
ag534
ag535
ag536
ag537
ag538
ag539
ag540
ag541
ag542
ag543
ag544
ag545
ag546
ag547
ag548
ag549
ag550
ag302
asS'indices_of_pts'
p556
(lp557
(lp558
I103
aI104
aI105
aI106
aI107
aI108
aI109
aI110
aI111
aI112
aI113
aI114
aI115
aI116
aI117
aI118
aI119
aI120
aI121
aI122
aI123
aI124
aI125
aI126
aI127
aI128
aI129
aI130
aI131
aI132
aI133
aI134
aI135
aI136
aI137
aI138
aI139
aI140
aI141
aI142
aI143
aI144
aI145
aI146
aI147
aI148
aI149
aI150
aI151
aI152
aI153
aI154
aI155
aI156
aI157
aI158
aI159
aI160
aI161
aI162
aI163
aI164
aI165
aI166
aI167
aI168
aI169
aI170
aI171
aI172
aI173
aI174
aI175
aa(lp559
I103
aI102
aI101
aI100
aI99
aI98
aI97
aI96
aI95
aI94
aI93
aI92
aI91
aI90
aI89
aI88
aI87
aI86
aI85
aI84
aI83
aI82
aI81
aI80
aI79
aI78
aI77
aI76
aI75
aI74
aI73
aI72
aI71
aI70
aI69
aI68
aI67
aI66
aI65
aI64
aI63
aI62
aI61
aI60
aI59
aI58
aI57
aI56
aI55
aI54
aI53
aI52
aI51
aI50
aI49
aI48
aI47
aI46
aI45
aI44
aI43
aI42
aI41
aI40
aI39
aI38
aI37
aI36
aI35
aI34
aI33
aI32
aI31
aI30
aI29
aI28
aI27
aI26
aI25
aI24
aI23
aI22
aI21
aI20
aI19
aI18
aI17
aI16
aI15
aI14
aI13
aI12
aI11
aI10
aI9
aI8
aI7
aI6
aI5
aI4
aI3
aI2
aI1
aI0
aI319
aI318
aI317
aI316
aI315
aI314
aI313
aI312
aI311
aI310
aI309
aI308
aI307
aI306
aI305
aI304
aI303
aI302
aI301
aI300
aI299
aI298
aI297
aI296
aI295
aI294
aI293
aI292
aI291
aI290
aI289
aI288
aI287
aI286
aI285
aI284
aI283
aI282
aI281
aI280
aI279
aI278
aI277
aI276
aI275
aI274
aI273
aI272
aI271
aI270
aI269
aI268
aI267
aI266
aI265
aI264
aI263
aI262
aI261
aI260
aI259
aI258
aI257
aI256
aI255
aI254
aI253
aI252
aI251
aI250
aI249
aI248
aI247
aI246
aI245
aI244
aI243
aI242
aI241
aI240
aI239
aI238
aI237
aI236
aI235
aI234
aI233
aI232
aI231
aI230
aI229
aI228
aI227
aI226
aI225
aI224
aI223
aI222
aI221
aI220
aI219
aI218
aI217
aI216
aI215
aI214
aI213
aI212
aI211
aI210
aI209
aI208
aI207
aI206
aI205
aI204
aI203
aI202
aI201
aI200
aI199
aI198
aI197
aI196
aI195
aI194
aI193
aI192
aI191
aI190
aI189
aI188
aI187
aI186
aI185
aI184
aI183
aI182
aI181
aI180
aI179
aI178
aI177
aI176
aI175
aI174
aI173
aI172
aI171
aI170
aI169
aI168
aI167
aI166
aI165
aI164
aI163
aI162
aI161
aI160
aI159
aI158
aI157
aI156
aI155
aI154
aI153
aI152
aI151
aI150
aI149
aI148
aI147
aI146
aI145
aI144
aI143
aI142
aI141
aI140
aI139
aI138
aI137
aI136
aI135
aI134
aI133
aI132
aI131
aI130
aI129
aI128
aI127
aI126
aI125
aI124
aI123
aI122
aI121
aI120
aI119
aI118
aI117
aI116
aI115
aI114
aI113
aI112
aI111
aI110
aI109
aI108
aI107
aI106
aI105
aI104
aI103
aI102
aI101
aI100
aI99
aI98
aI97
aI96
aI95
aI94
aI93
aI92
aI91
aI90
aI89
aI88
aI87
aI86
aI85
aI84
aI83
aI82
aI81
aI80
aI79
aI78
aI77
aI76
aI75
aI74
aI73
aI72
aI71
aI70
aI69
aI68
aI67
aI66
aI65
aI64
aI63
aI62
aI61
aI60
aI59
aI58
aI57
aI56
aI55
aI54
aI53
aI52
aI51
aI50
aI49
aI48
aI47
aI46
aI45
aI44
aI43
aI42
aI41
aI40
aI39
aI38
aI37
aI36
aI35
aI34
aI33
aI32
aI31
aI30
aI29
aI28
aI27
aI26
aI25
aI24
aI23
aI22
aI21
aI20
aI19
aI18
aI17
aI16
aI15
aI14
aI13
aI12
aI11
aI10
aI9
aI8
aI7
aI6
aI5
aI4
aI3
aI2
aI1
aI0
aa(lp560
a(lp561
I267
aI266
aI265
aI264
aI263
aI262
aI261
aI260
aI259
aI258
aI257
aI256
aI255
aI254
aI253
aI252
aI251
aI250
aI249
aI248
aI247
aI246
aI245
aI244
aI243
aI242
aI241
aI240
aI239
aI238
aI237
aI236
aI235
aI234
aI233
aI232
aI231
aI230
aI229
aI228
aI227
aI226
aI225
aI224
aI223
aI222
aI221
aI220
aI219
aI218
aI217
aI216
aI215
aI214
aI213
aI212
aI211
aI210
aI209
aI208
aI207
aI206
aI205
aI204
aI203
aI202
aI201
aI200
aI199
aI198
aI197
aI196
aI195
aI194
aI193
aI192
aI191
aI190
aI189
aI188
aI187
aI186
aI185
aI184
aI183
aI182
aI181
aI180
aI179
aI178
aI177
aI176
aI175
aas.