(dp0
S'worst_pin_pt'
p1
(lp2
cnumpy.core.multiarray
scalar
p3
(cnumpy
dtype
p4
(S'i8'
p5
I0
I1
tp6
Rp7
(I3
S'<'
p8
NNNI-1
I-1
I0
tp9
bS'\xdc\x00\x00\x00\x00\x00\x00\x00'
p10
tp11
Rp12
ag3
(g7
S'\xaa\x00\x00\x00\x00\x00\x00\x00'
p13
tp14
Rp15
asS'pin_scores'
p16
(lp17
I22
aI18
aI20
aI19
aI19
aI17
aI21
aI18
aI19
aI18
aI23
aI22
aI19
aI18
aI22
aI19
aI23
aI21
aI22
aI19
aI18
aI19
aI18
aI18
aI20
aI19
aI18
aI20
aI18
aI22
asS'best_score'
p18
I23
sS'init_score'
p19
I0
sS'worst_score'
p20
I16
sS'totalpts'
p21
I33
sS'pin_pts'
p22
(lp23
(lp24
g3
(g7
S'\x0e\x01\x00\x00\x00\x00\x00\x00'
p25
tp26
Rp27
ag3
(g7
S'\x04\x01\x00\x00\x00\x00\x00\x00'
p28
tp29
Rp30
aa(lp31
g3
(g7
S'F\x00\x00\x00\x00\x00\x00\x00'
p32
tp33
Rp34
ag3
(g7
S'\xf0\x00\x00\x00\x00\x00\x00\x00'
p35
tp36
Rp37
aag2
a(lp38
g3
(g7
S'\xa0\x00\x00\x00\x00\x00\x00\x00'
p39
tp40
Rp41
ag3
(g7
S'\xc8\x00\x00\x00\x00\x00\x00\x00'
p42
tp43
Rp44
aa(lp45
g3
(g7
S'\xb4\x00\x00\x00\x00\x00\x00\x00'
p46
tp47
Rp48
ag3
(g7
S'F\x00\x00\x00\x00\x00\x00\x00'
p49
tp50
Rp51
aa(lp52
g3
(g7
S'P\x00\x00\x00\x00\x00\x00\x00'
p53
tp54
Rp55
ag3
(g7
S'\xf0\x00\x00\x00\x00\x00\x00\x00'
p56
tp57
Rp58
aa(lp59
g3
(g7
S'\xfa\x00\x00\x00\x00\x00\x00\x00'
p60
tp61
Rp62
ag3
(g7
S'\x04\x01\x00\x00\x00\x00\x00\x00'
p63
tp64
Rp65
aa(lp66
g3
(g7
S'<\x00\x00\x00\x00\x00\x00\x00'
p67
tp68
Rp69
ag3
(g7
S'Z\x00\x00\x00\x00\x00\x00\x00'
p70
tp71
Rp72
aa(lp73
g3
(g7
S'\xdc\x00\x00\x00\x00\x00\x00\x00'
p74
tp75
Rp76
ag3
(g7
S'\xb4\x00\x00\x00\x00\x00\x00\x00'
p77
tp78
Rp79
aa(lp80
g3
(g7
S'F\x00\x00\x00\x00\x00\x00\x00'
p81
tp82
Rp83
ag3
(g7
S'2\x00\x00\x00\x00\x00\x00\x00'
p84
tp85
Rp86
aa(lp87
g3
(g7
S'\xd2\x00\x00\x00\x00\x00\x00\x00'
p88
tp89
Rp90
ag3
(g7
S'\x18\x01\x00\x00\x00\x00\x00\x00'
p91
tp92
Rp93
aa(lp94
g3
(g7
S'\xb4\x00\x00\x00\x00\x00\x00\x00'
p95
tp96
Rp97
ag3
(g7
S'\x18\x01\x00\x00\x00\x00\x00\x00'
p98
tp99
Rp100
aa(lp101
g3
(g7
S'\x18\x01\x00\x00\x00\x00\x00\x00'
p102
tp103
Rp104
ag3
(g7
S'd\x00\x00\x00\x00\x00\x00\x00'
p105
tp106
Rp107
aa(lp108
g3
(g7
S'P\x00\x00\x00\x00\x00\x00\x00'
p109
tp110
Rp111
ag3
(g7
S'd\x00\x00\x00\x00\x00\x00\x00'
p112
tp113
Rp114
aa(lp115
g3
(g7
S'\xd2\x00\x00\x00\x00\x00\x00\x00'
p116
tp117
Rp118
ag3
(g7
S'\x0e\x01\x00\x00\x00\x00\x00\x00'
p119
tp120
Rp121
aa(lp122
g3
(g7
S'\xdc\x00\x00\x00\x00\x00\x00\x00'
p123
tp124
Rp125
ag3
(g7
S'P\x00\x00\x00\x00\x00\x00\x00'
p126
tp127
Rp128
aa(lp129
g3
(g7
S'\x18\x01\x00\x00\x00\x00\x00\x00'
p130
tp131
Rp132
ag3
(g7
S'\x18\x01\x00\x00\x00\x00\x00\x00'
p133
tp134
Rp135
aa(lp136
g3
(g7
S'\xdc\x00\x00\x00\x00\x00\x00\x00'
p137
tp138
Rp139
ag3
(g7
S'\x0e\x01\x00\x00\x00\x00\x00\x00'
p140
tp141
Rp142
aa(lp143
g3
(g7
S'\xe6\x00\x00\x00\x00\x00\x00\x00'
p144
tp145
Rp146
ag3
(g7
S'\x18\x01\x00\x00\x00\x00\x00\x00'
p147
tp148
Rp149
aa(lp150
g3
(g7
S'\xa0\x00\x00\x00\x00\x00\x00\x00'
p151
tp152
Rp153
ag3
(g7
S'\xdc\x00\x00\x00\x00\x00\x00\x00'
p154
tp155
Rp156
aa(lp157
g3
(g7
S'Z\x00\x00\x00\x00\x00\x00\x00'
p158
tp159
Rp160
ag3
(g7
S'n\x00\x00\x00\x00\x00\x00\x00'
p161
tp162
Rp163
aa(lp164
g3
(g7
S'F\x00\x00\x00\x00\x00\x00\x00'
p165
tp166
Rp167
ag3
(g7
S'\x0e\x01\x00\x00\x00\x00\x00\x00'
p168
tp169
Rp170
aa(lp171
g3
(g7
S'\xfa\x00\x00\x00\x00\x00\x00\x00'
p172
tp173
Rp174
ag3
(g7
S'<\x00\x00\x00\x00\x00\x00\x00'
p175
tp176
Rp177
aa(lp178
g3
(g7
S'<\x00\x00\x00\x00\x00\x00\x00'
p179
tp180
Rp181
ag3
(g7
S'\x82\x00\x00\x00\x00\x00\x00\x00'
p182
tp183
Rp184
aa(lp185
g3
(g7
S'\xd2\x00\x00\x00\x00\x00\x00\x00'
p186
tp187
Rp188
ag3
(g7
S'\xc8\x00\x00\x00\x00\x00\x00\x00'
p189
tp190
Rp191
aa(lp192
g3
(g7
S'\x04\x01\x00\x00\x00\x00\x00\x00'
p193
tp194
Rp195
ag3
(g7
S'\x18\x01\x00\x00\x00\x00\x00\x00'
p196
tp197
Rp198
aa(lp199
g3
(g7
S'x\x00\x00\x00\x00\x00\x00\x00'
p200
tp201
Rp202
ag3
(g7
S'\x0e\x01\x00\x00\x00\x00\x00\x00'
p203
tp204
Rp205
aa(lp206
g3
(g7
S'\x96\x00\x00\x00\x00\x00\x00\x00'
p207
tp208
Rp209
ag3
(g7
S'\x0e\x01\x00\x00\x00\x00\x00\x00'
p210
tp211
Rp212
aa(lp213
g3
(g7
S'<\x00\x00\x00\x00\x00\x00\x00'
p214
tp215
Rp216
ag3
(g7
S'\xb4\x00\x00\x00\x00\x00\x00\x00'
p217
tp218
Rp219
aa(lp220
g3
(g7
S'\xe6\x00\x00\x00\x00\x00\x00\x00'
p221
tp222
Rp223
ag3
(g7
S'"\x01\x00\x00\x00\x00\x00\x00'
p224
tp225
Rp226
aasS'trajectory'
p227
(lp228
(lp229
(lp230
F410.0
aF487.5
aa(lp231
F407.14285714285717
aF487.5
aa(lp232
F404.2857142857143
aF487.5
aa(lp233
F401.42857142857144
aF487.5
aa(lp234
F398.57142857142856
aF487.5
aa(lp235
F395.7142857142857
aF487.5
aa(lp236
F392.8571428571429
aF487.5
aa(lp237
F390.0
aF487.5
aa(lp238
F387.14285714285717
aF487.5
aa(lp239
F384.2857142857143
aF487.5
aa(lp240
F381.42857142857144
aF487.5
aa(lp241
F376.6666666666667
aF486.9047619047619
aa(lp242
F370.0
aF485.7142857142857
aa(lp243
F363.33333333333337
aF484.5238095238095
aa(lp244
F356.6666666666667
aF483.3333333333333
aa(lp245
F350.0
aF482.14285714285717
aa(lp246
F343.33333333333337
aF480.95238095238096
aa(lp247
F336.6666666666667
aF479.76190476190476
aa(lp248
F330.0
aF478.57142857142856
aa(lp249
F323.33333333333337
aF477.3809523809524
aa(lp250
F316.6666666666667
aF476.1904761904762
aa(lp251
F310.0
aF475.0
aa(lp252
F306.1904761904762
aF473.8095238095238
aa(lp253
F302.3809523809524
aF472.61904761904765
aa(lp254
F298.57142857142856
aF471.42857142857144
aa(lp255
F294.76190476190476
aF470.23809523809524
aa(lp256
F290.95238095238096
aF469.04761904761904
aa(lp257
F287.14285714285717
aF467.8571428571429
aa(lp258
F283.3333333333333
aF466.6666666666667
aa(lp259
F279.5238095238095
aF465.4761904761905
aa(lp260
F275.7142857142857
aF464.2857142857143
aa(lp261
F271.9047619047619
aF463.0952380952381
aa(lp262
F268.5714285714286
aF461.9047619047619
aa(lp263
F265.7142857142857
aF460.7142857142857
aa(lp264
F262.8571428571429
aF459.5238095238095
aa(lp265
F260.0
aF458.3333333333333
aa(lp266
F257.14285714285717
aF457.14285714285717
aa(lp267
F254.28571428571428
aF455.95238095238096
aa(lp268
F251.42857142857144
aF454.76190476190476
aa(lp269
F248.57142857142858
aF453.57142857142856
aa(lp270
F245.71428571428572
aF452.3809523809524
aa(lp271
F242.85714285714286
aF451.1904761904762
aa(lp272
F240.0
aF450.0
aa(lp273
F237.14285714285714
aF448.8095238095238
aa(lp274
F234.28571428571428
aF447.6190476190476
aa(lp275
F231.42857142857144
aF446.42857142857144
aa(lp276
F228.57142857142858
aF445.23809523809524
aa(lp277
F225.71428571428572
aF444.04761904761904
aa(lp278
F222.85714285714286
aF442.85714285714283
aa(lp279
F220.0
aF441.6666666666667
aa(lp280
F217.14285714285717
aF440.4761904761905
aa(lp281
F214.2857142857143
aF439.2857142857143
aa(lp282
F211.42857142857144
aF438.0952380952381
aa(lp283
F208.57142857142858
aF436.3095238095238
aa(lp284
F205.71428571428572
aF433.92857142857144
aa(lp285
F202.8571428571429
aF431.5476190476191
aa(lp286
F200.0
aF429.1666666666667
aa(lp287
F197.14285714285714
aF426.7857142857143
aa(lp288
F194.2857142857143
aF424.4047619047619
aa(lp289
F191.42857142857144
aF422.0238095238095
aa(lp290
F188.57142857142858
aF419.64285714285717
aa(lp291
F185.71428571428572
aF417.26190476190476
aa(lp292
F182.8571428571429
aF414.8809523809524
aa(lp293
F180.00000000000003
aF412.5
aa(lp294
F179.04761904761907
aF408.92857142857144
aa(lp295
F178.0952380952381
aF405.3571428571429
aa(lp296
F177.14285714285714
aF401.78571428571433
aa(lp297
F176.1904761904762
aF398.2142857142858
aa(lp298
F175.23809523809524
aF394.64285714285717
aa(lp299
F174.2857142857143
aF391.0714285714286
aa(lp300
F173.33333333333334
aF387.50000000000006
aa(lp301
F172.38095238095238
aF383.92857142857144
aa(lp302
F171.42857142857144
aF380.3571428571429
aa(lp303
F170.47619047619048
aF376.7857142857143
aa(lp304
F169.52380952380952
aF373.2142857142857
aa(lp305
F168.57142857142858
aF369.64285714285717
aa(lp306
F167.61904761904762
aF366.0714285714286
aa(lp307
F166.66666666666669
aF362.5
aa(lp308
F165.71428571428572
aF358.92857142857144
aa(lp309
F164.76190476190476
aF355.3571428571429
aa(lp310
F163.80952380952382
aF351.78571428571433
aa(lp311
F162.85714285714286
aF348.2142857142857
aa(lp312
F161.9047619047619
aF344.6428571428571
aa(lp313
F160.95238095238096
aF341.0714285714286
aa(lp314
F160.0
aF337.5
aa(lp315
F160.0
aF333.92857142857144
aa(lp316
F160.0
aF330.35714285714283
aa(lp317
F160.0
aF326.78571428571433
aa(lp318
F160.0
aF323.2142857142857
aa(lp319
F160.0
aF319.64285714285717
aa(lp320
F160.0
aF316.07142857142856
aa(lp321
F160.0
aF312.50000000000006
aa(lp322
F160.0
aF308.92857142857144
aa(lp323
F160.0
aF305.3571428571429
aa(lp324
F160.0
aF301.7857142857143
aaa(lp325
(lp326
F430.0
aF187.5
aa(lp327
F427.1428571428571
aF187.5
aa(lp328
F424.2857142857142
aF187.5
aa(lp329
F421.42857142857133
aF187.5
aa(lp330
F418.57142857142856
aF187.5
aa(lp331
F415.71428571428567
aF187.5
aa(lp332
F412.8571428571428
aF187.5
aa(lp333
F409.9999999999999
aF187.5
aa(lp334
F407.1428571428571
aF187.5
aa(lp335
F404.2857142857142
aF187.5
aa(lp336
F401.42857142857133
aF187.5
aa(lp337
F398.57142857142844
aF187.5
aa(lp338
F395.71428571428567
aF187.5
aa(lp339
F392.85714285714283
aF187.5
aa(lp340
F389.99999999999994
aF187.5
aa(lp341
F387.14285714285705
aF187.5
aa(lp342
F384.28571428571416
aF187.5
aa(lp343
F381.4285714285714
aF187.5
aa(lp344
F378.57142857142856
aF187.5
aa(lp345
F375.71428571428567
aF187.5
aa(lp346
F372.8571428571428
aF187.5
aa(lp347
F370.0
aF187.5
aa(lp348
F368.0952380952381
aF188.6904761904762
aa(lp349
F366.19047619047615
aF189.8809523809524
aa(lp350
F364.2857142857142
aF191.0714285714286
aa(lp351
F362.3809523809524
aF192.26190476190476
aa(lp352
F360.4761904761905
aF193.45238095238096
aa(lp353
F358.57142857142856
aF194.64285714285717
aa(lp354
F356.66666666666663
aF195.83333333333337
aa(lp355
F354.7619047619047
aF197.02380952380958
aa(lp356
F352.85714285714283
aF198.21428571428575
aa(lp357
F350.9523809523809
aF199.40476190476193
aa(lp358
F347.61904761904754
aF200.59523809523813
aa(lp359
F342.8571428571428
aF201.7857142857143
aa(lp360
F338.095238095238
aF202.9761904761905
aa(lp361
F333.33333333333326
aF204.16666666666669
aa(lp362
F328.5714285714285
aF205.3571428571429
aa(lp363
F323.80952380952374
aF206.54761904761907
aa(lp364
F319.047619047619
aF207.73809523809527
aa(lp365
F314.2857142857142
aF208.92857142857144
aa(lp366
F309.52380952380946
aF210.11904761904765
aa(lp367
F304.7619047619047
aF211.30952380952382
aa(lp368
F299.99999999999994
aF212.5
aa(lp369
F298.0952380952381
aF212.5
aa(lp370
F296.19047619047615
aF212.5
aa(lp371
F294.2857142857142
aF212.5
aa(lp372
F292.38095238095235
aF212.5
aa(lp373
F290.4761904761904
aF212.5
aa(lp374
F288.57142857142856
aF212.5
aa(lp375
F286.66666666666663
aF212.5
aa(lp376
F284.76190476190476
aF212.5
aa(lp377
F282.85714285714283
aF212.5
aa(lp378
F280.9523809523809
aF212.5
aa(lp379
F277.61904761904754
aF213.69047619047623
aa(lp380
F272.8571428571428
aF216.0714285714286
aa(lp381
F268.095238095238
aF218.452380952381
aa(lp382
F263.33333333333326
aF220.83333333333337
aa(lp383
F258.5714285714285
aF223.21428571428575
aa(lp384
F253.80952380952377
aF225.59523809523813
aa(lp385
F249.04761904761895
aF227.9761904761905
aa(lp386
F244.28571428571425
aF230.3571428571429
aa(lp387
F239.52380952380943
aF232.73809523809527
aa(lp388
F234.76190476190465
aF235.11904761904768
aa(lp389
F229.99999999999997
aF237.50000000000003
aa(lp390
F228.09523809523805
aF238.6904761904762
aa(lp391
F226.19047619047618
aF239.8809523809524
aa(lp392
F224.28571428571425
aF241.07142857142858
aa(lp393
F222.38095238095235
aF242.26190476190476
aa(lp394
F220.47619047619045
aF243.45238095238096
aa(lp395
F218.57142857142856
aF244.64285714285714
aa(lp396
F216.66666666666666
aF245.83333333333334
aa(lp397
F214.76190476190476
aF247.02380952380952
aa(lp398
F212.85714285714283
aF248.21428571428572
aa(lp399
F210.95238095238096
aF249.4047619047619
aa(lp400
F208.57142857142856
aF250.5952380952381
aa(lp401
F205.71428571428572
aF251.78571428571428
aa(lp402
F202.85714285714283
aF252.97619047619048
aa(lp403
F200.00000000000003
aF254.16666666666666
aa(lp404
F197.14285714285714
aF255.35714285714286
aa(lp405
F194.28571428571425
aF256.54761904761904
aa(lp406
F191.42857142857142
aF257.73809523809524
aa(lp407
F188.57142857142856
aF258.92857142857144
aa(lp408
F185.71428571428572
aF260.1190476190476
aa(lp409
F182.85714285714283
aF261.3095238095238
aa(lp410
F180.0
aF262.5
aa(lp411
F178.09523809523807
aF266.0714285714286
aa(lp412
F176.1904761904762
aF269.6428571428571
aa(lp413
F174.28571428571428
aF273.2142857142857
aa(lp414
F172.38095238095238
aF276.7857142857143
aa(lp415
F170.47619047619045
aF280.3571428571429
aa(lp416
F168.57142857142858
aF283.92857142857144
aa(lp417
F166.66666666666666
aF287.5
aa(lp418
F164.76190476190476
aF291.07142857142856
aa(lp419
F162.85714285714286
aF294.64285714285717
aa(lp420
F160.95238095238093
aF298.2142857142858
aag324
aasS'best_pin_pt'
p421
g87
sS'old_trajectory'
p422
(lp423
g326
ag327
ag328
ag329
ag330
ag331
ag332
ag333
ag334
ag335
ag336
ag337
ag338
ag339
ag340
ag341
ag342
ag343
ag344
ag345
ag346
ag347
ag348
ag349
ag350
ag351
ag352
ag353
ag354
ag355
ag356
ag357
ag358
ag359
ag360
ag361
ag362
ag363
ag364
ag365
ag366
ag367
ag368
ag369
ag370
ag371
ag372
ag373
ag374
ag375
ag376
ag377
ag378
ag379
ag380
ag381
ag382
ag383
ag384
ag385
ag386
ag387
ag388
ag389
ag390
ag391
ag392
ag393
ag394
ag395
ag396
ag397
ag398
ag399
ag400
ag401
ag402
ag403
ag404
ag405
ag406
ag407
ag408
ag409
ag410
ag411
ag412
ag413
ag414
ag415
ag416
ag417
ag418
ag419
ag420
ag324
ag230
ag231
ag232
ag233
ag234
ag235
ag236
ag237
ag238
ag239
ag240
ag241
ag242
ag243
ag244
ag245
ag246
ag247
ag248
ag249
ag250
ag251
ag252
ag253
ag254
ag255
ag256
ag257
ag258
ag259
ag260
ag261
ag262
ag263
ag264
ag265
ag266
ag267
ag268
ag269
ag270
ag271
ag272
ag273
ag274
ag275
ag276
ag277
ag278
ag279
ag280
ag281
ag282
ag283
ag284
ag285
ag286
ag287
ag288
ag289
ag290
ag291
ag292
ag293
ag294
ag295
ag296
ag297
ag298
ag299
ag300
ag301
ag302
ag303
ag304
ag305
ag306
ag307
ag308
ag309
ag310
ag311
ag312
ag313
ag314
ag315
ag316
ag317
ag318
ag319
ag320
ag321
ag322
ag323
ag324
asS'indices_of_pts'
p424
(lp425
(lp426
I0
aI1
aI2
aI3
aI4
aI5
aI6
aI7
aI8
aI9
aI10
aI11
aI12
aI13
aI14
aI15
aI16
aI17
aI18
aI19
aI20
aI21
aI22
aI23
aI24
aI25
aI26
aI27
aI28
aI29
aI30
aI31
aI32
aI33
aI34
aI35
aI36
aI37
aI38
aI39
aI40
aI41
aI42
aI43
aI44
aI45
aI46
aI47
aI48
aI49
aI50
aI51
aI52
aI53
aI54
aI55
aI56
aI57
aI58
aI59
aI60
aI61
aI62
aI63
aI64
aI65
aI66
aI67
aI68
aI69
aI70
aI71
aI72
aI73
aI74
aI75
aI76
aI77
aI78
aI79
aI80
aI81
aI82
aI83
aI84
aI85
aI86
aI87
aI88
aI89
aI90
aI91
aI92
aI93
aI94
aa(lp427
I189
aI188
aI187
aI186
aI185
aI184
aI183
aI182
aI181
aI180
aI179
aI178
aI177
aI176
aI175
aI174
aI173
aI172
aI171
aI170
aI169
aI168
aI167
aI166
aI165
aI164
aI163
aI162
aI161
aI160
aI159
aI158
aI157
aI156
aI155
aI154
aI153
aI152
aI151
aI150
aI149
aI148
aI147
aI146
aI145
aI144
aI143
aI142
aI141
aI140
aI139
aI138
aI137
aI136
aI135
aI134
aI133
aI132
aI131
aI130
aI129
aI128
aI127
aI126
aI125
aI124
aI123
aI122
aI121
aI120
aI119
aI118
aI117
aI116
aI115
aI114
aI113
aI112
aI111
aI110
aI109
aI108
aI107
aI106
aI105
aI104
aI103
aI102
aI101
aI100
aI99
aI98
aI97
aI96
aI95
aI94
aas.