(dp0
S'worst_score'
p1
cnumpy.core.multiarray
scalar
p2
(cnumpy
dtype
p3
(S'f8'
p4
I0
I1
tp5
Rp6
(I3
S'<'
p7
NNNI-1
I-1
I0
tp8
bS'\x00\x00\x00\x00\x00\x00c\xc0'
p9
tp10
Rp11
sS'best_pin_pt'
p12
(lp13
g2
(g3
(S'i8'
p14
I0
I1
tp15
Rp16
(I3
S'<'
p17
NNNI-1
I-1
I0
tp18
bS'\xb4\x00\x00\x00\x00\x00\x00\x00'
p19
tp20
Rp21
ag2
(g16
S'"\x01\x00\x00\x00\x00\x00\x00'
p22
tp23
Rp24
asS'worst_pin_pt'
p25
g13
sS'totalpts'
p26
I43
sS'indices_of_pts'
p27
(lp28
(lp29
I318
aI319
aI320
aI321
aI322
aI323
aI324
aI325
aI326
aI327
aI328
aI329
aI330
aI331
aI332
aI333
aI334
aI335
aI336
aI337
aI338
aI339
aI0
aI1
aI2
aI3
aI4
aI5
aI6
aI7
aI8
aI9
aI10
aI11
aI12
aI13
aI14
aI15
aI16
aI17
aI18
aI19
aI20
aI21
aI22
aI23
aI24
aI25
aI26
aI27
aI28
aI29
aI30
aI31
aI32
aI33
aI34
aI35
aI36
aI37
aI38
aI39
aI40
aI41
aI42
aI43
aI44
aI45
aI46
aI47
aI48
aI49
aI50
aI51
aI52
aI53
aI54
aI55
aI56
aI57
aI58
aI59
aI60
aI61
aa(lp30
I318
aI317
aI316
aI315
aI314
aI313
aI312
aI311
aI310
aI309
aI308
aI307
aI306
aI305
aI304
aI303
aI302
aI301
aI300
aI299
aI298
aI297
aI296
aI295
aI294
aI293
aI292
aI291
aI290
aI289
aI288
aI287
aI286
aI285
aI284
aI283
aI282
aI281
aI280
aI279
aI278
aI277
aI276
aI275
aI274
aI273
aI272
aI271
aI270
aI269
aI268
aI267
aI266
aI265
aI264
aI263
aI262
aI261
aI260
aI259
aI258
aI257
aI256
aI255
aI254
aI253
aI252
aI251
aI250
aI249
aI248
aI247
aI246
aI245
aI244
aI243
aI242
aI241
aI240
aI239
aI238
aI237
aI236
aI235
aI234
aI233
aI232
aI231
aI230
aI229
aI228
aI227
aI226
aI225
aa(lp31
I123
aI124
aI125
aI126
aI127
aI128
aI129
aI130
aI131
aI132
aI133
aI134
aI135
aI136
aI137
aI138
aI139
aI140
aI141
aI142
aI143
aI144
aI145
aI146
aI147
aI148
aI149
aI150
aI151
aI152
aI153
aI154
aI155
aI156
aI157
aI158
aI159
aI160
aI161
aI162
aI163
aI164
aI165
aI166
aI167
aI168
aI169
aI170
aI171
aI172
aI173
aI174
aI175
aI176
aI177
aI178
aI179
aI180
aI181
aI182
aI183
aI184
aI185
aI186
aI187
aI188
aI189
aI190
aI191
aI192
aI193
aI194
aI195
aI196
aI197
aI198
aI199
aI200
aI201
aI202
aI203
aI204
aI205
aI206
aI207
aI208
aI209
aI210
aI211
aI212
aI213
aI214
aI215
aI216
aI217
aI218
aI219
aI220
aI221
aI222
aI223
aI224
aI225
aa(lp32
I123
aI122
aI121
aI120
aI119
aI118
aI117
aI116
aI115
aI114
aI113
aI112
aI111
aI110
aI109
aI108
aI107
aI106
aI105
aI104
aI103
aI102
aI101
aI100
aI99
aI98
aI97
aI96
aI95
aI94
aI93
aI92
aI91
aI90
aI89
aI88
aI87
aI86
aI85
aI84
aI83
aI82
aI81
aI80
aI79
aI78
aI77
aI76
aI75
aI74
aI73
aI72
aI71
aI70
aI69
aI68
aI67
aI66
aI65
aI64
aI63
aI62
aI61
aasS'old_trajectory'
p33
(lp34
(lp35
F419.5575221238938
aF430.88495575221236
aa(lp36
F419.46902654867256
aF429.46902654867256
aa(lp37
F418.49557522123894
aF428.49557522123894
aa(lp38
F417.52212389380526
aF427.52212389380526
aa(lp39
F416.5486725663717
aF426.5486725663717
aa(lp40
F415.575221238938
aF425.575221238938
aa(lp41
F414.60176991150445
aF424.60176991150445
aa(lp42
F413.62831858407077
aF423.62831858407077
aa(lp43
F412.65486725663715
aF422.65486725663715
aa(lp44
F411.6814159292036
aF421.6814159292036
aa(lp45
F410.7079646017699
aF420.7079646017699
aa(lp46
F409.7345132743363
aF419.4690265486726
aa(lp47
F408.76106194690266
aF417.52212389380526
aa(lp48
F407.78761061946904
aF415.57522123893807
aa(lp49
F406.81415929203536
aF413.62831858407077
aa(lp50
F405.8407079646018
aF411.6814159292036
aa(lp51
F404.8672566371681
aF409.7345132743362
aa(lp52
F403.89380530973455
aF407.78761061946904
aa(lp53
F402.92035398230087
aF405.84070796460173
aa(lp54
F401.94690265486724
aF403.89380530973455
aa(lp55
F400.9734513274337
aF401.94690265486736
aa(lp56
F400.0
aF400.0
aa(lp57
F400.0
aF400.0
aa(lp58
F398.05309734513276
aF398.05309734513276
aa(lp59
F396.1061946902655
aF396.1061946902655
aa(lp60
F394.1592920353982
aF394.1592920353982
aa(lp61
F392.21238938053096
aF392.21238938053096
aa(lp62
F390.2654867256637
aF390.2654867256637
aa(lp63
F388.3185840707965
aF388.3185840707965
aa(lp64
F386.3716814159292
aF386.3716814159292
aa(lp65
F384.42477876106193
aF384.42477876106193
aa(lp66
F382.4778761061947
aF382.4778761061947
aa(lp67
F380.53097345132744
aF380.53097345132744
aa(lp68
F378.5840707964602
aF377.87610619469024
aa(lp69
F376.6371681415929
aF374.95575221238937
aa(lp70
F374.69026548672565
aF372.0353982300885
aa(lp71
F372.7433628318584
aF369.11504424778764
aa(lp72
F370.79646017699116
aF366.1946902654867
aa(lp73
F368.8495575221239
aF363.27433628318585
aa(lp74
F366.9026548672566
aF360.353982300885
aa(lp75
F364.95575221238937
aF357.43362831858406
aa(lp76
F363.0088495575221
aF354.5132743362832
aa(lp77
F361.0619469026549
aF351.5929203539823
aa(lp78
F359.1150442477876
aF348.6725663716814
aa(lp79
F357.16814159292034
aF345.75221238938053
aa(lp80
F355.2212389380531
aF342.83185840707966
aa(lp81
F353.27433628318585
aF339.91150442477874
aa(lp82
F351.3274336283186
aF336.9911504424779
aa(lp83
F349.3805309734513
aF334.070796460177
aa(lp84
F347.43362831858406
aF331.15044247787614
aa(lp85
F345.4867256637168
aF328.2300884955752
aa(lp86
F343.53982300884957
aF325.30973451327435
aa(lp87
F341.5929203539823
aF322.3893805309734
aa(lp88
F339.82300884955754
aF319.646017699115
aa(lp89
F338.8495575221239
aF317.6991150442478
aa(lp90
F337.8761061946903
aF315.75221238938053
aa(lp91
F336.9026548672566
aF313.8053097345133
aa(lp92
F335.929203539823
aF311.85840707964604
aa(lp93
F334.95575221238937
aF309.91150442477874
aa(lp94
F333.98230088495575
aF307.9646017699115
aa(lp95
F333.0088495575221
aF306.01769911504425
aa(lp96
F332.0353982300885
aF304.070796460177
aa(lp97
F331.0619469026549
aF302.12389380530976
aa(lp98
F330.08849557522126
aF300.17699115044246
aa(lp99
F330.0
aF298.2300884955752
aa(lp100
F330.0
aF296.283185840708
aa(lp101
F330.0
aF294.3362831858407
aa(lp102
F330.0
aF292.3893805309734
aa(lp103
F330.0
aF290.4424778761062
aa(lp104
F330.0
aF288.49557522123894
aa(lp105
F330.0
aF286.5486725663717
aa(lp106
F330.0
aF284.60176991150445
aa(lp107
F330.0
aF282.65486725663715
aa(lp108
F330.0
aF280.7079646017699
aa(lp109
F330.0
aF278.76106194690266
aa(lp110
F330.0
aF276.8141592920354
aa(lp111
F330.0
aF274.86725663716817
aa(lp112
F330.0
aF272.92035398230087
aa(lp113
F330.0
aF270.9734513274336
aa(lp114
F330.0
aF269.0265486725664
aa(lp115
F330.0
aF267.07964601769913
aa(lp116
F330.0
aF265.13274336283183
aa(lp117
F330.0
aF263.1858407079646
aa(lp118
F330.0
aF261.23893805309734
aa(lp119
F430.0
aF140.79646017699113
aa(lp120
F428.58407079646014
aF138.58407079646017
aa(lp121
F426.6371681415929
aF136.6371681415929
aa(lp122
F424.69026548672565
aF134.69026548672568
aa(lp123
F422.7433628318584
aF132.7433628318584
aa(lp124
F420.79646017699116
aF130.79646017699116
aa(lp125
F418.8495575221239
aF128.8495575221239
aa(lp126
F416.9026548672566
aF126.90265486725663
aa(lp127
F414.9557522123894
aF124.9557522123894
aa(lp128
F413.0088495575221
aF123.00884955752215
aa(lp129
F411.0619469026549
aF121.06194690265488
aa(lp130
F409.11504424778764
aF120.0
aa(lp131
F407.16814159292034
aF120.0
aa(lp132
F405.2212389380531
aF120.0
aa(lp133
F403.27433628318585
aF120.0
aa(lp134
F401.3274336283186
aF120.0
aa(lp135
F399.38053097345136
aF120.0
aa(lp136
F397.43362831858406
aF120.0
aa(lp137
F395.4867256637168
aF120.0
aa(lp138
F393.53982300884957
aF120.0
aa(lp139
F391.5929203539823
aF120.0
aa(lp140
F389.46902654867256
aF120.0
aa(lp141
F386.5486725663717
aF120.0
aa(lp142
F383.62831858407077
aF120.0
aa(lp143
F380.7079646017699
aF120.0
aa(lp144
F377.787610619469
aF120.0
aa(lp145
F374.86725663716817
aF120.0
aa(lp146
F371.94690265486724
aF120.0
aa(lp147
F369.0265486725664
aF120.0
aa(lp148
F366.10619469026545
aF120.0
aa(lp149
F363.18584070796453
aF120.0
aa(lp150
F360.26548672566366
aF120.0
aa(lp151
F356.46017699115043
aF121.76991150442478
aa(lp152
F352.5663716814159
aF123.71681415929204
aa(lp153
F348.6725663716814
aF125.6637168141593
aa(lp154
F344.77876106194685
aF127.61061946902657
aa(lp155
F340.88495575221236
aF129.55752212389382
aa(lp156
F336.9911504424779
aF131.50442477876106
aa(lp157
F333.0973451327434
aF133.4513274336283
aa(lp158
F329.20353982300884
aF135.39823008849558
aa(lp159
F325.3097345132743
aF137.34513274336285
aa(lp160
F321.4159292035398
aF139.2920353982301
aa(lp161
F318.14159292035396
aF141.23893805309737
aa(lp162
F315.2212389380531
aF143.18584070796462
aa(lp163
F312.30088495575217
aF145.1327433628319
aa(lp164
F309.3805309734513
aF147.07964601769913
aa(lp165
F306.4601769911505
aF149.02654867256632
aa(lp166
F303.5398230088496
aF150.9734513274336
aa(lp167
F300.6194690265487
aF152.92035398230087
aa(lp168
F297.69911504424783
aF154.8672566371681
aa(lp169
F294.7787610619469
aF156.81415929203538
aa(lp170
F291.85840707964604
aF158.76106194690263
aa(lp171
F289.2920353982301
aF160.7079646017699
aa(lp172
F287.34513274336285
aF162.65486725663717
aa(lp173
F285.39823008849555
aF164.60176991150442
aa(lp174
F283.4513274336283
aF166.5486725663717
aa(lp175
F281.50442477876106
aF168.49557522123894
aa(lp176
F279.5575221238938
aF170.4424778761062
aa(lp177
F277.6106194690266
aF172.3893805309734
aa(lp178
F275.66371681415933
aF174.33628318584067
aa(lp179
F273.7168141592921
aF176.28318584070792
aa(lp180
F271.76991150442484
aF178.2300884955752
aa(lp181
F269.82300884955754
aF180.17699115044243
aa(lp182
F267.8761061946903
aF182.1238938053097
aa(lp183
F265.92920353982305
aF184.07079646017698
aa(lp184
F263.98230088495575
aF186.01769911504425
aa(lp185
F262.0353982300885
aF187.96460176991152
aa(lp186
F260.0884955752212
aF189.91150442477877
aa(lp187
F258.14159292035396
aF191.85840707964604
aa(lp188
F256.19469026548666
aF193.80530973451332
aa(lp189
F254.2477876106195
aF195.7522123893805
aa(lp190
F252.30088495575222
aF197.69911504424778
aa(lp191
F250.35398230088495
aF199.64601769911505
aa(lp192
F249.20353982300884
aF202.38938053097345
aa(lp193
F248.23008849557522
aF205.30973451327435
aa(lp194
F247.2566371681416
aF208.23008849557525
aa(lp195
F246.28318584070794
aF211.15044247787614
aa(lp196
F245.30973451327432
aF214.07079646017704
aa(lp197
F244.3362831858407
aF216.99115044247793
aa(lp198
F243.36283185840705
aF219.9115044247788
aa(lp199
F242.38938053097343
aF222.8318584070797
aa(lp200
F241.41592920353983
aF225.7522123893805
aa(lp201
F240.4424778761062
aF228.6725663716814
aa(lp202
F240.0
aF232.1238938053097
aa(lp203
F240.0
aF236.01769911504422
aa(lp204
F240.0
aF239.91150442477874
aa(lp205
F240.0
aF243.80530973451326
aa(lp206
F240.0
aF247.69911504424778
aa(lp207
F240.0
aF251.59292035398232
aa(lp208
F240.0
aF255.48672566371684
aa(lp209
F240.0
aF259.38053097345136
aa(lp210
F240.0
aF263.2743362831859
aa(lp211
F240.0
aF267.1681415929204
aa(lp212
F240.0
aF271.3274336283185
aa(lp213
F240.0
aF276.19469026548666
aa(lp214
F240.0
aF281.0619469026548
aa(lp215
F240.0
aF285.929203539823
aa(lp216
F240.0
aF290.79646017699116
aa(lp217
F240.0
aF295.66371681415933
aa(lp218
F240.0
aF300.5309734513275
aa(lp219
F240.0
aF305.39823008849567
aa(lp220
F240.0
aF310.26548672566383
aa(lp221
F240.0
aF315.132743362832
aag119
a(lp222
F430.0
aF143.71681415929203
aa(lp223
F430.0
aF146.63716814159292
aa(lp224
F430.0
aF149.55752212389382
aa(lp225
F430.0
aF152.47787610619466
aa(lp226
F430.0
aF155.39823008849555
aa(lp227
F430.0
aF158.31858407079645
aa(lp228
F430.0
aF161.2389380530973
aa(lp229
F430.0
aF164.1592920353982
aa(lp230
F430.0
aF167.0796460176991
aa(lp231
F430.0
aF169.99999999999994
aa(lp232
F428.05309734513276
aF171.94690265486724
aa(lp233
F426.1061946902655
aF173.8938053097345
aa(lp234
F424.15929203539827
aF175.84070796460176
aa(lp235
F422.21238938053096
aF177.78761061946904
aa(lp236
F420.2654867256637
aF179.73451327433628
aa(lp237
F418.3185840707965
aF181.68141592920352
aa(lp238
F416.37168141592923
aF183.62831858407077
aa(lp239
F414.42477876106193
aF185.57522123893804
aa(lp240
F412.4778761061947
aF187.52212389380531
aa(lp241
F410.53097345132744
aF189.4690265486726
aa(lp242
F407.87610619469024
aF191.41592920353983
aa(lp243
F404.95575221238937
aF193.36283185840708
aa(lp244
F402.0353982300885
aF195.30973451327432
aa(lp245
F399.1150442477876
aF197.2566371681416
aa(lp246
F396.1946902654867
aF199.20353982300887
aa(lp247
F393.2743362831858
aF201.1504424778761
aa(lp248
F390.353982300885
aF203.09734513274336
aa(lp249
F387.43362831858406
aF205.04424778761063
aa(lp250
F384.5132743362832
aF206.99115044247787
aa(lp251
F381.59292035398227
aF208.93805309734515
aa(lp252
F379.1150442477876
aF210.88495575221242
aa(lp253
F377.16814159292034
aF212.83185840707966
aa(lp254
F375.2212389380531
aF214.7787610619469
aa(lp255
F373.27433628318585
aF216.72566371681415
aa(lp256
F371.3274336283186
aF218.67256637168143
aa(lp257
F369.3805309734513
aF220.61946902654867
aa(lp258
F367.43362831858406
aF222.56637168141594
aa(lp259
F365.4867256637168
aF224.5132743362832
aa(lp260
F363.53982300884957
aF226.46017699115043
aa(lp261
F361.5929203539823
aF228.40707964601768
aa(lp262
F359.6460176991151
aF230.17699115044246
aa(lp263
F357.6991150442478
aF231.1504424778761
aa(lp264
F355.75221238938053
aF232.12389380530973
aa(lp265
F353.8053097345133
aF233.09734513274336
aa(lp266
F351.85840707964604
aF234.07079646017698
aa(lp267
F349.9115044247788
aF235.0442477876106
aa(lp268
F347.9646017699115
aF236.01769911504425
aa(lp269
F346.01769911504425
aF236.99115044247787
aa(lp270
F344.070796460177
aF237.9646017699115
aa(lp271
F342.12389380530976
aF238.93805309734512
aa(lp272
F340.17699115044246
aF239.91150442477877
aa(lp273
F339.11504424778764
aF241.76991150442478
aa(lp274
F338.14159292035396
aF243.71681415929203
aa(lp275
F337.16814159292034
aF245.6637168141593
aa(lp276
F336.1946902654867
aF247.61061946902655
aa(lp277
F335.2212389380531
aF249.5575221238938
aa(lp278
F334.24778761061947
aF251.50442477876106
aa(lp279
F333.27433628318585
aF253.4513274336283
aa(lp280
F332.3008849557522
aF255.39823008849558
aa(lp281
F331.3274336283186
aF257.34513274336285
aa(lp282
F330.353982300885
aF259.2920353982301
aag118
ag35
a(lp283
F418.5840707964602
aF432.8318584070796
aa(lp284
F417.6106194690266
aF434.77876106194685
aa(lp285
F416.63716814159295
aF436.7256637168141
aa(lp286
F415.66371681415933
aF438.6725663716814
aa(lp287
F414.69026548672565
aF440.61946902654864
aa(lp288
F413.716814159292
aF442.5663716814159
aa(lp289
F412.7433628318584
aF444.5132743362832
aa(lp290
F411.7699115044248
aF446.46017699115043
aa(lp291
F410.79646017699116
aF448.4070796460177
aa(lp292
F409.64601769911513
aF450.0
aa(lp293
F407.69911504424783
aF450.0
aa(lp294
F405.7522123893806
aF450.0
aa(lp295
F403.80530973451334
aF450.0
aa(lp296
F401.85840707964604
aF450.0
aa(lp297
F399.9115044247788
aF450.0
aa(lp298
F397.9646017699115
aF450.0
aa(lp299
F396.01769911504425
aF450.0
aa(lp300
F394.07079646017695
aF450.0
aa(lp301
F392.1238938053097
aF450.0
aa(lp302
F390.17699115044246
aF450.0
aa(lp303
F389.1150442477876
aF450.0
aa(lp304
F388.141592920354
aF450.0
aa(lp305
F387.1681415929204
aF450.0
aa(lp306
F386.1946902654867
aF450.0
aa(lp307
F385.2212389380531
aF450.0
aa(lp308
F384.24778761061947
aF450.0
aa(lp309
F383.27433628318585
aF450.0
aa(lp310
F382.3008849557522
aF450.0
aa(lp311
F381.3274336283186
aF450.0
aa(lp312
F380.3539823008849
aF450.0
aa(lp313
F378.14159292035396
aF449.3805309734513
aa(lp314
F375.2212389380531
aF448.4070796460177
aa(lp315
F372.3008849557523
aF447.4336283185841
aa(lp316
F369.3805309734514
aF446.4601769911505
aa(lp317
F366.4601769911505
aF445.4867256637168
aa(lp318
F363.5398230088496
aF444.5132743362832
aa(lp319
F360.6194690265487
aF443.53982300884957
aa(lp320
F357.69911504424783
aF442.56637168141594
aa(lp321
F354.7787610619469
aF441.5929203539823
aa(lp322
F351.85840707964604
aF440.6194690265487
aa(lp323
F348.9380530973451
aF439.6460176991151
aa(lp324
F346.01769911504425
aF438.6725663716814
aa(lp325
F343.0973451327433
aF437.6991150442478
aa(lp326
F340.17699115044246
aF436.72566371681415
aa(lp327
F337.25663716814165
aF435.75221238938053
aa(lp328
F334.3362831858407
aF434.7787610619469
aa(lp329
F331.41592920353986
aF433.8053097345133
aa(lp330
F328.49557522123894
aF432.83185840707966
aa(lp331
F325.575221238938
aF431.858407079646
aa(lp332
F322.65486725663715
aF430.88495575221236
aa(lp333
F319.7345132743362
aF429.8230088495575
aa(lp334
F316.81415929203536
aF427.87610619469024
aa(lp335
F313.89380530973443
aF425.929203539823
aa(lp336
F310.97345132743357
aF423.9823008849557
aa(lp337
F308.05309734513264
aF422.03539823008845
aa(lp338
F305.1327433628318
aF420.0884955752212
aa(lp339
F302.21238938053096
aF418.141592920354
aa(lp340
F299.2920353982301
aF416.1946902654867
aa(lp341
F296.37168141592923
aF414.24778761061947
aa(lp342
F293.4513274336283
aF412.3008849557522
aa(lp343
F290.53097345132744
aF410.3539823008849
aa(lp344
F288.4070796460177
aF407.6106194690265
aa(lp345
F286.46017699115043
aF404.69026548672565
aa(lp346
F284.5132743362832
aF401.7699115044247
aa(lp347
F282.5663716814159
aF398.84955752212386
aa(lp348
F280.61946902654864
aF395.929203539823
aa(lp349
F278.6725663716814
aF393.00884955752207
aa(lp350
F276.7256637168142
aF390.0884955752213
aa(lp351
F274.7787610619469
aF387.1681415929204
aa(lp352
F272.83185840707966
aF384.2477876106195
aa(lp353
F270.8849557522124
aF381.3274336283186
aa(lp354
F268.9380530973452
aF378.9380530973452
aa(lp355
F266.9911504424779
aF376.9911504424779
aa(lp356
F265.04424778761063
aF375.04424778761063
aa(lp357
F263.0973451327434
aF373.0973451327434
aa(lp358
F261.1504424778761
aF371.1504424778761
aa(lp359
F259.20353982300884
aF369.20353982300884
aa(lp360
F257.2566371681416
aF367.2566371681416
aa(lp361
F255.30973451327432
aF365.30973451327435
aa(lp362
F253.36283185840713
aF363.3628318584071
aa(lp363
F251.41592920353986
aF361.41592920353986
aa(lp364
F249.7345132743363
aF358.93805309734523
aa(lp365
F248.7610619469027
aF355.0442477876107
aa(lp366
F247.78761061946904
aF351.1504424778762
aa(lp367
F246.8141592920354
aF347.25663716814165
aa(lp368
F245.8407079646018
aF343.3628318584071
aa(lp369
F244.86725663716814
aF339.4690265486726
aa(lp370
F243.89380530973452
aF335.57522123893807
aa(lp371
F242.9203539823009
aF331.6814159292036
aa(lp372
F241.94690265486727
aF327.78761061946904
aa(lp373
F240.97345132743362
aF323.89380530973455
aa(lp374
F240.00000000000003
aF320.0000000000001
aag221
asS'pin_pts'
p375
(lp376
(lp377
g2
(g16
S'\xb4\x00\x00\x00\x00\x00\x00\x00'
p378
tp379
Rp380
ag2
(g16
S'Z\x00\x00\x00\x00\x00\x00\x00'
p381
tp382
Rp383
aa(lp384
g2
(g16
S'\xaa\x00\x00\x00\x00\x00\x00\x00'
p385
tp386
Rp387
ag2
(g16
S'\xf0\x00\x00\x00\x00\x00\x00\x00'
p388
tp389
Rp390
aa(lp391
g2
(g16
S'\xfa\x00\x00\x00\x00\x00\x00\x00'
p392
tp393
Rp394
ag2
(g16
S'<\x00\x00\x00\x00\x00\x00\x00'
p395
tp396
Rp397
aa(lp398
g2
(g16
S'<\x00\x00\x00\x00\x00\x00\x00'
p399
tp400
Rp401
ag2
(g16
S'\x8c\x00\x00\x00\x00\x00\x00\x00'
p402
tp403
Rp404
aa(lp405
g2
(g16
S'\x0e\x01\x00\x00\x00\x00\x00\x00'
p406
tp407
Rp408
ag2
(g16
S'F\x00\x00\x00\x00\x00\x00\x00'
p409
tp410
Rp411
aa(lp412
g2
(g16
S'\x96\x00\x00\x00\x00\x00\x00\x00'
p413
tp414
Rp415
ag2
(g16
S'P\x00\x00\x00\x00\x00\x00\x00'
p416
tp417
Rp418
aa(lp419
g2
(g16
S'\x0e\x01\x00\x00\x00\x00\x00\x00'
p420
tp421
Rp422
ag2
(g16
S'<\x00\x00\x00\x00\x00\x00\x00'
p423
tp424
Rp425
aa(lp426
g2
(g16
S'\xb4\x00\x00\x00\x00\x00\x00\x00'
p427
tp428
Rp429
ag2
(g16
S'\xf0\x00\x00\x00\x00\x00\x00\x00'
p430
tp431
Rp432
aa(lp433
g2
(g16
S'\xe6\x00\x00\x00\x00\x00\x00\x00'
p434
tp435
Rp436
ag2
(g16
S'd\x00\x00\x00\x00\x00\x00\x00'
p437
tp438
Rp439
aa(lp440
g2
(g16
S'\xfa\x00\x00\x00\x00\x00\x00\x00'
p441
tp442
Rp443
ag2
(g16
S'\x04\x01\x00\x00\x00\x00\x00\x00'
p444
tp445
Rp446
aa(lp447
g2
(g16
S'\xfa\x00\x00\x00\x00\x00\x00\x00'
p448
tp449
Rp450
ag2
(g16
S'\x8c\x00\x00\x00\x00\x00\x00\x00'
p451
tp452
Rp453
aa(lp454
g2
(g16
S'<\x00\x00\x00\x00\x00\x00\x00'
p455
tp456
Rp457
ag2
(g16
S'\xf0\x00\x00\x00\x00\x00\x00\x00'
p458
tp459
Rp460
aa(lp461
g2
(g16
S'\xbe\x00\x00\x00\x00\x00\x00\x00'
p462
tp463
Rp464
ag2
(g16
S'Z\x00\x00\x00\x00\x00\x00\x00'
p465
tp466
Rp467
aa(lp468
g2
(g16
S'\xf0\x00\x00\x00\x00\x00\x00\x00'
p469
tp470
Rp471
ag2
(g16
S'n\x00\x00\x00\x00\x00\x00\x00'
p472
tp473
Rp474
aa(lp475
g2
(g16
S'\xd2\x00\x00\x00\x00\x00\x00\x00'
p476
tp477
Rp478
ag2
(g16
S'P\x00\x00\x00\x00\x00\x00\x00'
p479
tp480
Rp481
aa(lp482
g2
(g16
S'\xc8\x00\x00\x00\x00\x00\x00\x00'
p483
tp484
Rp485
ag2
(g16
S'x\x00\x00\x00\x00\x00\x00\x00'
p486
tp487
Rp488
aa(lp489
g2
(g16
S'd\x00\x00\x00\x00\x00\x00\x00'
p490
tp491
Rp492
ag2
(g16
S'F\x00\x00\x00\x00\x00\x00\x00'
p493
tp494
Rp495
aa(lp496
g2
(g16
S'\x18\x01\x00\x00\x00\x00\x00\x00'
p497
tp498
Rp499
ag2
(g16
S'\xdc\x00\x00\x00\x00\x00\x00\x00'
p500
tp501
Rp502
aa(lp503
g2
(g16
S'x\x00\x00\x00\x00\x00\x00\x00'
p504
tp505
Rp506
ag2
(g16
S'P\x00\x00\x00\x00\x00\x00\x00'
p507
tp508
Rp509
aa(lp510
g2
(g16
S'\xb4\x00\x00\x00\x00\x00\x00\x00'
p511
tp512
Rp513
ag2
(g16
S'<\x00\x00\x00\x00\x00\x00\x00'
p514
tp515
Rp516
aa(lp517
g2
(g16
S'F\x00\x00\x00\x00\x00\x00\x00'
p518
tp519
Rp520
ag2
(g16
S'\xa0\x00\x00\x00\x00\x00\x00\x00'
p521
tp522
Rp523
aa(lp524
g2
(g16
S'F\x00\x00\x00\x00\x00\x00\x00'
p525
tp526
Rp527
ag2
(g16
S'\x96\x00\x00\x00\x00\x00\x00\x00'
p528
tp529
Rp530
aa(lp531
g2
(g16
S'2\x00\x00\x00\x00\x00\x00\x00'
p532
tp533
Rp534
ag2
(g16
S'\x82\x00\x00\x00\x00\x00\x00\x00'
p535
tp536
Rp537
aa(lp538
g2
(g16
S'2\x00\x00\x00\x00\x00\x00\x00'
p539
tp540
Rp541
ag2
(g16
S'2\x00\x00\x00\x00\x00\x00\x00'
p542
tp543
Rp544
aa(lp545
g2
(g16
S'\xdc\x00\x00\x00\x00\x00\x00\x00'
p546
tp547
Rp548
ag2
(g16
S'\x04\x01\x00\x00\x00\x00\x00\x00'
p549
tp550
Rp551
aag13
a(lp552
g2
(g16
S'\x04\x01\x00\x00\x00\x00\x00\x00'
p553
tp554
Rp555
ag2
(g16
S'\x8c\x00\x00\x00\x00\x00\x00\x00'
p556
tp557
Rp558
aa(lp559
g2
(g16
S'\xdc\x00\x00\x00\x00\x00\x00\x00'
p560
tp561
Rp562
ag2
(g16
S'2\x00\x00\x00\x00\x00\x00\x00'
p563
tp564
Rp565
aa(lp566
g2
(g16
S'\xa0\x00\x00\x00\x00\x00\x00\x00'
p567
tp568
Rp569
ag2
(g16
S'\x0e\x01\x00\x00\x00\x00\x00\x00'
p570
tp571
Rp572
aa(lp573
g2
(g16
S'\x04\x01\x00\x00\x00\x00\x00\x00'
p574
tp575
Rp576
ag2
(g16
S'n\x00\x00\x00\x00\x00\x00\x00'
p577
tp578
Rp579
aasS'trajectory'
p580
(lp581
(lp582
g35
ag36
ag37
ag38
ag39
ag40
ag41
ag42
ag43
ag44
ag45
ag46
ag47
ag48
ag49
ag50
ag51
ag52
ag53
ag54
ag55
ag56
ag57
ag58
ag59
ag60
ag61
ag62
ag63
ag64
ag65
ag66
ag67
ag68
ag69
ag70
ag71
ag72
ag73
ag74
ag75
ag76
ag77
ag78
ag79
ag80
ag81
ag82
ag83
ag84
ag85
ag86
ag87
ag88
ag89
ag90
ag91
ag92
ag93
ag94
ag95
ag96
ag97
ag98
ag99
ag100
ag101
ag102
ag103
ag104
ag105
ag106
ag107
ag108
ag109
ag110
ag111
ag112
ag113
ag114
ag115
ag116
ag117
ag118
aa(lp583
g35
ag283
ag284
ag285
ag286
ag287
ag288
ag289
ag290
ag291
ag292
ag293
ag294
ag295
ag296
ag297
ag298
ag299
ag300
ag301
ag302
ag303
ag304
ag305
ag306
ag307
ag308
ag309
ag310
ag311
ag312
ag313
ag314
ag315
ag316
ag317
ag318
ag319
ag320
ag321
ag322
ag323
ag324
ag325
ag326
ag327
ag328
ag329
ag330
ag331
ag332
ag333
ag334
ag335
ag336
ag337
ag338
ag339
ag340
ag341
ag342
ag343
ag344
ag345
ag346
ag347
ag348
ag349
ag350
ag351
ag352
ag353
ag354
ag355
ag356
ag357
ag358
ag359
ag360
ag361
ag362
ag363
ag364
ag365
ag366
ag367
ag368
ag369
ag370
ag371
ag372
ag373
ag374
ag221
aa(lp584
g119
ag120
ag121
ag122
ag123
ag124
ag125
ag126
ag127
ag128
ag129
ag130
ag131
ag132
ag133
ag134
ag135
ag136
ag137
ag138
ag139
ag140
ag141
ag142
ag143
ag144
ag145
ag146
ag147
ag148
ag149
ag150
ag151
ag152
ag153
ag154
ag155
ag156
ag157
ag158
ag159
ag160
ag161
ag162
ag163
ag164
ag165
ag166
ag167
ag168
ag169
ag170
ag171
ag172
ag173
ag174
ag175
ag176
ag177
ag178
ag179
ag180
ag181
ag182
ag183
ag184
ag185
ag186
ag187
ag188
ag189
ag190
ag191
ag192
ag193
ag194
ag195
ag196
ag197
ag198
ag199
ag200
ag201
ag202
ag203
ag204
ag205
ag206
ag207
ag208
ag209
ag210
ag211
ag212
ag213
ag214
ag215
ag216
ag217
ag218
ag219
ag220
ag221
aa(lp585
g119
ag222
ag223
ag224
ag225
ag226
ag227
ag228
ag229
ag230
ag231
ag232
ag233
ag234
ag235
ag236
ag237
ag238
ag239
ag240
ag241
ag242
ag243
ag244
ag245
ag246
ag247
ag248
ag249
ag250
ag251
ag252
ag253
ag254
ag255
ag256
ag257
ag258
ag259
ag260
ag261
ag262
ag263
ag264
ag265
ag266
ag267
ag268
ag269
ag270
ag271
ag272
ag273
ag274
ag275
ag276
ag277
ag278
ag279
ag280
ag281
ag282
ag118
aasS'pin_scores'
p586
(lp587
g2
(g6
S'\x00\x00\x00\x00\x00\xc0Q\xc0'
p588
tp589
Rp590
ag2
(g6
S'\x00\x00\x00\x00\x00\x80P\xc0'
p591
tp592
Rp593
ag2
(g6
S'\x00\x00\x00\x00\x00\x00R\xc0'
p594
tp595
Rp596
ag2
(g6
S'\x00\x00\x00\x00\x00\xc0Q\xc0'
p597
tp598
Rp599
ag2
(g6
S'\x00\x00\x00\x00\x00\xc0R\xc0'
p600
tp601
Rp602
ag2
(g6
S'\x00\x00\x00\x00\x00\xc0Q\xc0'
p603
tp604
Rp605
ag2
(g6
S'\x00\x00\x00\x00\x00@S\xc0'
p606
tp607
Rp608
ag2
(g6
S'\x00\x00\x00\x00\x00\xc0P\xc0'
p609
tp610
Rp611
ag2
(g6
S'\x00\x00\x00\x00\x00\x00R\xc0'
p612
tp613
Rp614
ag2
(g6
S'\x00\x00\x00\x00\x00@Q\xc0'
p615
tp616
Rp617
ag2
(g6
S'\x00\x00\x00\x00\x00@R\xc0'
p618
tp619
Rp620
ag2
(g6
S'\x00\x00\x00\x00\x00\x80Q\xc0'
p621
tp622
Rp623
ag2
(g6
S'\x00\x00\x00\x00\x00\x80Q\xc0'
p624
tp625
Rp626
ag2
(g6
S'\x00\x00\x00\x00\x00\xc0R\xc0'
p627
tp628
Rp629
ag2
(g6
S'\x00\x00\x00\x00\x00\xc0Q\xc0'
p630
tp631
Rp632
ag2
(g6
S'\x00\x00\x00\x00\x00\xc0Q\xc0'
p633
tp634
Rp635
ag2
(g6
S'\x00\x00\x00\x00\x00\xc0Q\xc0'
p636
tp637
Rp638
ag2
(g6
S'\x00\x00\x00\x00\x00@P\xc0'
p639
tp640
Rp641
ag2
(g6
S'\x00\x00\x00\x00\x00\x80Q\xc0'
p642
tp643
Rp644
ag2
(g6
S'\x00\x00\x00\x00\x00\xc0Q\xc0'
p645
tp646
Rp647
ag2
(g6
S'\x00\x00\x00\x00\x00\xc0Q\xc0'
p648
tp649
Rp650
ag2
(g6
S'\x00\x00\x00\x00\x00\xc0Q\xc0'
p651
tp652
Rp653
ag2
(g6
S'\x00\x00\x00\x00\x00\xc0Q\xc0'
p654
tp655
Rp656
ag2
(g6
S'\x00\x00\x00\x00\x00@S\xc0'
p657
tp658
Rp659
ag2
(g6
S'\x00\x00\x00\x00\x00\x00O\xc0'
p660
tp661
Rp662
ag2
(g6
S'\x00\x00\x00\x00\x00\x00R\xc0'
p663
tp664
Rp665
ag2
(g6
S'\x00\x00\x00\x00\x00\xc0R\xc0'
p666
tp667
Rp668
ag2
(g6
S'\x00\x00\x00\x00\x00\x80P\xc0'
p669
tp670
Rp671
ag2
(g6
S'\x00\x00\x00\x00\x00\xc0R\xc0'
p672
tp673
Rp674
asS'best_score'
p675
g662
s.