(dp0
S'worst_pin_pt'
p1
(lp2
cnumpy.core.multiarray
scalar
p3
(cnumpy
dtype
p4
(S'i8'
p5
I0
I1
tp6
Rp7
(I3
S'<'
p8
NNNI-1
I-1
I0
tp9
bS'\x18\x01\x00\x00\x00\x00\x00\x00'
p10
tp11
Rp12
ag3
(g7
S'P\x00\x00\x00\x00\x00\x00\x00'
p13
tp14
Rp15
asS'pin_scores'
p16
(lp17
I27
aI24
aI29
aI27
aI28
aI28
aI30
aI24
aI24
aI27
aI24
aI25
aI25
aI28
aI29
aI27
aI28
aI25
aI25
aI25
aI24
aI31
aI24
aI27
aI25
aI24
aI24
aI24
aI29
aI27
asS'best_score'
p18
I31
sS'init_score'
p19
I0
sS'worst_score'
p20
I14
sS'totalpts'
p21
I51
sS'pin_pts'
p22
(lp23
(lp24
g3
(g7
S'\x8c\x00\x00\x00\x00\x00\x00\x00'
p25
tp26
Rp27
ag3
(g7
S'\x0e\x01\x00\x00\x00\x00\x00\x00'
p28
tp29
Rp30
aa(lp31
g3
(g7
S'\xb4\x00\x00\x00\x00\x00\x00\x00'
p32
tp33
Rp34
ag3
(g7
S'Z\x00\x00\x00\x00\x00\x00\x00'
p35
tp36
Rp37
aa(lp38
g3
(g7
S'\xaa\x00\x00\x00\x00\x00\x00\x00'
p39
tp40
Rp41
ag3
(g7
S'\x0e\x01\x00\x00\x00\x00\x00\x00'
p42
tp43
Rp44
aa(lp45
g3
(g7
S'\x8c\x00\x00\x00\x00\x00\x00\x00'
p46
tp47
Rp48
ag3
(g7
S'"\x01\x00\x00\x00\x00\x00\x00'
p49
tp50
Rp51
aa(lp52
g3
(g7
S'\x0e\x01\x00\x00\x00\x00\x00\x00'
p53
tp54
Rp55
ag3
(g7
S'x\x00\x00\x00\x00\x00\x00\x00'
p56
tp57
Rp58
aa(lp59
g3
(g7
S'\xd2\x00\x00\x00\x00\x00\x00\x00'
p60
tp61
Rp62
ag3
(g7
S'\xf0\x00\x00\x00\x00\x00\x00\x00'
p63
tp64
Rp65
aa(lp66
g3
(g7
S'\x18\x01\x00\x00\x00\x00\x00\x00'
p67
tp68
Rp69
ag3
(g7
S'\xe6\x00\x00\x00\x00\x00\x00\x00'
p70
tp71
Rp72
aag2
a(lp73
g3
(g7
S'P\x00\x00\x00\x00\x00\x00\x00'
p74
tp75
Rp76
ag3
(g7
S'd\x00\x00\x00\x00\x00\x00\x00'
p77
tp78
Rp79
aa(lp80
g3
(g7
S'F\x00\x00\x00\x00\x00\x00\x00'
p81
tp82
Rp83
ag3
(g7
S'\x0e\x01\x00\x00\x00\x00\x00\x00'
p84
tp85
Rp86
aa(lp87
g3
(g7
S'<\x00\x00\x00\x00\x00\x00\x00'
p88
tp89
Rp90
ag3
(g7
S'\x82\x00\x00\x00\x00\x00\x00\x00'
p91
tp92
Rp93
aa(lp94
g3
(g7
S'<\x00\x00\x00\x00\x00\x00\x00'
p95
tp96
Rp97
ag3
(g7
S'\xdc\x00\x00\x00\x00\x00\x00\x00'
p98
tp99
Rp100
aa(lp101
g3
(g7
S'\xfa\x00\x00\x00\x00\x00\x00\x00'
p102
tp103
Rp104
ag3
(g7
S'F\x00\x00\x00\x00\x00\x00\x00'
p105
tp106
Rp107
aa(lp108
g3
(g7
S'\xa0\x00\x00\x00\x00\x00\x00\x00'
p109
tp110
Rp111
ag3
(g7
S'\x0e\x01\x00\x00\x00\x00\x00\x00'
p112
tp113
Rp114
aa(lp115
g3
(g7
S'\xb4\x00\x00\x00\x00\x00\x00\x00'
p116
tp117
Rp118
ag3
(g7
S'\x0e\x01\x00\x00\x00\x00\x00\x00'
p119
tp120
Rp121
aa(lp122
g3
(g7
S'2\x00\x00\x00\x00\x00\x00\x00'
p123
tp124
Rp125
ag3
(g7
S'\x04\x01\x00\x00\x00\x00\x00\x00'
p126
tp127
Rp128
aa(lp129
g3
(g7
S'"\x01\x00\x00\x00\x00\x00\x00'
p130
tp131
Rp132
ag3
(g7
S'\x0e\x01\x00\x00\x00\x00\x00\x00'
p133
tp134
Rp135
aa(lp136
g3
(g7
S'n\x00\x00\x00\x00\x00\x00\x00'
p137
tp138
Rp139
ag3
(g7
S'2\x00\x00\x00\x00\x00\x00\x00'
p140
tp141
Rp142
aa(lp143
g3
(g7
S'\xf0\x00\x00\x00\x00\x00\x00\x00'
p144
tp145
Rp146
ag3
(g7
S'Z\x00\x00\x00\x00\x00\x00\x00'
p147
tp148
Rp149
aa(lp150
g3
(g7
S'\x04\x01\x00\x00\x00\x00\x00\x00'
p151
tp152
Rp153
ag3
(g7
S'Z\x00\x00\x00\x00\x00\x00\x00'
p154
tp155
Rp156
aa(lp157
g3
(g7
S'P\x00\x00\x00\x00\x00\x00\x00'
p158
tp159
Rp160
ag3
(g7
S'\x82\x00\x00\x00\x00\x00\x00\x00'
p161
tp162
Rp163
aa(lp164
g3
(g7
S'\xfa\x00\x00\x00\x00\x00\x00\x00'
p165
tp166
Rp167
ag3
(g7
S'\x0e\x01\x00\x00\x00\x00\x00\x00'
p168
tp169
Rp170
aa(lp171
g3
(g7
S'P\x00\x00\x00\x00\x00\x00\x00'
p172
tp173
Rp174
ag3
(g7
S'n\x00\x00\x00\x00\x00\x00\x00'
p175
tp176
Rp177
aa(lp178
g3
(g7
S'\xb4\x00\x00\x00\x00\x00\x00\x00'
p179
tp180
Rp181
ag3
(g7
S'2\x00\x00\x00\x00\x00\x00\x00'
p182
tp183
Rp184
aa(lp185
g3
(g7
S'\xf0\x00\x00\x00\x00\x00\x00\x00'
p186
tp187
Rp188
ag3
(g7
S'n\x00\x00\x00\x00\x00\x00\x00'
p189
tp190
Rp191
aa(lp192
g3
(g7
S'2\x00\x00\x00\x00\x00\x00\x00'
p193
tp194
Rp195
ag3
(g7
S'\xaa\x00\x00\x00\x00\x00\x00\x00'
p196
tp197
Rp198
aa(lp199
g3
(g7
S'\xb4\x00\x00\x00\x00\x00\x00\x00'
p200
tp201
Rp202
ag3
(g7
S'<\x00\x00\x00\x00\x00\x00\x00'
p203
tp204
Rp205
aa(lp206
g3
(g7
S'F\x00\x00\x00\x00\x00\x00\x00'
p207
tp208
Rp209
ag3
(g7
S'<\x00\x00\x00\x00\x00\x00\x00'
p210
tp211
Rp212
aa(lp213
g3
(g7
S'\xdc\x00\x00\x00\x00\x00\x00\x00'
p214
tp215
Rp216
ag3
(g7
S'\xfa\x00\x00\x00\x00\x00\x00\x00'
p217
tp218
Rp219
aa(lp220
g3
(g7
S'\x18\x01\x00\x00\x00\x00\x00\x00'
p221
tp222
Rp223
ag3
(g7
S'\x96\x00\x00\x00\x00\x00\x00\x00'
p224
tp225
Rp226
aasS'trajectory'
p227
(lp228
(lp229
(lp230
F380.0
aF400.0
aa(lp231
F378.0564263322884
aF398.7852664576802
aa(lp232
F376.1128526645768
aF397.5705329153605
aa(lp233
F374.1692789968652
aF396.3557993730407
aa(lp234
F372.2257053291536
aF395.141065830721
aa(lp235
F370.282131661442
aF393.9263322884012
aa(lp236
F368.33855799373043
aF392.7115987460815
aa(lp237
F366.3949843260188
aF391.49686520376173
aa(lp238
F364.4514106583072
aF390.282131661442
aa(lp239
F362.5078369905956
aF389.06739811912223
aa(lp240
F360.564263322884
aF387.8526645768025
aa(lp241
F357.9310344827586
aF386.63793103448273
aa(lp242
F355.01567398119124
aF385.423197492163
aa(lp243
F352.1003134796238
aF384.20846394984324
aa(lp244
F349.1849529780564
aF382.9937304075235
aa(lp245
F346.26959247648904
aF381.77899686520374
aa(lp246
F343.3542319749216
aF380.564263322884
aa(lp247
F340.43887147335425
aF379.34952978056424
aa(lp248
F337.52351097178683
aF378.1347962382445
aa(lp249
F334.6081504702194
aF376.92006269592474
aa(lp250
F331.69278996865205
aF375.705329153605
aa(lp251
F328.36990595611286
aF374.49059561128524
aa(lp252
F324.48275862068965
aF373.2758620689655
aa(lp253
F320.59561128526644
aF372.06112852664575
aa(lp254
F316.70846394984324
aF370.846394984326
aa(lp255
F312.8213166144201
aF369.63166144200625
aa(lp256
F308.9341692789969
aF368.4169278996865
aa(lp257
F305.04702194357367
aF367.20219435736675
aa(lp258
F301.15987460815046
aF365.98746081504703
aa(lp259
F297.27272727272725
aF364.77272727272725
aa(lp260
F293.3855799373041
aF363.55799373040753
aa(lp261
F289.62382445141066
aF362.18652037617557
aa(lp262
F286.70846394984324
aF359.75705329153607
aa(lp263
F283.7931034482759
aF357.32758620689657
aa(lp264
F280.87774294670845
aF354.89811912225707
aa(lp265
F277.9623824451411
aF352.4686520376176
aa(lp266
F275.04702194357367
aF350.0391849529781
aa(lp267
F272.13166144200625
aF347.6097178683386
aa(lp268
F269.2163009404389
aF345.1802507836991
aa(lp269
F266.30094043887146
aF342.7507836990596
aa(lp270
F263.3855799373041
aF340.3213166144201
aa(lp271
F260.4702194357367
aF337.89184952978053
aa(lp272
F259.1849529780564
aF336.48119122257054
aa(lp273
F258.2131661442006
aF335.26645768025077
aa(lp274
F257.2413793103448
aF334.05172413793105
aa(lp275
F256.26959247648904
aF332.83699059561127
aa(lp276
F255.29780564263322
aF331.62225705329155
aa(lp277
F254.32601880877743
aF330.40752351097177
aa(lp278
F253.35423197492162
aF329.19278996865205
aa(lp279
F252.38244514106583
aF327.9780564263323
aa(lp280
F251.41065830721004
aF326.76332288401255
aa(lp281
F250.43887147335423
aF325.5485893416928
aa(lp282
F249.46708463949844
aF323.0015673981191
aa(lp283
F248.49529780564262
aF319.3573667711599
aa(lp284
F247.52351097178683
aF315.7131661442006
aa(lp285
F246.55172413793105
aF312.0689655172414
aa(lp286
F245.57993730407523
aF308.4247648902821
aa(lp287
F244.60815047021944
aF304.7805642633229
aa(lp288
F243.63636363636363
aF301.1363636363636
aa(lp289
F242.66457680250784
aF297.4921630094044
aa(lp290
F241.69278996865205
aF293.84796238244513
aa(lp291
F240.72100313479623
aF290.2037617554859
aa(lp292
F240.0
aF286.87304075235113
aa(lp293
F240.0
aF284.4435736677116
aa(lp294
F240.0
aF282.0141065830721
aa(lp295
F240.0
aF279.58463949843264
aa(lp296
F240.0
aF277.1551724137931
aa(lp297
F240.0
aF274.7257053291536
aa(lp298
F240.0
aF272.2962382445141
aa(lp299
F240.0
aF269.8667711598746
aa(lp300
F240.0
aF267.43730407523515
aa(lp301
F240.0
aF265.0078369905956
aa(lp302
F240.0
aF262.5783699059561
aa(lp303
F242.82131661442006
aF258.9733542319749
aa(lp304
F245.73667711598745
aF255.32915360501568
aa(lp305
F248.65203761755484
aF251.68495297805646
aa(lp306
F251.56739811912226
aF248.04075235109718
aa(lp307
F254.48275862068965
aF244.39655172413794
aa(lp308
F257.39811912225707
aF240.7523510971787
aa(lp309
F260.31347962382443
aF237.10815047021944
aa(lp310
F263.22884012539186
aF233.4639498432602
aa(lp311
F266.1442006269592
aF229.81974921630095
aa(lp312
F269.05956112852664
aF226.17554858934167
aa(lp313
F272.63322884012535
aF224.17711598746084
aa(lp314
F276.52037617554856
aF222.96238244514106
aa(lp315
F280.4075235109718
aF221.7476489028213
aa(lp316
F284.294670846395
aF220.53291536050156
aa(lp317
F288.1818181818182
aF219.3181818181818
aa(lp318
F292.0689655172414
aF218.10344827586206
aa(lp319
F295.9561128526646
aF216.88871473354232
aa(lp320
F299.84326018808775
aF215.67398119122257
aa(lp321
F303.730407523511
aF214.45924764890282
aa(lp322
F307.6175548589342
aF213.24451410658307
aa(lp323
F311.5047021943574
aF212.5
aa(lp324
F315.3918495297806
aF212.5
aa(lp325
F319.2789968652038
aF212.5
aa(lp326
F323.166144200627
aF212.5
aa(lp327
F327.05329153605015
aF212.5
aa(lp328
F330.94043887147336
aF212.5
aa(lp329
F334.82758620689657
aF212.5
aa(lp330
F338.7147335423197
aF212.5
aa(lp331
F342.60188087774293
aF212.5
aa(lp332
F346.48902821316614
aF212.5
aa(lp333
F350.282131661442
aF212.5
aa(lp334
F353.1974921630094
aF212.5
aa(lp335
F356.1128526645768
aF212.5
aa(lp336
F359.0282131661442
aF212.5
aa(lp337
F361.9435736677116
aF212.5
aa(lp338
F364.858934169279
aF212.5
aa(lp339
F367.7742946708464
aF212.5
aa(lp340
F370.6896551724138
aF212.5
aa(lp341
F373.60501567398114
aF212.5
aa(lp342
F376.52037617554856
aF212.5
aa(lp343
F379.4357366771159
aF212.5
aa(lp344
F382.35109717868335
aF212.5
aa(lp345
F385.26645768025077
aF212.5
aa(lp346
F388.1818181818182
aF212.5
aa(lp347
F391.09717868338555
aF212.5
aa(lp348
F394.01253918495297
aF212.5
aa(lp349
F396.9278996865204
aF212.5
aa(lp350
F399.84326018808775
aF212.5
aa(lp351
F402.7586206896552
aF212.5
aa(lp352
F405.6739811912226
aF212.5
aa(lp353
F408.58934169278996
aF212.5
aa(lp354
F411.0031347962382
aF211.8730407523511
aa(lp355
F412.94670846394985
aF210.65830721003135
aa(lp356
F414.8902821316615
aF209.44357366771158
aa(lp357
F416.83385579937305
aF208.22884012539186
aa(lp358
F418.77742946708463
aF207.0141065830721
aa(lp359
F420.72100313479626
aF205.79937304075233
aa(lp360
F422.66457680250784
aF204.5846394984326
aa(lp361
F424.60815047021947
aF203.36990595611286
aa(lp362
F426.55172413793105
aF202.15517241379308
aa(lp363
F428.4952978056427
aF200.94043887147333
aa(lp364
F430.0
aF199.4514106583072
aa(lp365
F430.0
aF197.0219435736677
aa(lp366
F430.0
aF194.59247648902817
aa(lp367
F430.0
aF192.16300940438873
aa(lp368
F430.0
aF189.7335423197492
aa(lp369
F430.0
aF187.3040752351097
aa(lp370
F430.0
aF184.87460815047024
aa(lp371
F430.0
aF182.44514106583074
aa(lp372
F430.0
aF180.0156739811912
aa(lp373
F430.0
aF177.58620689655172
aa(lp374
F430.0
aF175.15673981191225
aa(lp375
F429.09090909090907
aF172.72727272727272
aa(lp376
F428.1191222570533
aF170.29780564263322
aa(lp377
F427.1473354231975
aF167.86833855799375
aa(lp378
F426.1755485893417
aF165.43887147335425
aa(lp379
F425.2037617554859
aF163.00940438871473
aa(lp380
F424.2319749216301
aF160.57993730407526
aa(lp381
F423.2601880877743
aF158.15047021943576
aa(lp382
F422.2884012539185
aF155.72100313479626
aa(lp383
F421.3166144200627
aF153.29153605015674
aa(lp384
F420.3448275862069
aF150.86206896551727
aa(lp385
F418.11912225705333
aF149.21630094043888
aa(lp386
F415.2037617554859
aF148.00156739811914
aa(lp387
F412.28840125391855
aF146.7868338557994
aa(lp388
F409.37304075235113
aF145.57210031347964
aa(lp389
F406.4576802507837
aF144.3573667711599
aa(lp390
F403.54231974921635
aF143.14263322884014
aa(lp391
F400.6269592476489
aF141.9278996865204
aa(lp392
F397.7115987460815
aF140.71316614420064
aa(lp393
F394.7962382445141
aF139.49843260188086
aa(lp394
F391.88087774294667
aF138.28369905956112
aa(lp395
F388.6206896551723
aF137.5
aa(lp396
F384.7335423197493
aF137.5
aa(lp397
F380.846394984326
aF137.5
aa(lp398
F376.9592476489028
aF137.5
aa(lp399
F373.0721003134796
aF137.5
aa(lp400
F369.1849529780564
aF137.5
aa(lp401
F365.29780564263314
aF137.5
aa(lp402
F361.4106583072101
aF137.5
aa(lp403
F357.52351097178683
aF137.5
aa(lp404
F353.6363636363636
aF137.5
aa(lp405
F349.7492163009404
aF137.5
aa(lp406
F345.8620689655172
aF137.5
aa(lp407
F341.97492163009395
aF137.5
aa(lp408
F338.08777429467074
aF137.5
aa(lp409
F334.20062695924764
aF137.5
aa(lp410
F330.31347962382443
aF137.5
aa(lp411
F326.4263322884012
aF137.5
aa(lp412
F322.539184952978
aF137.5
aa(lp413
F318.6520376175548
aF137.5
aa(lp414
F314.76489028213155
aF137.5
aa(lp415
F310.87774294670834
aF137.5
aa(lp416
F307.74294670846393
aF138.44043887147336
aa(lp417
F304.82758620689657
aF139.6551724137931
aa(lp418
F301.91222570532915
aF140.86990595611286
aa(lp419
F298.99686520376173
aF142.0846394984326
aa(lp420
F296.0815047021943
aF143.29937304075236
aa(lp421
F293.16614420062695
aF144.5141065830721
aa(lp422
F290.2507836990595
aF145.72884012539186
aa(lp423
F287.3354231974922
aF146.94357366771158
aa(lp424
F284.4200626959248
aF148.15830721003132
aa(lp425
F281.5047021943574
aF149.37304075235107
aa(lp426
F279.05956112852664
aF150.58777429467085
aa(lp427
F277.11598746081506
aF151.8025078369906
aa(lp428
F275.17241379310343
aF153.01724137931035
aa(lp429
F273.2288401253919
aF154.23197492163007
aa(lp430
F271.2852664576803
aF155.44670846394982
aa(lp431
F269.34169278996865
aF156.66144200626957
aa(lp432
F267.39811912225707
aF157.87617554858934
aa(lp433
F265.45454545454544
aF159.0909090909091
aa(lp434
F263.51097178683386
aF160.30564263322884
aa(lp435
F261.56739811912223
aF161.5203761755486
aa(lp436
F259.24764890282137
aF163.20532915360496
aa(lp437
F255.36050156739816
aF166.8495297805642
aa(lp438
F251.47335423197495
aF170.4937304075235
aa(lp439
F247.58620689655172
aF174.13793103448276
aa(lp440
F243.6990595611285
aF177.78213166144204
aa(lp441
F239.81191222570527
aF181.4263322884013
aa(lp442
F235.92476489028206
aF185.07053291536056
aa(lp443
F232.03761755485897
aF188.71473354231972
aa(lp444
F228.15047021943576
aF192.358934169279
aa(lp445
F224.26332288401252
aF196.00313479623827
aa(lp446
F220.37617554858932
aF199.64733542319752
aa(lp447
F218.24451410658304
aF203.2915360501568
aa(lp448
F216.30094043887144
aF206.93573667711604
aa(lp449
F214.35736677115992
aF210.57993730407517
aa(lp450
F212.4137931034483
aF214.22413793103442
aa(lp451
F210.4702194357367
aF217.8683385579937
aa(lp452
F208.5266457680251
aF221.51253918495294
aa(lp453
F206.5830721003135
aF225.1567398119122
aa(lp454
F204.6394984326019
aF228.80094043887146
aa(lp455
F202.6959247648903
aF232.4451410658307
aa(lp456
F200.75235109717875
aF236.08934169278984
aa(lp457
F199.40438871473359
aF240.47805642633213
aa(lp458
F198.43260188087777
aF245.33699059561116
aa(lp459
F197.46081504702195
aF250.1959247648902
aa(lp460
F196.48902821316616
aF255.0548589341692
aa(lp461
F195.51724137931035
aF259.91379310344826
aa(lp462
F194.54545454545453
aF264.77272727272725
aa(lp463
F193.57366771159877
aF269.63166144200613
aa(lp464
F192.60188087774296
aF274.49059561128513
aa(lp465
F191.63009404388717
aF279.3495297805642
aa(lp466
F190.65830721003135
aF284.20846394984324
aa(lp467
F190.31347962382443
aF288.6755485893417
aa(lp468
F191.28526645768025
aF292.3197492163009
aa(lp469
F192.25705329153607
aF295.9639498432602
aa(lp470
F193.22884012539183
aF299.60815047021936
aa(lp471
F194.20062695924764
aF303.25235109717863
aa(lp472
F195.17241379310343
aF306.8965517241379
aa(lp473
F196.14420062695925
aF310.5407523510972
aa(lp474
F197.11598746081506
aF314.18495297805646
aa(lp475
F198.08777429467085
aF317.82915360501573
aa(lp476
F199.05956112852664
aF321.47335423197484
aa(lp477
F200.06269592476485
aF325.15673981191213
aa(lp478
F202.00626959247649
aF330.0156739811912
aa(lp479
F203.9498432601881
aF334.8746081504702
aa(lp480
F205.8934169278997
aF339.73354231974923
aa(lp481
F207.8369905956113
aF344.5924764890283
aa(lp482
F209.7805642633229
aF349.4514106583073
aa(lp483
F211.72413793103445
aF354.31034482758616
aa(lp484
F213.66771159874608
aF359.16927899686516
aa(lp485
F215.61128526645768
aF364.0282131661442
aa(lp486
F217.5548589341693
aF368.8871473354232
aa(lp487
F219.4984326018809
aF373.74608150470226
aa(lp488
F221.4420062695925
aF376.8025078369906
aa(lp489
F223.38557993730413
aF379.2319749216301
aa(lp490
F225.32915360501568
aF381.66144200626957
aa(lp491
F227.27272727272728
aF384.09090909090907
aa(lp492
F229.21630094043888
aF386.5203761755486
aa(lp493
F231.1598746081505
aF388.9498432601881
aa(lp494
F233.1034482758621
aF391.3793103448276
aa(lp495
F235.04702194357372
aF393.80877742946717
aa(lp496
F236.99059561128533
aF396.23824451410667
aa(lp497
F238.93416927899688
aF398.6677115987461
aa(lp498
F241.75548589341696
aF400.5485893416928
aa(lp499
F245.64263322884017
aF401.76332288401255
aa(lp500
F249.52978056426338
aF402.97805642633233
aa(lp501
F253.41692789968658
aF404.19278996865205
aa(lp502
F257.3040752351098
aF405.4075235109718
aa(lp503
F261.19122257053283
aF406.6222570532915
aa(lp504
F265.07836990595604
aF407.83699059561127
aa(lp505
F268.96551724137925
aF409.05172413793105
aa(lp506
F272.85266457680245
aF410.26645768025077
aa(lp507
F276.73981191222566
aF411.48119122257054
aa(lp508
F280.7836990595611
aF412.69592476489026
aa(lp509
F285.64263322884017
aF413.91065830721004
aa(lp510
F290.501567398119
aF415.12539184952976
aa(lp511
F295.36050156739805
aF416.3401253918495
aa(lp512
F300.21943573667704
aF417.55485893416926
aa(lp513
F305.0783699059561
aF418.76959247648904
aa(lp514
F309.9373040752351
aF419.98432601880876
aa(lp515
F314.79623824451414
aF421.19905956112854
aa(lp516
F319.65517241379314
aF422.4137931034483
aa(lp517
F324.514106583072
aF423.628526645768
aa(lp518
F329.373040752351
aF424.84326018808775
aa(lp519
F332.539184952978
aF425.0
aa(lp520
F335.45454545454544
aF425.0
aa(lp521
F338.36990595611286
aF425.0
aa(lp522
F341.2852664576803
aF425.0
aa(lp523
F344.2006269592477
aF425.0
aa(lp524
F347.115987460815
aF425.0
aa(lp525
F350.0313479623824
aF425.0
aa(lp526
F352.94670846394985
aF425.0
aa(lp527
F355.86206896551727
aF425.0
aa(lp528
F358.7774294670847
aF425.0
aa(lp529
F361.12852664576803
aF424.294670846395
aa(lp530
F363.0721003134796
aF423.07993730407526
aa(lp531
F365.0156739811912
aF421.8652037617555
aa(lp532
F366.9592476489028
aF420.65047021943576
aa(lp533
F368.9028213166144
aF419.435736677116
aa(lp534
F370.846394984326
aF418.22100313479626
aa(lp535
F372.7899686520376
aF417.0062695924765
aa(lp536
F374.73354231974923
aF415.79153605015676
aa(lp537
F376.67711598746075
aF414.57680250783704
aa(lp538
F378.6206896551723
aF413.36206896551727
aa(lp539
F380.0
aF412.14733542319755
aa(lp540
F380.0
aF410.93260188087777
aa(lp541
F380.0
aF409.717868338558
aa(lp542
F380.0
aF408.50313479623827
aa(lp543
F380.0
aF407.2884012539185
aa(lp544
F380.0
aF406.0736677115988
aa(lp545
F380.0
aF404.85893416927905
aa(lp546
F380.0
aF403.6442006269593
aa(lp547
F380.0
aF402.4294670846395
aa(lp548
F380.0
aF401.2147335423198
aa(lp549
F380.0
aF400.0
aag230
ag231
ag232
ag233
ag234
ag235
ag236
ag237
ag238
ag239
ag240
ag241
ag242
ag243
ag244
ag245
ag246
ag247
ag248
ag249
ag250
ag251
ag252
ag253
ag254
ag255
ag256
ag257
ag258
ag259
ag260
ag261
ag262
ag263
ag264
ag265
ag266
ag267
ag268
ag269
ag270
ag271
ag272
ag273
ag274
ag275
ag276
ag277
ag278
ag279
ag280
ag281
ag282
ag283
ag284
ag285
ag286
ag287
ag288
ag289
ag290
ag291
ag292
ag293
ag294
ag295
ag296
ag297
ag298
ag299
ag300
ag301
ag302
aa(lp550
g374
ag375
ag376
ag377
ag378
ag379
ag380
ag381
ag382
ag383
ag384
ag385
ag386
ag387
ag388
ag389
ag390
ag391
ag392
ag393
ag394
ag395
ag396
ag397
ag398
ag399
ag400
ag401
ag402
ag403
ag404
ag405
ag406
ag407
ag408
ag409
ag410
ag411
ag412
ag413
ag414
ag415
ag416
ag417
ag418
ag419
ag420
ag421
ag422
ag423
ag424
ag425
ag426
ag427
ag428
ag429
ag430
ag431
ag432
ag433
ag434
ag435
ag436
ag437
ag438
ag439
ag440
ag441
ag442
ag443
ag444
ag445
ag446
ag447
ag448
ag449
ag450
ag451
ag452
ag453
ag454
ag455
ag456
ag457
ag458
ag459
ag460
ag461
ag462
ag463
ag464
ag465
ag466
ag467
aa(lp551
a(lp552
g374
ag373
ag372
ag371
ag370
ag369
ag368
ag367
ag366
ag365
ag364
ag363
ag362
ag361
ag360
ag359
ag358
ag357
ag356
ag355
ag354
ag353
ag352
ag351
ag350
ag349
ag348
ag347
ag346
ag345
ag344
ag343
ag342
ag341
ag340
ag339
ag338
ag337
ag336
ag335
ag334
ag333
ag332
ag331
ag330
ag329
ag328
ag327
ag326
ag325
ag324
ag323
ag322
ag321
ag320
ag319
ag318
ag317
ag316
ag315
ag314
ag313
ag312
ag311
ag310
ag309
ag308
ag307
ag306
ag305
ag304
ag303
ag302
aasS'best_pin_pt'
p553
g164
sS'old_trajectory'
p554
(lp555
g230
ag231
ag232
ag233
ag234
ag235
ag236
ag237
ag238
ag239
ag240
ag241
ag242
ag243
ag244
ag245
ag246
ag247
ag248
ag249
ag250
ag251
ag252
ag253
ag254
ag255
ag256
ag257
ag258
ag259
ag260
ag261
ag262
ag263
ag264
ag265
ag266
ag267
ag268
ag269
ag270
ag271
ag272
ag273
ag274
ag275
ag276
ag277
ag278
ag279
ag280
ag281
ag282
ag283
ag284
ag285
ag286
ag287
ag288
ag289
ag290
ag291
ag292
ag293
ag294
ag295
ag296
ag297
ag298
ag299
ag300
ag301
ag302
ag303
ag304
ag305
ag306
ag307
ag308
ag309
ag310
ag311
ag312
ag313
ag314
ag315
ag316
ag317
ag318
ag319
ag320
ag321
ag322
ag323
ag324
ag325
ag326
ag327
ag328
ag329
ag330
ag331
ag332
ag333
ag334
ag335
ag336
ag337
ag338
ag339
ag340
ag341
ag342
ag343
ag344
ag345
ag346
ag347
ag348
ag349
ag350
ag351
ag352
ag353
ag354
ag355
ag356
ag357
ag358
ag359
ag360
ag361
ag362
ag363
ag364
ag365
ag366
ag367
ag368
ag369
ag370
ag371
ag372
ag373
ag374
ag375
ag376
ag377
ag378
ag379
ag380
ag381
ag382
ag383
ag384
ag385
ag386
ag387
ag388
ag389
ag390
ag391
ag392
ag393
ag394
ag395
ag396
ag397
ag398
ag399
ag400
ag401
ag402
ag403
ag404
ag405
ag406
ag407
ag408
ag409
ag410
ag411
ag412
ag413
ag414
ag415
ag416
ag417
ag418
ag419
ag420
ag421
ag422
ag423
ag424
ag425
ag426
ag427
ag428
ag429
ag430
ag431
ag432
ag433
ag434
ag435
ag436
ag437
ag438
ag439
ag440
ag441
ag442
ag443
ag444
ag445
ag446
ag447
ag448
ag449
ag450
ag451
ag452
ag453
ag454
ag455
ag456
ag457
ag458
ag459
ag460
ag461
ag462
ag463
ag464
ag465
ag466
ag467
ag468
ag469
ag470
ag471
ag472
ag473
ag474
ag475
ag476
ag477
ag478
ag479
ag480
ag481
ag482
ag483
ag484
ag485
ag486
ag487
ag488
ag489
ag490
ag491
ag492
ag493
ag494
ag495
ag496
ag497
ag498
ag499
ag500
ag501
ag502
ag503
ag504
ag505
ag506
ag507
ag508
ag509
ag510
ag511
ag512
ag513
ag514
ag515
ag516
ag517
ag518
ag519
ag520
ag521
ag522
ag523
ag524
ag525
ag526
ag527
ag528
ag529
ag530
ag531
ag532
ag533
ag534
ag535
ag536
ag537
ag538
ag539
ag540
ag541
ag542
ag543
ag544
ag545
ag546
ag547
ag548
ag549
ag230
ag231
ag232
ag233
ag234
ag235
ag236
ag237
ag238
ag239
ag240
ag241
ag242
ag243
ag244
ag245
ag246
ag247
ag248
ag249
ag250
ag251
ag252
ag253
ag254
ag255
ag256
ag257
ag258
ag259
ag260
ag261
ag262
ag263
ag264
ag265
ag266
ag267
ag268
ag269
ag270
ag271
ag272
ag273
ag274
ag275
ag276
ag277
ag278
ag279
ag280
ag281
ag282
ag283
ag284
ag285
ag286
ag287
ag288
ag289
ag290
ag291
ag292
ag293
ag294
ag295
ag296
ag297
ag298
ag299
ag300
ag301
ag302
ag374
ag375
ag376
ag377
ag378
ag379
ag380
ag381
ag382
ag383
ag384
ag385
ag386
ag387
ag388
ag389
ag390
ag391
ag392
ag393
ag394
ag395
ag396
ag397
ag398
ag399
ag400
ag401
ag402
ag403
ag404
ag405
ag406
ag407
ag408
ag409
ag410
ag411
ag412
ag413
ag414
ag415
ag416
ag417
ag418
ag419
ag420
ag421
ag422
ag423
ag424
ag425
ag426
ag427
ag428
ag429
ag430
ag431
ag432
ag433
ag434
ag435
ag436
ag437
ag438
ag439
ag440
ag441
ag442
ag443
ag444
ag445
ag446
ag447
ag448
ag449
ag450
ag451
ag452
ag453
ag454
ag455
ag456
ag457
ag458
ag459
ag460
ag461
ag462
ag463
ag464
ag465
ag466
ag467
ag374
ag373
ag372
ag371
ag370
ag369
ag368
ag367
ag366
ag365
ag364
ag363
ag362
ag361
ag360
ag359
ag358
ag357
ag356
ag355
ag354
ag353
ag352
ag351
ag350
ag349
ag348
ag347
ag346
ag345
ag344
ag343
ag342
ag341
ag340
ag339
ag338
ag337
ag336
ag335
ag334
ag333
ag332
ag331
ag330
ag329
ag328
ag327
ag326
ag325
ag324
ag323
ag322
ag321
ag320
ag319
ag318
ag317
ag316
ag315
ag314
ag313
ag312
ag311
ag310
ag309
ag308
ag307
ag306
ag305
ag304
ag303
ag302
asS'indices_of_pts'
p556
(lp557
(lp558
I0
aI1
aI2
aI3
aI4
aI5
aI6
aI7
aI8
aI9
aI10
aI11
aI12
aI13
aI14
aI15
aI16
aI17
aI18
aI19
aI20
aI21
aI22
aI23
aI24
aI25
aI26
aI27
aI28
aI29
aI30
aI31
aI32
aI33
aI34
aI35
aI36
aI37
aI38
aI39
aI40
aI41
aI42
aI43
aI44
aI45
aI46
aI47
aI48
aI49
aI50
aI51
aI52
aI53
aI54
aI55
aI56
aI57
aI58
aI59
aI60
aI61
aI62
aI63
aI64
aI65
aI66
aI67
aI68
aI69
aI70
aI71
aI72
aI73
aI74
aI75
aI76
aI77
aI78
aI79
aI80
aI81
aI82
aI83
aI84
aI85
aI86
aI87
aI88
aI89
aI90
aI91
aI92
aI93
aI94
aI95
aI96
aI97
aI98
aI99
aI100
aI101
aI102
aI103
aI104
aI105
aI106
aI107
aI108
aI109
aI110
aI111
aI112
aI113
aI114
aI115
aI116
aI117
aI118
aI119
aI120
aI121
aI122
aI123
aI124
aI125
aI126
aI127
aI128
aI129
aI130
aI131
aI132
aI133
aI134
aI135
aI136
aI137
aI138
aI139
aI140
aI141
aI142
aI143
aI144
aI145
aI146
aI147
aI148
aI149
aI150
aI151
aI152
aI153
aI154
aI155
aI156
aI157
aI158
aI159
aI160
aI161
aI162
aI163
aI164
aI165
aI166
aI167
aI168
aI169
aI170
aI171
aI172
aI173
aI174
aI175
aI176
aI177
aI178
aI179
aI180
aI181
aI182
aI183
aI184
aI185
aI186
aI187
aI188
aI189
aI190
aI191
aI192
aI193
aI194
aI195
aI196
aI197
aI198
aI199
aI200
aI201
aI202
aI203
aI204
aI205
aI206
aI207
aI208
aI209
aI210
aI211
aI212
aI213
aI214
aI215
aI216
aI217
aI218
aI219
aI220
aI221
aI222
aI223
aI224
aI225
aI226
aI227
aI228
aI229
aI230
aI231
aI232
aI233
aI234
aI235
aI236
aI237
aI238
aI239
aI240
aI241
aI242
aI243
aI244
aI245
aI246
aI247
aI248
aI249
aI250
aI251
aI252
aI253
aI254
aI255
aI256
aI257
aI258
aI259
aI260
aI261
aI262
aI263
aI264
aI265
aI266
aI267
aI268
aI269
aI270
aI271
aI272
aI273
aI274
aI275
aI276
aI277
aI278
aI279
aI280
aI281
aI282
aI283
aI284
aI285
aI286
aI287
aI288
aI289
aI290
aI291
aI292
aI293
aI294
aI295
aI296
aI297
aI298
aI299
aI300
aI301
aI302
aI303
aI304
aI305
aI306
aI307
aI308
aI309
aI310
aI311
aI312
aI313
aI314
aI315
aI316
aI317
aI318
aI319
aI0
aI1
aI2
aI3
aI4
aI5
aI6
aI7
aI8
aI9
aI10
aI11
aI12
aI13
aI14
aI15
aI16
aI17
aI18
aI19
aI20
aI21
aI22
aI23
aI24
aI25
aI26
aI27
aI28
aI29
aI30
aI31
aI32
aI33
aI34
aI35
aI36
aI37
aI38
aI39
aI40
aI41
aI42
aI43
aI44
aI45
aI46
aI47
aI48
aI49
aI50
aI51
aI52
aI53
aI54
aI55
aI56
aI57
aI58
aI59
aI60
aI61
aI62
aI63
aI64
aI65
aI66
aI67
aI68
aI69
aI70
aI71
aI72
aa(lp559
I144
aI145
aI146
aI147
aI148
aI149
aI150
aI151
aI152
aI153
aI154
aI155
aI156
aI157
aI158
aI159
aI160
aI161
aI162
aI163
aI164
aI165
aI166
aI167
aI168
aI169
aI170
aI171
aI172
aI173
aI174
aI175
aI176
aI177
aI178
aI179
aI180
aI181
aI182
aI183
aI184
aI185
aI186
aI187
aI188
aI189
aI190
aI191
aI192
aI193
aI194
aI195
aI196
aI197
aI198
aI199
aI200
aI201
aI202
aI203
aI204
aI205
aI206
aI207
aI208
aI209
aI210
aI211
aI212
aI213
aI214
aI215
aI216
aI217
aI218
aI219
aI220
aI221
aI222
aI223
aI224
aI225
aI226
aI227
aI228
aI229
aI230
aI231
aI232
aI233
aI234
aI235
aI236
aI237
aa(lp560
a(lp561
I144
aI143
aI142
aI141
aI140
aI139
aI138
aI137
aI136
aI135
aI134
aI133
aI132
aI131
aI130
aI129
aI128
aI127
aI126
aI125
aI124
aI123
aI122
aI121
aI120
aI119
aI118
aI117
aI116
aI115
aI114
aI113
aI112
aI111
aI110
aI109
aI108
aI107
aI106
aI105
aI104
aI103
aI102
aI101
aI100
aI99
aI98
aI97
aI96
aI95
aI94
aI93
aI92
aI91
aI90
aI89
aI88
aI87
aI86
aI85
aI84
aI83
aI82
aI81
aI80
aI79
aI78
aI77
aI76
aI75
aI74
aI73
aI72
aas.