(dp0
S'worst_score'
p1
I31
sS'totalpts'
p2
I107
sS'trajectory'
p3
(lp4
(lp5
(lp6
F380.0
aF400.0
aa(lp7
F378.0564263322884
aF398.7852664576802
aa(lp8
F376.1128526645768
aF397.5705329153605
aa(lp9
F374.1692789968652
aF396.3557993730407
aa(lp10
F372.2257053291536
aF395.141065830721
aa(lp11
F370.282131661442
aF393.9263322884012
aa(lp12
F368.33855799373043
aF392.7115987460815
aa(lp13
F366.3949843260188
aF391.49686520376173
aa(lp14
F364.4514106583072
aF390.282131661442
aa(lp15
F362.5078369905956
aF389.06739811912223
aa(lp16
F360.564263322884
aF387.8526645768025
aa(lp17
F357.9310344827586
aF386.63793103448273
aa(lp18
F355.01567398119124
aF385.423197492163
aa(lp19
F352.1003134796238
aF384.20846394984324
aa(lp20
F349.1849529780564
aF382.9937304075235
aa(lp21
F346.26959247648904
aF381.77899686520374
aa(lp22
F343.3542319749216
aF380.564263322884
aa(lp23
F340.43887147335425
aF379.34952978056424
aa(lp24
F337.52351097178683
aF378.1347962382445
aa(lp25
F334.6081504702194
aF376.92006269592474
aa(lp26
F331.69278996865205
aF375.705329153605
aa(lp27
F328.36990595611286
aF374.49059561128524
aa(lp28
F324.48275862068965
aF373.2758620689655
aa(lp29
F320.59561128526644
aF372.06112852664575
aa(lp30
F316.70846394984324
aF370.846394984326
aa(lp31
F312.8213166144201
aF369.63166144200625
aa(lp32
F308.9341692789969
aF368.4169278996865
aa(lp33
F305.04702194357367
aF367.20219435736675
aa(lp34
F301.15987460815046
aF365.98746081504703
aa(lp35
F297.27272727272725
aF364.77272727272725
aa(lp36
F293.3855799373041
aF363.55799373040753
aa(lp37
F289.62382445141066
aF362.18652037617557
aa(lp38
F286.70846394984324
aF359.75705329153607
aa(lp39
F283.7931034482759
aF357.32758620689657
aa(lp40
F280.87774294670845
aF354.89811912225707
aa(lp41
F277.9623824451411
aF352.4686520376176
aa(lp42
F275.04702194357367
aF350.0391849529781
aa(lp43
F272.13166144200625
aF347.6097178683386
aa(lp44
F269.2163009404389
aF345.1802507836991
aa(lp45
F266.30094043887146
aF342.7507836990596
aa(lp46
F263.3855799373041
aF340.3213166144201
aa(lp47
F260.4702194357367
aF337.89184952978053
aa(lp48
F259.1849529780564
aF336.48119122257054
aa(lp49
F258.2131661442006
aF335.26645768025077
aa(lp50
F257.2413793103448
aF334.05172413793105
aa(lp51
F256.26959247648904
aF332.83699059561127
aa(lp52
F255.29780564263322
aF331.62225705329155
aa(lp53
F254.32601880877743
aF330.40752351097177
aa(lp54
F253.35423197492162
aF329.19278996865205
aa(lp55
F252.38244514106583
aF327.9780564263323
aa(lp56
F251.41065830721004
aF326.76332288401255
aa(lp57
F250.43887147335423
aF325.5485893416928
aa(lp58
F249.46708463949844
aF323.0015673981191
aa(lp59
F248.49529780564262
aF319.3573667711599
aa(lp60
F247.52351097178683
aF315.7131661442006
aa(lp61
F246.55172413793105
aF312.0689655172414
aa(lp62
F245.57993730407523
aF308.4247648902821
aa(lp63
F244.60815047021944
aF304.7805642633229
aa(lp64
F243.63636363636363
aF301.1363636363636
aa(lp65
F242.66457680250784
aF297.4921630094044
aa(lp66
F241.69278996865205
aF293.84796238244513
aa(lp67
F240.72100313479623
aF290.2037617554859
aa(lp68
F240.0
aF286.87304075235113
aa(lp69
F240.0
aF284.4435736677116
aa(lp70
F240.0
aF282.0141065830721
aa(lp71
F240.0
aF279.58463949843264
aa(lp72
F240.0
aF277.1551724137931
aa(lp73
F240.0
aF274.7257053291536
aa(lp74
F240.0
aF272.2962382445141
aa(lp75
F240.0
aF269.8667711598746
aa(lp76
F240.0
aF267.43730407523515
aa(lp77
F240.0
aF265.0078369905956
aa(lp78
F240.0
aF262.5783699059561
aa(lp79
F242.82131661442006
aF258.9733542319749
aa(lp80
F245.73667711598745
aF255.32915360501568
aa(lp81
F248.65203761755484
aF251.68495297805646
aa(lp82
F251.56739811912226
aF248.04075235109718
aa(lp83
F254.48275862068965
aF244.39655172413794
aa(lp84
F257.39811912225707
aF240.7523510971787
aa(lp85
F260.31347962382443
aF237.10815047021944
aa(lp86
F263.22884012539186
aF233.4639498432602
aa(lp87
F266.1442006269592
aF229.81974921630095
aa(lp88
F269.05956112852664
aF226.17554858934167
aa(lp89
F272.63322884012535
aF224.17711598746084
aa(lp90
F276.52037617554856
aF222.96238244514106
aa(lp91
F280.4075235109718
aF221.7476489028213
aa(lp92
F284.294670846395
aF220.53291536050156
aa(lp93
F288.1818181818182
aF219.3181818181818
aa(lp94
F292.0689655172414
aF218.10344827586206
aa(lp95
F295.9561128526646
aF216.88871473354232
aa(lp96
F299.84326018808775
aF215.67398119122257
aa(lp97
F303.730407523511
aF214.45924764890282
aa(lp98
F307.6175548589342
aF213.24451410658307
aa(lp99
F311.5047021943574
aF212.5
aa(lp100
F315.3918495297806
aF212.5
aa(lp101
F319.2789968652038
aF212.5
aa(lp102
F323.166144200627
aF212.5
aa(lp103
F327.05329153605015
aF212.5
aa(lp104
F330.94043887147336
aF212.5
aa(lp105
F334.82758620689657
aF212.5
aa(lp106
F338.7147335423197
aF212.5
aa(lp107
F342.60188087774293
aF212.5
aa(lp108
F346.48902821316614
aF212.5
aa(lp109
F350.282131661442
aF212.5
aa(lp110
F353.1974921630094
aF212.5
aa(lp111
F356.1128526645768
aF212.5
aa(lp112
F359.0282131661442
aF212.5
aa(lp113
F361.9435736677116
aF212.5
aa(lp114
F364.858934169279
aF212.5
aa(lp115
F367.7742946708464
aF212.5
aa(lp116
F370.6896551724138
aF212.5
aa(lp117
F373.60501567398114
aF212.5
aa(lp118
F376.52037617554856
aF212.5
aa(lp119
F379.4357366771159
aF212.5
aa(lp120
F382.35109717868335
aF212.5
aa(lp121
F385.26645768025077
aF212.5
aa(lp122
F388.1818181818182
aF212.5
aa(lp123
F391.09717868338555
aF212.5
aa(lp124
F394.01253918495297
aF212.5
aa(lp125
F396.9278996865204
aF212.5
aa(lp126
F399.84326018808775
aF212.5
aa(lp127
F402.7586206896552
aF212.5
aa(lp128
F405.6739811912226
aF212.5
aa(lp129
F408.58934169278996
aF212.5
aa(lp130
F411.0031347962382
aF211.8730407523511
aa(lp131
F412.94670846394985
aF210.65830721003135
aa(lp132
F414.8902821316615
aF209.44357366771158
aa(lp133
F416.83385579937305
aF208.22884012539186
aa(lp134
F418.77742946708463
aF207.0141065830721
aa(lp135
F420.72100313479626
aF205.79937304075233
aa(lp136
F422.66457680250784
aF204.5846394984326
aa(lp137
F424.60815047021947
aF203.36990595611286
aa(lp138
F426.55172413793105
aF202.15517241379308
aa(lp139
F428.4952978056427
aF200.94043887147333
aa(lp140
F430.0
aF199.4514106583072
aa(lp141
F430.0
aF197.0219435736677
aa(lp142
F430.0
aF194.59247648902817
aa(lp143
F430.0
aF192.16300940438873
aa(lp144
F430.0
aF189.7335423197492
aa(lp145
F430.0
aF187.3040752351097
aa(lp146
F430.0
aF184.87460815047024
aa(lp147
F430.0
aF182.44514106583074
aa(lp148
F430.0
aF180.0156739811912
aa(lp149
F430.0
aF177.58620689655172
aa(lp150
F430.0
aF175.15673981191225
aa(lp151
F429.09090909090907
aF172.72727272727272
aa(lp152
F428.1191222570533
aF170.29780564263322
aa(lp153
F427.1473354231975
aF167.86833855799375
aa(lp154
F426.1755485893417
aF165.43887147335425
aa(lp155
F425.2037617554859
aF163.00940438871473
aa(lp156
F424.2319749216301
aF160.57993730407526
aa(lp157
F423.2601880877743
aF158.15047021943576
aa(lp158
F422.2884012539185
aF155.72100313479626
aa(lp159
F421.3166144200627
aF153.29153605015674
aa(lp160
F420.3448275862069
aF150.86206896551727
aa(lp161
F418.11912225705333
aF149.21630094043888
aa(lp162
F415.2037617554859
aF148.00156739811914
aa(lp163
F412.28840125391855
aF146.7868338557994
aa(lp164
F409.37304075235113
aF145.57210031347964
aa(lp165
F406.4576802507837
aF144.3573667711599
aa(lp166
F403.54231974921635
aF143.14263322884014
aa(lp167
F400.6269592476489
aF141.9278996865204
aa(lp168
F397.7115987460815
aF140.71316614420064
aa(lp169
F394.7962382445141
aF139.49843260188086
aa(lp170
F391.88087774294667
aF138.28369905956112
aa(lp171
F388.6206896551723
aF137.5
aa(lp172
F384.7335423197493
aF137.5
aa(lp173
F380.846394984326
aF137.5
aa(lp174
F376.9592476489028
aF137.5
aa(lp175
F373.0721003134796
aF137.5
aa(lp176
F369.1849529780564
aF137.5
aa(lp177
F365.29780564263314
aF137.5
aa(lp178
F361.4106583072101
aF137.5
aa(lp179
F357.52351097178683
aF137.5
aa(lp180
F353.6363636363636
aF137.5
aa(lp181
F349.7492163009404
aF137.5
aa(lp182
F345.8620689655172
aF137.5
aa(lp183
F341.97492163009395
aF137.5
aa(lp184
F338.08777429467074
aF137.5
aa(lp185
F334.20062695924764
aF137.5
aa(lp186
F330.31347962382443
aF137.5
aa(lp187
F326.4263322884012
aF137.5
aa(lp188
F322.539184952978
aF137.5
aa(lp189
F318.6520376175548
aF137.5
aa(lp190
F314.76489028213155
aF137.5
aa(lp191
F310.87774294670834
aF137.5
aa(lp192
F307.74294670846393
aF138.44043887147336
aa(lp193
F304.82758620689657
aF139.6551724137931
aa(lp194
F301.91222570532915
aF140.86990595611286
aa(lp195
F298.99686520376173
aF142.0846394984326
aa(lp196
F296.0815047021943
aF143.29937304075236
aa(lp197
F293.16614420062695
aF144.5141065830721
aa(lp198
F290.2507836990595
aF145.72884012539186
aa(lp199
F287.3354231974922
aF146.94357366771158
aa(lp200
F284.4200626959248
aF148.15830721003132
aa(lp201
F281.5047021943574
aF149.37304075235107
aa(lp202
F279.05956112852664
aF150.58777429467085
aa(lp203
F277.11598746081506
aF151.8025078369906
aa(lp204
F275.17241379310343
aF153.01724137931035
aa(lp205
F273.2288401253919
aF154.23197492163007
aa(lp206
F271.2852664576803
aF155.44670846394982
aa(lp207
F269.34169278996865
aF156.66144200626957
aa(lp208
F267.39811912225707
aF157.87617554858934
aa(lp209
F265.45454545454544
aF159.0909090909091
aa(lp210
F263.51097178683386
aF160.30564263322884
aa(lp211
F261.56739811912223
aF161.5203761755486
aa(lp212
F259.24764890282137
aF163.20532915360496
aa(lp213
F255.36050156739816
aF166.8495297805642
aa(lp214
F251.47335423197495
aF170.4937304075235
aa(lp215
F247.58620689655172
aF174.13793103448276
aa(lp216
F243.6990595611285
aF177.78213166144204
aa(lp217
F239.81191222570527
aF181.4263322884013
aa(lp218
F235.92476489028206
aF185.07053291536056
aa(lp219
F232.03761755485897
aF188.71473354231972
aa(lp220
F228.15047021943576
aF192.358934169279
aa(lp221
F224.26332288401252
aF196.00313479623827
aa(lp222
F220.37617554858932
aF199.64733542319752
aa(lp223
F218.24451410658304
aF203.2915360501568
aa(lp224
F216.30094043887144
aF206.93573667711604
aa(lp225
F214.35736677115992
aF210.57993730407517
aa(lp226
F212.4137931034483
aF214.22413793103442
aa(lp227
F210.4702194357367
aF217.8683385579937
aa(lp228
F208.5266457680251
aF221.51253918495294
aa(lp229
F206.5830721003135
aF225.1567398119122
aa(lp230
F204.6394984326019
aF228.80094043887146
aa(lp231
F202.6959247648903
aF232.4451410658307
aa(lp232
F200.75235109717875
aF236.08934169278984
aa(lp233
F199.40438871473359
aF240.47805642633213
aa(lp234
F198.43260188087777
aF245.33699059561116
aa(lp235
F197.46081504702195
aF250.1959247648902
aa(lp236
F196.48902821316616
aF255.0548589341692
aa(lp237
F195.51724137931035
aF259.91379310344826
aa(lp238
F194.54545454545453
aF264.77272727272725
aa(lp239
F193.57366771159877
aF269.63166144200613
aa(lp240
F192.60188087774296
aF274.49059561128513
aa(lp241
F191.63009404388717
aF279.3495297805642
aa(lp242
F190.65830721003135
aF284.20846394984324
aa(lp243
F190.31347962382443
aF288.6755485893417
aa(lp244
F191.28526645768025
aF292.3197492163009
aa(lp245
F192.25705329153607
aF295.9639498432602
aa(lp246
F193.22884012539183
aF299.60815047021936
aa(lp247
F194.20062695924764
aF303.25235109717863
aa(lp248
F195.17241379310343
aF306.8965517241379
aa(lp249
F196.14420062695925
aF310.5407523510972
aa(lp250
F197.11598746081506
aF314.18495297805646
aa(lp251
F198.08777429467085
aF317.82915360501573
aa(lp252
F199.05956112852664
aF321.47335423197484
aa(lp253
F200.06269592476485
aF325.15673981191213
aa(lp254
F202.00626959247649
aF330.0156739811912
aa(lp255
F203.9498432601881
aF334.8746081504702
aa(lp256
F205.8934169278997
aF339.73354231974923
aa(lp257
F207.8369905956113
aF344.5924764890283
aa(lp258
F209.7805642633229
aF349.4514106583073
aa(lp259
F211.72413793103445
aF354.31034482758616
aa(lp260
F213.66771159874608
aF359.16927899686516
aa(lp261
F215.61128526645768
aF364.0282131661442
aa(lp262
F217.5548589341693
aF368.8871473354232
aa(lp263
F219.4984326018809
aF373.74608150470226
aa(lp264
F221.4420062695925
aF376.8025078369906
aa(lp265
F223.38557993730413
aF379.2319749216301
aa(lp266
F225.32915360501568
aF381.66144200626957
aa(lp267
F227.27272727272728
aF384.09090909090907
aa(lp268
F229.21630094043888
aF386.5203761755486
aa(lp269
F231.1598746081505
aF388.9498432601881
aa(lp270
F233.1034482758621
aF391.3793103448276
aa(lp271
F235.04702194357372
aF393.80877742946717
aa(lp272
F236.99059561128533
aF396.23824451410667
aa(lp273
F238.93416927899688
aF398.6677115987461
aa(lp274
F241.75548589341696
aF400.5485893416928
aa(lp275
F245.64263322884017
aF401.76332288401255
aa(lp276
F249.52978056426338
aF402.97805642633233
aa(lp277
F253.41692789968658
aF404.19278996865205
aa(lp278
F257.3040752351098
aF405.4075235109718
aa(lp279
F261.19122257053283
aF406.6222570532915
aa(lp280
F265.07836990595604
aF407.83699059561127
aa(lp281
F268.96551724137925
aF409.05172413793105
aa(lp282
F272.85266457680245
aF410.26645768025077
aa(lp283
F276.73981191222566
aF411.48119122257054
aa(lp284
F280.7836990595611
aF412.69592476489026
aa(lp285
F285.64263322884017
aF413.91065830721004
aa(lp286
F290.501567398119
aF415.12539184952976
aa(lp287
F295.36050156739805
aF416.3401253918495
aa(lp288
F300.21943573667704
aF417.55485893416926
aa(lp289
F305.0783699059561
aF418.76959247648904
aa(lp290
F309.9373040752351
aF419.98432601880876
aa(lp291
F314.79623824451414
aF421.19905956112854
aa(lp292
F319.65517241379314
aF422.4137931034483
aa(lp293
F324.514106583072
aF423.628526645768
aa(lp294
F329.373040752351
aF424.84326018808775
aa(lp295
F332.539184952978
aF425.0
aa(lp296
F335.45454545454544
aF425.0
aa(lp297
F338.36990595611286
aF425.0
aa(lp298
F341.2852664576803
aF425.0
aa(lp299
F344.2006269592477
aF425.0
aa(lp300
F347.115987460815
aF425.0
aa(lp301
F350.0313479623824
aF425.0
aa(lp302
F352.94670846394985
aF425.0
aa(lp303
F355.86206896551727
aF425.0
aa(lp304
F358.7774294670847
aF425.0
aa(lp305
F361.12852664576803
aF424.294670846395
aa(lp306
F363.0721003134796
aF423.07993730407526
aa(lp307
F365.0156739811912
aF421.8652037617555
aa(lp308
F366.9592476489028
aF420.65047021943576
aa(lp309
F368.9028213166144
aF419.435736677116
aa(lp310
F370.846394984326
aF418.22100313479626
aa(lp311
F372.7899686520376
aF417.0062695924765
aa(lp312
F374.73354231974923
aF415.79153605015676
aa(lp313
F376.67711598746075
aF414.57680250783704
aa(lp314
F378.6206896551723
aF413.36206896551727
aa(lp315
F380.0
aF412.14733542319755
aa(lp316
F380.0
aF410.93260188087777
aa(lp317
F380.0
aF409.717868338558
aa(lp318
F380.0
aF408.50313479623827
aa(lp319
F380.0
aF407.2884012539185
aa(lp320
F380.0
aF406.0736677115988
aa(lp321
F380.0
aF404.85893416927905
aa(lp322
F380.0
aF403.6442006269593
aa(lp323
F380.0
aF402.4294670846395
aa(lp324
F380.0
aF401.2147335423198
aa(lp325
F380.0
aF400.0
aag6
ag7
ag8
ag9
ag10
ag11
ag12
ag13
ag14
ag15
ag16
ag17
ag18
ag19
ag20
ag21
ag22
ag23
ag24
ag25
ag26
ag27
ag28
ag29
ag30
ag31
ag32
ag33
ag34
ag35
ag36
ag37
ag38
ag39
ag40
ag41
ag42
ag43
ag44
ag45
ag46
ag47
ag48
ag49
ag50
ag51
ag52
ag53
ag54
ag55
ag56
ag57
ag58
ag59
ag60
ag61
ag62
ag63
ag64
ag65
ag66
ag67
ag68
ag69
ag70
ag71
ag72
ag73
ag74
ag75
ag76
ag77
ag78
aa(lp326
g150
ag151
ag152
ag153
ag154
ag155
ag156
ag157
ag158
ag159
ag160
ag161
ag162
ag163
ag164
ag165
ag166
ag167
ag168
ag169
ag170
ag171
ag172
ag173
ag174
ag175
ag176
ag177
ag178
ag179
ag180
ag181
ag182
ag183
ag184
ag185
ag186
ag187
ag188
ag189
ag190
ag191
ag192
ag193
ag194
ag195
ag196
ag197
ag198
ag199
ag200
ag201
ag202
ag203
ag204
ag205
ag206
ag207
ag208
ag209
ag210
ag211
ag212
ag213
ag214
ag215
ag216
ag217
ag218
ag219
ag220
ag221
ag222
ag223
ag224
ag225
ag226
ag227
ag228
ag229
ag230
ag231
ag232
ag233
ag234
ag235
ag236
ag237
ag238
ag239
ag240
ag241
ag242
ag243
aa(lp327
a(lp328
g150
ag149
ag148
ag147
ag146
ag145
ag144
ag143
ag142
ag141
ag140
ag139
ag138
ag137
ag136
ag135
ag134
ag133
ag132
ag131
ag130
ag129
ag128
ag127
ag126
ag125
ag124
ag123
ag122
ag121
ag120
ag119
ag118
ag117
ag116
ag115
ag114
ag113
ag112
ag111
ag110
ag109
ag108
ag107
ag106
ag105
ag104
ag103
ag102
ag101
ag100
ag99
ag98
ag97
ag96
ag95
ag94
ag93
ag92
ag91
ag90
ag89
ag88
ag87
ag86
ag85
ag84
ag83
ag82
ag81
ag80
ag79
ag78
aasS'best_score'
p329
I46
sS'init_score'
p330
I0
sS'old_trajectory'
p331
(lp332
g6
ag7
ag8
ag9
ag10
ag11
ag12
ag13
ag14
ag15
ag16
ag17
ag18
ag19
ag20
ag21
ag22
ag23
ag24
ag25
ag26
ag27
ag28
ag29
ag30
ag31
ag32
ag33
ag34
ag35
ag36
ag37
ag38
ag39
ag40
ag41
ag42
ag43
ag44
ag45
ag46
ag47
ag48
ag49
ag50
ag51
ag52
ag53
ag54
ag55
ag56
ag57
ag58
ag59
ag60
ag61
ag62
ag63
ag64
ag65
ag66
ag67
ag68
ag69
ag70
ag71
ag72
ag73
ag74
ag75
ag76
ag77
ag78
ag79
ag80
ag81
ag82
ag83
ag84
ag85
ag86
ag87
ag88
ag89
ag90
ag91
ag92
ag93
ag94
ag95
ag96
ag97
ag98
ag99
ag100
ag101
ag102
ag103
ag104
ag105
ag106
ag107
ag108
ag109
ag110
ag111
ag112
ag113
ag114
ag115
ag116
ag117
ag118
ag119
ag120
ag121
ag122
ag123
ag124
ag125
ag126
ag127
ag128
ag129
ag130
ag131
ag132
ag133
ag134
ag135
ag136
ag137
ag138
ag139
ag140
ag141
ag142
ag143
ag144
ag145
ag146
ag147
ag148
ag149
ag150
ag151
ag152
ag153
ag154
ag155
ag156
ag157
ag158
ag159
ag160
ag161
ag162
ag163
ag164
ag165
ag166
ag167
ag168
ag169
ag170
ag171
ag172
ag173
ag174
ag175
ag176
ag177
ag178
ag179
ag180
ag181
ag182
ag183
ag184
ag185
ag186
ag187
ag188
ag189
ag190
ag191
ag192
ag193
ag194
ag195
ag196
ag197
ag198
ag199
ag200
ag201
ag202
ag203
ag204
ag205
ag206
ag207
ag208
ag209
ag210
ag211
ag212
ag213
ag214
ag215
ag216
ag217
ag218
ag219
ag220
ag221
ag222
ag223
ag224
ag225
ag226
ag227
ag228
ag229
ag230
ag231
ag232
ag233
ag234
ag235
ag236
ag237
ag238
ag239
ag240
ag241
ag242
ag243
ag244
ag245
ag246
ag247
ag248
ag249
ag250
ag251
ag252
ag253
ag254
ag255
ag256
ag257
ag258
ag259
ag260
ag261
ag262
ag263
ag264
ag265
ag266
ag267
ag268
ag269
ag270
ag271
ag272
ag273
ag274
ag275
ag276
ag277
ag278
ag279
ag280
ag281
ag282
ag283
ag284
ag285
ag286
ag287
ag288
ag289
ag290
ag291
ag292
ag293
ag294
ag295
ag296
ag297
ag298
ag299
ag300
ag301
ag302
ag303
ag304
ag305
ag306
ag307
ag308
ag309
ag310
ag311
ag312
ag313
ag314
ag315
ag316
ag317
ag318
ag319
ag320
ag321
ag322
ag323
ag324
ag325
ag6
ag7
ag8
ag9
ag10
ag11
ag12
ag13
ag14
ag15
ag16
ag17
ag18
ag19
ag20
ag21
ag22
ag23
ag24
ag25
ag26
ag27
ag28
ag29
ag30
ag31
ag32
ag33
ag34
ag35
ag36
ag37
ag38
ag39
ag40
ag41
ag42
ag43
ag44
ag45
ag46
ag47
ag48
ag49
ag50
ag51
ag52
ag53
ag54
ag55
ag56
ag57
ag58
ag59
ag60
ag61
ag62
ag63
ag64
ag65
ag66
ag67
ag68
ag69
ag70
ag71
ag72
ag73
ag74
ag75
ag76
ag77
ag78
ag150
ag151
ag152
ag153
ag154
ag155
ag156
ag157
ag158
ag159
ag160
ag161
ag162
ag163
ag164
ag165
ag166
ag167
ag168
ag169
ag170
ag171
ag172
ag173
ag174
ag175
ag176
ag177
ag178
ag179
ag180
ag181
ag182
ag183
ag184
ag185
ag186
ag187
ag188
ag189
ag190
ag191
ag192
ag193
ag194
ag195
ag196
ag197
ag198
ag199
ag200
ag201
ag202
ag203
ag204
ag205
ag206
ag207
ag208
ag209
ag210
ag211
ag212
ag213
ag214
ag215
ag216
ag217
ag218
ag219
ag220
ag221
ag222
ag223
ag224
ag225
ag226
ag227
ag228
ag229
ag230
ag231
ag232
ag233
ag234
ag235
ag236
ag237
ag238
ag239
ag240
ag241
ag242
ag243
ag150
ag149
ag148
ag147
ag146
ag145
ag144
ag143
ag142
ag141
ag140
ag139
ag138
ag137
ag136
ag135
ag134
ag133
ag132
ag131
ag130
ag129
ag128
ag127
ag126
ag125
ag124
ag123
ag122
ag121
ag120
ag119
ag118
ag117
ag116
ag115
ag114
ag113
ag112
ag111
ag110
ag109
ag108
ag107
ag106
ag105
ag104
ag103
ag102
ag101
ag100
ag99
ag98
ag97
ag96
ag95
ag94
ag93
ag92
ag91
ag90
ag89
ag88
ag87
ag86
ag85
ag84
ag83
ag82
ag81
ag80
ag79
ag78
asS'indices_of_pts'
p333
(lp334
(lp335
I0
aI1
aI2
aI3
aI4
aI5
aI6
aI7
aI8
aI9
aI10
aI11
aI12
aI13
aI14
aI15
aI16
aI17
aI18
aI19
aI20
aI21
aI22
aI23
aI24
aI25
aI26
aI27
aI28
aI29
aI30
aI31
aI32
aI33
aI34
aI35
aI36
aI37
aI38
aI39
aI40
aI41
aI42
aI43
aI44
aI45
aI46
aI47
aI48
aI49
aI50
aI51
aI52
aI53
aI54
aI55
aI56
aI57
aI58
aI59
aI60
aI61
aI62
aI63
aI64
aI65
aI66
aI67
aI68
aI69
aI70
aI71
aI72
aI73
aI74
aI75
aI76
aI77
aI78
aI79
aI80
aI81
aI82
aI83
aI84
aI85
aI86
aI87
aI88
aI89
aI90
aI91
aI92
aI93
aI94
aI95
aI96
aI97
aI98
aI99
aI100
aI101
aI102
aI103
aI104
aI105
aI106
aI107
aI108
aI109
aI110
aI111
aI112
aI113
aI114
aI115
aI116
aI117
aI118
aI119
aI120
aI121
aI122
aI123
aI124
aI125
aI126
aI127
aI128
aI129
aI130
aI131
aI132
aI133
aI134
aI135
aI136
aI137
aI138
aI139
aI140
aI141
aI142
aI143
aI144
aI145
aI146
aI147
aI148
aI149
aI150
aI151
aI152
aI153
aI154
aI155
aI156
aI157
aI158
aI159
aI160
aI161
aI162
aI163
aI164
aI165
aI166
aI167
aI168
aI169
aI170
aI171
aI172
aI173
aI174
aI175
aI176
aI177
aI178
aI179
aI180
aI181
aI182
aI183
aI184
aI185
aI186
aI187
aI188
aI189
aI190
aI191
aI192
aI193
aI194
aI195
aI196
aI197
aI198
aI199
aI200
aI201
aI202
aI203
aI204
aI205
aI206
aI207
aI208
aI209
aI210
aI211
aI212
aI213
aI214
aI215
aI216
aI217
aI218
aI219
aI220
aI221
aI222
aI223
aI224
aI225
aI226
aI227
aI228
aI229
aI230
aI231
aI232
aI233
aI234
aI235
aI236
aI237
aI238
aI239
aI240
aI241
aI242
aI243
aI244
aI245
aI246
aI247
aI248
aI249
aI250
aI251
aI252
aI253
aI254
aI255
aI256
aI257
aI258
aI259
aI260
aI261
aI262
aI263
aI264
aI265
aI266
aI267
aI268
aI269
aI270
aI271
aI272
aI273
aI274
aI275
aI276
aI277
aI278
aI279
aI280
aI281
aI282
aI283
aI284
aI285
aI286
aI287
aI288
aI289
aI290
aI291
aI292
aI293
aI294
aI295
aI296
aI297
aI298
aI299
aI300
aI301
aI302
aI303
aI304
aI305
aI306
aI307
aI308
aI309
aI310
aI311
aI312
aI313
aI314
aI315
aI316
aI317
aI318
aI319
aI0
aI1
aI2
aI3
aI4
aI5
aI6
aI7
aI8
aI9
aI10
aI11
aI12
aI13
aI14
aI15
aI16
aI17
aI18
aI19
aI20
aI21
aI22
aI23
aI24
aI25
aI26
aI27
aI28
aI29
aI30
aI31
aI32
aI33
aI34
aI35
aI36
aI37
aI38
aI39
aI40
aI41
aI42
aI43
aI44
aI45
aI46
aI47
aI48
aI49
aI50
aI51
aI52
aI53
aI54
aI55
aI56
aI57
aI58
aI59
aI60
aI61
aI62
aI63
aI64
aI65
aI66
aI67
aI68
aI69
aI70
aI71
aI72
aa(lp336
I144
aI145
aI146
aI147
aI148
aI149
aI150
aI151
aI152
aI153
aI154
aI155
aI156
aI157
aI158
aI159
aI160
aI161
aI162
aI163
aI164
aI165
aI166
aI167
aI168
aI169
aI170
aI171
aI172
aI173
aI174
aI175
aI176
aI177
aI178
aI179
aI180
aI181
aI182
aI183
aI184
aI185
aI186
aI187
aI188
aI189
aI190
aI191
aI192
aI193
aI194
aI195
aI196
aI197
aI198
aI199
aI200
aI201
aI202
aI203
aI204
aI205
aI206
aI207
aI208
aI209
aI210
aI211
aI212
aI213
aI214
aI215
aI216
aI217
aI218
aI219
aI220
aI221
aI222
aI223
aI224
aI225
aI226
aI227
aI228
aI229
aI230
aI231
aI232
aI233
aI234
aI235
aI236
aI237
aa(lp337
a(lp338
I144
aI143
aI142
aI141
aI140
aI139
aI138
aI137
aI136
aI135
aI134
aI133
aI132
aI131
aI130
aI129
aI128
aI127
aI126
aI125
aI124
aI123
aI122
aI121
aI120
aI119
aI118
aI117
aI116
aI115
aI114
aI113
aI112
aI111
aI110
aI109
aI108
aI107
aI106
aI105
aI104
aI103
aI102
aI101
aI100
aI99
aI98
aI97
aI96
aI95
aI94
aI93
aI92
aI91
aI90
aI89
aI88
aI87
aI86
aI85
aI84
aI83
aI82
aI81
aI80
aI79
aI78
aI77
aI76
aI75
aI74
aI73
aI72
aas.