(dp0
S'worst_score'
p1
cnumpy.core.multiarray
scalar
p2
(cnumpy
dtype
p3
(S'f8'
p4
I0
I1
tp5
Rp6
(I3
S'<'
p7
NNNI-1
I-1
I0
tp8
bS'\x00\x00\x00\x00\x00\xc0a\xc0'
p9
tp10
Rp11
sS'totalpts'
p12
I43
sS'trajectory'
p13
(lp14
(lp15
(lp16
F419.5575221238938
aF430.88495575221236
aa(lp17
F419.46902654867256
aF429.46902654867256
aa(lp18
F418.49557522123894
aF428.49557522123894
aa(lp19
F417.52212389380526
aF427.52212389380526
aa(lp20
F416.5486725663717
aF426.5486725663717
aa(lp21
F415.575221238938
aF425.575221238938
aa(lp22
F414.60176991150445
aF424.60176991150445
aa(lp23
F413.62831858407077
aF423.62831858407077
aa(lp24
F412.65486725663715
aF422.65486725663715
aa(lp25
F411.6814159292036
aF421.6814159292036
aa(lp26
F410.7079646017699
aF420.7079646017699
aa(lp27
F409.7345132743363
aF419.4690265486726
aa(lp28
F408.76106194690266
aF417.52212389380526
aa(lp29
F407.78761061946904
aF415.57522123893807
aa(lp30
F406.81415929203536
aF413.62831858407077
aa(lp31
F405.8407079646018
aF411.6814159292036
aa(lp32
F404.8672566371681
aF409.7345132743362
aa(lp33
F403.89380530973455
aF407.78761061946904
aa(lp34
F402.92035398230087
aF405.84070796460173
aa(lp35
F401.94690265486724
aF403.89380530973455
aa(lp36
F400.9734513274337
aF401.94690265486736
aa(lp37
F400.0
aF400.0
aa(lp38
F400.0
aF400.0
aa(lp39
F398.05309734513276
aF398.05309734513276
aa(lp40
F396.1061946902655
aF396.1061946902655
aa(lp41
F394.1592920353982
aF394.1592920353982
aa(lp42
F392.21238938053096
aF392.21238938053096
aa(lp43
F390.2654867256637
aF390.2654867256637
aa(lp44
F388.3185840707965
aF388.3185840707965
aa(lp45
F386.3716814159292
aF386.3716814159292
aa(lp46
F384.42477876106193
aF384.42477876106193
aa(lp47
F382.4778761061947
aF382.4778761061947
aa(lp48
F380.53097345132744
aF380.53097345132744
aa(lp49
F378.5840707964602
aF377.87610619469024
aa(lp50
F376.6371681415929
aF374.95575221238937
aa(lp51
F374.69026548672565
aF372.0353982300885
aa(lp52
F372.7433628318584
aF369.11504424778764
aa(lp53
F370.79646017699116
aF366.1946902654867
aa(lp54
F368.8495575221239
aF363.27433628318585
aa(lp55
F366.9026548672566
aF360.353982300885
aa(lp56
F364.95575221238937
aF357.43362831858406
aa(lp57
F363.0088495575221
aF354.5132743362832
aa(lp58
F361.0619469026549
aF351.5929203539823
aa(lp59
F359.1150442477876
aF348.6725663716814
aa(lp60
F357.16814159292034
aF345.75221238938053
aa(lp61
F355.2212389380531
aF342.83185840707966
aa(lp62
F353.27433628318585
aF339.91150442477874
aa(lp63
F351.3274336283186
aF336.9911504424779
aa(lp64
F349.3805309734513
aF334.070796460177
aa(lp65
F347.43362831858406
aF331.15044247787614
aa(lp66
F345.4867256637168
aF328.2300884955752
aa(lp67
F343.53982300884957
aF325.30973451327435
aa(lp68
F341.5929203539823
aF322.3893805309734
aa(lp69
F339.82300884955754
aF319.646017699115
aa(lp70
F338.8495575221239
aF317.6991150442478
aa(lp71
F337.8761061946903
aF315.75221238938053
aa(lp72
F336.9026548672566
aF313.8053097345133
aa(lp73
F335.929203539823
aF311.85840707964604
aa(lp74
F334.95575221238937
aF309.91150442477874
aa(lp75
F333.98230088495575
aF307.9646017699115
aa(lp76
F333.0088495575221
aF306.01769911504425
aa(lp77
F332.0353982300885
aF304.070796460177
aa(lp78
F331.0619469026549
aF302.12389380530976
aa(lp79
F330.08849557522126
aF300.17699115044246
aa(lp80
F330.0
aF298.2300884955752
aa(lp81
F330.0
aF296.283185840708
aa(lp82
F330.0
aF294.3362831858407
aa(lp83
F330.0
aF292.3893805309734
aa(lp84
F330.0
aF290.4424778761062
aa(lp85
F330.0
aF288.49557522123894
aa(lp86
F330.0
aF286.5486725663717
aa(lp87
F330.0
aF284.60176991150445
aa(lp88
F330.0
aF282.65486725663715
aa(lp89
F330.0
aF280.7079646017699
aa(lp90
F330.0
aF278.76106194690266
aa(lp91
F330.0
aF276.8141592920354
aa(lp92
F330.0
aF274.86725663716817
aa(lp93
F330.0
aF272.92035398230087
aa(lp94
F330.0
aF270.9734513274336
aa(lp95
F330.0
aF269.0265486725664
aa(lp96
F330.0
aF267.07964601769913
aa(lp97
F330.0
aF265.13274336283183
aa(lp98
F330.0
aF263.1858407079646
aa(lp99
F330.0
aF261.23893805309734
aaa(lp100
g16
a(lp101
F418.5840707964602
aF432.8318584070796
aa(lp102
F417.6106194690266
aF434.77876106194685
aa(lp103
F416.63716814159295
aF436.7256637168141
aa(lp104
F415.66371681415933
aF438.6725663716814
aa(lp105
F414.69026548672565
aF440.61946902654864
aa(lp106
F413.716814159292
aF442.5663716814159
aa(lp107
F412.7433628318584
aF444.5132743362832
aa(lp108
F411.7699115044248
aF446.46017699115043
aa(lp109
F410.79646017699116
aF448.4070796460177
aa(lp110
F409.64601769911513
aF450.0
aa(lp111
F407.69911504424783
aF450.0
aa(lp112
F405.7522123893806
aF450.0
aa(lp113
F403.80530973451334
aF450.0
aa(lp114
F401.85840707964604
aF450.0
aa(lp115
F399.9115044247788
aF450.0
aa(lp116
F397.9646017699115
aF450.0
aa(lp117
F396.01769911504425
aF450.0
aa(lp118
F394.07079646017695
aF450.0
aa(lp119
F392.1238938053097
aF450.0
aa(lp120
F390.17699115044246
aF450.0
aa(lp121
F389.1150442477876
aF450.0
aa(lp122
F388.141592920354
aF450.0
aa(lp123
F387.1681415929204
aF450.0
aa(lp124
F386.1946902654867
aF450.0
aa(lp125
F385.2212389380531
aF450.0
aa(lp126
F384.24778761061947
aF450.0
aa(lp127
F383.27433628318585
aF450.0
aa(lp128
F382.3008849557522
aF450.0
aa(lp129
F381.3274336283186
aF450.0
aa(lp130
F380.3539823008849
aF450.0
aa(lp131
F378.14159292035396
aF449.3805309734513
aa(lp132
F375.2212389380531
aF448.4070796460177
aa(lp133
F372.3008849557523
aF447.4336283185841
aa(lp134
F369.3805309734514
aF446.4601769911505
aa(lp135
F366.4601769911505
aF445.4867256637168
aa(lp136
F363.5398230088496
aF444.5132743362832
aa(lp137
F360.6194690265487
aF443.53982300884957
aa(lp138
F357.69911504424783
aF442.56637168141594
aa(lp139
F354.7787610619469
aF441.5929203539823
aa(lp140
F351.85840707964604
aF440.6194690265487
aa(lp141
F348.9380530973451
aF439.6460176991151
aa(lp142
F346.01769911504425
aF438.6725663716814
aa(lp143
F343.0973451327433
aF437.6991150442478
aa(lp144
F340.17699115044246
aF436.72566371681415
aa(lp145
F337.25663716814165
aF435.75221238938053
aa(lp146
F334.3362831858407
aF434.7787610619469
aa(lp147
F331.41592920353986
aF433.8053097345133
aa(lp148
F328.49557522123894
aF432.83185840707966
aa(lp149
F325.575221238938
aF431.858407079646
aa(lp150
F322.65486725663715
aF430.88495575221236
aa(lp151
F319.7345132743362
aF429.8230088495575
aa(lp152
F316.81415929203536
aF427.87610619469024
aa(lp153
F313.89380530973443
aF425.929203539823
aa(lp154
F310.97345132743357
aF423.9823008849557
aa(lp155
F308.05309734513264
aF422.03539823008845
aa(lp156
F305.1327433628318
aF420.0884955752212
aa(lp157
F302.21238938053096
aF418.141592920354
aa(lp158
F299.2920353982301
aF416.1946902654867
aa(lp159
F296.37168141592923
aF414.24778761061947
aa(lp160
F293.4513274336283
aF412.3008849557522
aa(lp161
F290.53097345132744
aF410.3539823008849
aa(lp162
F288.4070796460177
aF407.6106194690265
aa(lp163
F286.46017699115043
aF404.69026548672565
aa(lp164
F284.5132743362832
aF401.7699115044247
aa(lp165
F282.5663716814159
aF398.84955752212386
aa(lp166
F280.61946902654864
aF395.929203539823
aa(lp167
F278.6725663716814
aF393.00884955752207
aa(lp168
F276.7256637168142
aF390.0884955752213
aa(lp169
F274.7787610619469
aF387.1681415929204
aa(lp170
F272.83185840707966
aF384.2477876106195
aa(lp171
F270.8849557522124
aF381.3274336283186
aa(lp172
F268.9380530973452
aF378.9380530973452
aa(lp173
F266.9911504424779
aF376.9911504424779
aa(lp174
F265.04424778761063
aF375.04424778761063
aa(lp175
F263.0973451327434
aF373.0973451327434
aa(lp176
F261.1504424778761
aF371.1504424778761
aa(lp177
F259.20353982300884
aF369.20353982300884
aa(lp178
F257.2566371681416
aF367.2566371681416
aa(lp179
F255.30973451327432
aF365.30973451327435
aa(lp180
F253.36283185840713
aF363.3628318584071
aa(lp181
F251.41592920353986
aF361.41592920353986
aa(lp182
F249.7345132743363
aF358.93805309734523
aa(lp183
F248.7610619469027
aF355.0442477876107
aa(lp184
F247.78761061946904
aF351.1504424778762
aa(lp185
F246.8141592920354
aF347.25663716814165
aa(lp186
F245.8407079646018
aF343.3628318584071
aa(lp187
F244.86725663716814
aF339.4690265486726
aa(lp188
F243.89380530973452
aF335.57522123893807
aa(lp189
F242.9203539823009
aF331.6814159292036
aa(lp190
F241.94690265486727
aF327.78761061946904
aa(lp191
F240.97345132743362
aF323.89380530973455
aa(lp192
F240.00000000000003
aF320.0000000000001
aa(lp193
F240.0
aF315.132743362832
aaa(lp194
(lp195
F430.0
aF140.79646017699113
aa(lp196
F428.58407079646014
aF138.58407079646017
aa(lp197
F426.6371681415929
aF136.6371681415929
aa(lp198
F424.69026548672565
aF134.69026548672568
aa(lp199
F422.7433628318584
aF132.7433628318584
aa(lp200
F420.79646017699116
aF130.79646017699116
aa(lp201
F418.8495575221239
aF128.8495575221239
aa(lp202
F416.9026548672566
aF126.90265486725663
aa(lp203
F414.9557522123894
aF124.9557522123894
aa(lp204
F413.0088495575221
aF123.00884955752215
aa(lp205
F411.0619469026549
aF121.06194690265488
aa(lp206
F409.11504424778764
aF120.0
aa(lp207
F407.16814159292034
aF120.0
aa(lp208
F405.2212389380531
aF120.0
aa(lp209
F403.27433628318585
aF120.0
aa(lp210
F401.3274336283186
aF120.0
aa(lp211
F399.38053097345136
aF120.0
aa(lp212
F397.43362831858406
aF120.0
aa(lp213
F395.4867256637168
aF120.0
aa(lp214
F393.53982300884957
aF120.0
aa(lp215
F391.5929203539823
aF120.0
aa(lp216
F389.46902654867256
aF120.0
aa(lp217
F386.5486725663717
aF120.0
aa(lp218
F383.62831858407077
aF120.0
aa(lp219
F380.7079646017699
aF120.0
aa(lp220
F377.787610619469
aF120.0
aa(lp221
F374.86725663716817
aF120.0
aa(lp222
F371.94690265486724
aF120.0
aa(lp223
F369.0265486725664
aF120.0
aa(lp224
F366.10619469026545
aF120.0
aa(lp225
F363.18584070796453
aF120.0
aa(lp226
F360.26548672566366
aF120.0
aa(lp227
F356.46017699115043
aF121.76991150442478
aa(lp228
F352.5663716814159
aF123.71681415929204
aa(lp229
F348.6725663716814
aF125.6637168141593
aa(lp230
F344.77876106194685
aF127.61061946902657
aa(lp231
F340.88495575221236
aF129.55752212389382
aa(lp232
F336.9911504424779
aF131.50442477876106
aa(lp233
F333.0973451327434
aF133.4513274336283
aa(lp234
F329.20353982300884
aF135.39823008849558
aa(lp235
F325.3097345132743
aF137.34513274336285
aa(lp236
F321.4159292035398
aF139.2920353982301
aa(lp237
F318.14159292035396
aF141.23893805309737
aa(lp238
F315.2212389380531
aF143.18584070796462
aa(lp239
F312.30088495575217
aF145.1327433628319
aa(lp240
F309.3805309734513
aF147.07964601769913
aa(lp241
F306.4601769911505
aF149.02654867256632
aa(lp242
F303.5398230088496
aF150.9734513274336
aa(lp243
F300.6194690265487
aF152.92035398230087
aa(lp244
F297.69911504424783
aF154.8672566371681
aa(lp245
F294.7787610619469
aF156.81415929203538
aa(lp246
F291.85840707964604
aF158.76106194690263
aa(lp247
F289.2920353982301
aF160.7079646017699
aa(lp248
F287.34513274336285
aF162.65486725663717
aa(lp249
F285.39823008849555
aF164.60176991150442
aa(lp250
F283.4513274336283
aF166.5486725663717
aa(lp251
F281.50442477876106
aF168.49557522123894
aa(lp252
F279.5575221238938
aF170.4424778761062
aa(lp253
F277.6106194690266
aF172.3893805309734
aa(lp254
F275.66371681415933
aF174.33628318584067
aa(lp255
F273.7168141592921
aF176.28318584070792
aa(lp256
F271.76991150442484
aF178.2300884955752
aa(lp257
F269.82300884955754
aF180.17699115044243
aa(lp258
F267.8761061946903
aF182.1238938053097
aa(lp259
F265.92920353982305
aF184.07079646017698
aa(lp260
F263.98230088495575
aF186.01769911504425
aa(lp261
F262.0353982300885
aF187.96460176991152
aa(lp262
F260.0884955752212
aF189.91150442477877
aa(lp263
F258.14159292035396
aF191.85840707964604
aa(lp264
F256.19469026548666
aF193.80530973451332
aa(lp265
F254.2477876106195
aF195.7522123893805
aa(lp266
F252.30088495575222
aF197.69911504424778
aa(lp267
F250.35398230088495
aF199.64601769911505
aa(lp268
F249.20353982300884
aF202.38938053097345
aa(lp269
F248.23008849557522
aF205.30973451327435
aa(lp270
F247.2566371681416
aF208.23008849557525
aa(lp271
F246.28318584070794
aF211.15044247787614
aa(lp272
F245.30973451327432
aF214.07079646017704
aa(lp273
F244.3362831858407
aF216.99115044247793
aa(lp274
F243.36283185840705
aF219.9115044247788
aa(lp275
F242.38938053097343
aF222.8318584070797
aa(lp276
F241.41592920353983
aF225.7522123893805
aa(lp277
F240.4424778761062
aF228.6725663716814
aa(lp278
F240.0
aF232.1238938053097
aa(lp279
F240.0
aF236.01769911504422
aa(lp280
F240.0
aF239.91150442477874
aa(lp281
F240.0
aF243.80530973451326
aa(lp282
F240.0
aF247.69911504424778
aa(lp283
F240.0
aF251.59292035398232
aa(lp284
F240.0
aF255.48672566371684
aa(lp285
F240.0
aF259.38053097345136
aa(lp286
F240.0
aF263.2743362831859
aa(lp287
F240.0
aF267.1681415929204
aa(lp288
F240.0
aF271.3274336283185
aa(lp289
F240.0
aF276.19469026548666
aa(lp290
F240.0
aF281.0619469026548
aa(lp291
F240.0
aF285.929203539823
aa(lp292
F240.0
aF290.79646017699116
aa(lp293
F240.0
aF295.66371681415933
aa(lp294
F240.0
aF300.5309734513275
aa(lp295
F240.0
aF305.39823008849567
aa(lp296
F240.0
aF310.26548672566383
aag193
aa(lp297
g195
a(lp298
F430.0
aF143.71681415929203
aa(lp299
F430.0
aF146.63716814159292
aa(lp300
F430.0
aF149.55752212389382
aa(lp301
F430.0
aF152.47787610619466
aa(lp302
F430.0
aF155.39823008849555
aa(lp303
F430.0
aF158.31858407079645
aa(lp304
F430.0
aF161.2389380530973
aa(lp305
F430.0
aF164.1592920353982
aa(lp306
F430.0
aF167.0796460176991
aa(lp307
F430.0
aF169.99999999999994
aa(lp308
F428.05309734513276
aF171.94690265486724
aa(lp309
F426.1061946902655
aF173.8938053097345
aa(lp310
F424.15929203539827
aF175.84070796460176
aa(lp311
F422.21238938053096
aF177.78761061946904
aa(lp312
F420.2654867256637
aF179.73451327433628
aa(lp313
F418.3185840707965
aF181.68141592920352
aa(lp314
F416.37168141592923
aF183.62831858407077
aa(lp315
F414.42477876106193
aF185.57522123893804
aa(lp316
F412.4778761061947
aF187.52212389380531
aa(lp317
F410.53097345132744
aF189.4690265486726
aa(lp318
F407.87610619469024
aF191.41592920353983
aa(lp319
F404.95575221238937
aF193.36283185840708
aa(lp320
F402.0353982300885
aF195.30973451327432
aa(lp321
F399.1150442477876
aF197.2566371681416
aa(lp322
F396.1946902654867
aF199.20353982300887
aa(lp323
F393.2743362831858
aF201.1504424778761
aa(lp324
F390.353982300885
aF203.09734513274336
aa(lp325
F387.43362831858406
aF205.04424778761063
aa(lp326
F384.5132743362832
aF206.99115044247787
aa(lp327
F381.59292035398227
aF208.93805309734515
aa(lp328
F379.1150442477876
aF210.88495575221242
aa(lp329
F377.16814159292034
aF212.83185840707966
aa(lp330
F375.2212389380531
aF214.7787610619469
aa(lp331
F373.27433628318585
aF216.72566371681415
aa(lp332
F371.3274336283186
aF218.67256637168143
aa(lp333
F369.3805309734513
aF220.61946902654867
aa(lp334
F367.43362831858406
aF222.56637168141594
aa(lp335
F365.4867256637168
aF224.5132743362832
aa(lp336
F363.53982300884957
aF226.46017699115043
aa(lp337
F361.5929203539823
aF228.40707964601768
aa(lp338
F359.6460176991151
aF230.17699115044246
aa(lp339
F357.6991150442478
aF231.1504424778761
aa(lp340
F355.75221238938053
aF232.12389380530973
aa(lp341
F353.8053097345133
aF233.09734513274336
aa(lp342
F351.85840707964604
aF234.07079646017698
aa(lp343
F349.9115044247788
aF235.0442477876106
aa(lp344
F347.9646017699115
aF236.01769911504425
aa(lp345
F346.01769911504425
aF236.99115044247787
aa(lp346
F344.070796460177
aF237.9646017699115
aa(lp347
F342.12389380530976
aF238.93805309734512
aa(lp348
F340.17699115044246
aF239.91150442477877
aa(lp349
F339.11504424778764
aF241.76991150442478
aa(lp350
F338.14159292035396
aF243.71681415929203
aa(lp351
F337.16814159292034
aF245.6637168141593
aa(lp352
F336.1946902654867
aF247.61061946902655
aa(lp353
F335.2212389380531
aF249.5575221238938
aa(lp354
F334.24778761061947
aF251.50442477876106
aa(lp355
F333.27433628318585
aF253.4513274336283
aa(lp356
F332.3008849557522
aF255.39823008849558
aa(lp357
F331.3274336283186
aF257.34513274336285
aa(lp358
F330.353982300885
aF259.2920353982301
aag99
aasS'best_score'
p359
g2
(g6
S'\x00\x00\x00\x00\x00\x80S\xc0'
p360
tp361
Rp362
sS'old_trajectory'
p363
(lp364
g16
ag17
ag18
ag19
ag20
ag21
ag22
ag23
ag24
ag25
ag26
ag27
ag28
ag29
ag30
ag31
ag32
ag33
ag34
ag35
ag36
ag37
ag38
ag39
ag40
ag41
ag42
ag43
ag44
ag45
ag46
ag47
ag48
ag49
ag50
ag51
ag52
ag53
ag54
ag55
ag56
ag57
ag58
ag59
ag60
ag61
ag62
ag63
ag64
ag65
ag66
ag67
ag68
ag69
ag70
ag71
ag72
ag73
ag74
ag75
ag76
ag77
ag78
ag79
ag80
ag81
ag82
ag83
ag84
ag85
ag86
ag87
ag88
ag89
ag90
ag91
ag92
ag93
ag94
ag95
ag96
ag97
ag98
ag99
ag195
ag196
ag197
ag198
ag199
ag200
ag201
ag202
ag203
ag204
ag205
ag206
ag207
ag208
ag209
ag210
ag211
ag212
ag213
ag214
ag215
ag216
ag217
ag218
ag219
ag220
ag221
ag222
ag223
ag224
ag225
ag226
ag227
ag228
ag229
ag230
ag231
ag232
ag233
ag234
ag235
ag236
ag237
ag238
ag239
ag240
ag241
ag242
ag243
ag244
ag245
ag246
ag247
ag248
ag249
ag250
ag251
ag252
ag253
ag254
ag255
ag256
ag257
ag258
ag259
ag260
ag261
ag262
ag263
ag264
ag265
ag266
ag267
ag268
ag269
ag270
ag271
ag272
ag273
ag274
ag275
ag276
ag277
ag278
ag279
ag280
ag281
ag282
ag283
ag284
ag285
ag286
ag287
ag288
ag289
ag290
ag291
ag292
ag293
ag294
ag295
ag296
ag193
ag195
ag298
ag299
ag300
ag301
ag302
ag303
ag304
ag305
ag306
ag307
ag308
ag309
ag310
ag311
ag312
ag313
ag314
ag315
ag316
ag317
ag318
ag319
ag320
ag321
ag322
ag323
ag324
ag325
ag326
ag327
ag328
ag329
ag330
ag331
ag332
ag333
ag334
ag335
ag336
ag337
ag338
ag339
ag340
ag341
ag342
ag343
ag344
ag345
ag346
ag347
ag348
ag349
ag350
ag351
ag352
ag353
ag354
ag355
ag356
ag357
ag358
ag99
ag16
ag101
ag102
ag103
ag104
ag105
ag106
ag107
ag108
ag109
ag110
ag111
ag112
ag113
ag114
ag115
ag116
ag117
ag118
ag119
ag120
ag121
ag122
ag123
ag124
ag125
ag126
ag127
ag128
ag129
ag130
ag131
ag132
ag133
ag134
ag135
ag136
ag137
ag138
ag139
ag140
ag141
ag142
ag143
ag144
ag145
ag146
ag147
ag148
ag149
ag150
ag151
ag152
ag153
ag154
ag155
ag156
ag157
ag158
ag159
ag160
ag161
ag162
ag163
ag164
ag165
ag166
ag167
ag168
ag169
ag170
ag171
ag172
ag173
ag174
ag175
ag176
ag177
ag178
ag179
ag180
ag181
ag182
ag183
ag184
ag185
ag186
ag187
ag188
ag189
ag190
ag191
ag192
ag193
asS'indices_of_pts'
p365
(lp366
(lp367
I318
aI319
aI320
aI321
aI322
aI323
aI324
aI325
aI326
aI327
aI328
aI329
aI330
aI331
aI332
aI333
aI334
aI335
aI336
aI337
aI338
aI339
aI0
aI1
aI2
aI3
aI4
aI5
aI6
aI7
aI8
aI9
aI10
aI11
aI12
aI13
aI14
aI15
aI16
aI17
aI18
aI19
aI20
aI21
aI22
aI23
aI24
aI25
aI26
aI27
aI28
aI29
aI30
aI31
aI32
aI33
aI34
aI35
aI36
aI37
aI38
aI39
aI40
aI41
aI42
aI43
aI44
aI45
aI46
aI47
aI48
aI49
aI50
aI51
aI52
aI53
aI54
aI55
aI56
aI57
aI58
aI59
aI60
aI61
aa(lp368
I318
aI317
aI316
aI315
aI314
aI313
aI312
aI311
aI310
aI309
aI308
aI307
aI306
aI305
aI304
aI303
aI302
aI301
aI300
aI299
aI298
aI297
aI296
aI295
aI294
aI293
aI292
aI291
aI290
aI289
aI288
aI287
aI286
aI285
aI284
aI283
aI282
aI281
aI280
aI279
aI278
aI277
aI276
aI275
aI274
aI273
aI272
aI271
aI270
aI269
aI268
aI267
aI266
aI265
aI264
aI263
aI262
aI261
aI260
aI259
aI258
aI257
aI256
aI255
aI254
aI253
aI252
aI251
aI250
aI249
aI248
aI247
aI246
aI245
aI244
aI243
aI242
aI241
aI240
aI239
aI238
aI237
aI236
aI235
aI234
aI233
aI232
aI231
aI230
aI229
aI228
aI227
aI226
aI225
aa(lp369
I123
aI124
aI125
aI126
aI127
aI128
aI129
aI130
aI131
aI132
aI133
aI134
aI135
aI136
aI137
aI138
aI139
aI140
aI141
aI142
aI143
aI144
aI145
aI146
aI147
aI148
aI149
aI150
aI151
aI152
aI153
aI154
aI155
aI156
aI157
aI158
aI159
aI160
aI161
aI162
aI163
aI164
aI165
aI166
aI167
aI168
aI169
aI170
aI171
aI172
aI173
aI174
aI175
aI176
aI177
aI178
aI179
aI180
aI181
aI182
aI183
aI184
aI185
aI186
aI187
aI188
aI189
aI190
aI191
aI192
aI193
aI194
aI195
aI196
aI197
aI198
aI199
aI200
aI201
aI202
aI203
aI204
aI205
aI206
aI207
aI208
aI209
aI210
aI211
aI212
aI213
aI214
aI215
aI216
aI217
aI218
aI219
aI220
aI221
aI222
aI223
aI224
aI225
aa(lp370
I123
aI122
aI121
aI120
aI119
aI118
aI117
aI116
aI115
aI114
aI113
aI112
aI111
aI110
aI109
aI108
aI107
aI106
aI105
aI104
aI103
aI102
aI101
aI100
aI99
aI98
aI97
aI96
aI95
aI94
aI93
aI92
aI91
aI90
aI89
aI88
aI87
aI86
aI85
aI84
aI83
aI82
aI81
aI80
aI79
aI78
aI77
aI76
aI75
aI74
aI73
aI72
aI71
aI70
aI69
aI68
aI67
aI66
aI65
aI64
aI63
aI62
aI61
aas.