(dp0
S'worst_score'
p1
cnumpy.core.multiarray
scalar
p2
(cnumpy
dtype
p3
(S'f8'
p4
I0
I1
tp5
Rp6
(I3
S'<'
p7
NNNI-1
I-1
I0
tp8
bS'\x00\x00\x00\x00\x00\x00W\xc0'
p9
tp10
Rp11
sS'totalpts'
p12
I42
sS'trajectory'
p13
(lp14
(lp15
(lp16
F420.0
aF290.0
aa(lp17
F420.0
aF290.0
aa(lp18
F420.0
aF290.965250965251
aa(lp19
F420.0
aF291.930501930502
aa(lp20
F420.0
aF292.89575289575293
aa(lp21
F420.0
aF293.8610038610039
aa(lp22
F420.0
aF294.82625482625485
aa(lp23
F420.0
aF295.7915057915058
aa(lp24
F420.0
aF296.7567567567568
aa(lp25
F420.0
aF297.72200772200773
aa(lp26
F420.0
aF298.6872586872587
aa(lp27
F420.0
aF299.65250965250965
aa(lp28
F420.0
aF301.2355212355213
aa(lp29
F420.0
aF303.16602316602325
aa(lp30
F420.0
aF305.09652509652517
aa(lp31
F420.0
aF307.0270270270271
aa(lp32
F420.0
aF308.957528957529
aa(lp33
F420.0
aF310.8880308880309
aa(lp34
F420.0
aF312.8185328185329
aa(lp35
F420.0
aF314.7490347490348
aa(lp36
F420.0
aF316.67953667953674
aa(lp37
F420.0
aF318.61003861003866
aa(lp38
F419.7297297297297
aF320.5405405405406
aa(lp39
F418.7644787644787
aF322.4710424710425
aa(lp40
F417.79922779922776
aF324.40154440154447
aa(lp41
F416.8339768339768
aF326.3320463320464
aa(lp42
F415.86872586872585
aF328.2625482625483
aa(lp43
F414.9034749034749
aF330.1930501930502
aa(lp44
F413.9382239382239
aF332.12355212355214
aa(lp45
F412.97297297297297
aF334.0540540540541
aa(lp46
F412.00772200772195
aF335.9845559845561
aa(lp47
F411.042471042471
aF337.915057915058
aa(lp48
F410.07722007722003
aF339.84555984555993
aa(lp49
F409.1119691119691
aF343.55212355212365
aa(lp50
F408.1467181467181
aF347.4131274131275
aa(lp51
F407.18146718146716
aF351.27413127413143
aa(lp52
F406.2162162162162
aF355.1351351351353
aa(lp53
F405.25096525096524
aF358.9961389961391
aa(lp54
F404.2857142857143
aF362.85714285714295
aa(lp55
F403.3204633204633
aF366.7181467181468
aa(lp56
F402.35521235521236
aF370.57915057915056
aa(lp57
F401.38996138996134
aF374.4401544401546
aa(lp58
F400.4247104247104
aF378.30115830115835
aa(lp59
F398.9189189189189
aF381.0810810810811
aa(lp60
F396.988416988417
aF383.011583011583
aa(lp61
F395.05791505791507
aF384.94208494208493
aa(lp62
F393.1274131274131
aF386.8725868725869
aa(lp63
F391.1969111969112
aF388.8030888030888
aa(lp64
F389.26640926640925
aF390.73359073359075
aa(lp65
F387.33590733590734
aF392.66409266409266
aa(lp66
F385.4054054054054
aF394.5945945945946
aa(lp67
F383.47490347490344
aF396.52509652509656
aa(lp68
F381.54440154440147
aF398.45559845559853
aa(lp69
F379.61389961389955
aF400.38610038610045
aa(lp70
F377.68339768339763
aF402.31660231660237
aa(lp71
F375.7528957528957
aF404.2471042471043
aa(lp72
F373.8223938223938
aF406.1776061776062
aa(lp73
F371.8918918918918
aF408.1081081081082
aa(lp74
F369.9613899613899
aF410.0386100386101
aa(lp75
F368.030888030888
aF411.969111969112
aa(lp76
F366.10038610038606
aF413.89961389961394
aa(lp77
F364.16988416988414
aF415.83011583011586
aa(lp78
F362.2393822393822
aF417.7606177606178
aa(lp79
F360.30888030888025
aF419.69111969111975
aa(lp80
F358.37837837837833
aF421.62162162162167
aa(lp81
F356.4478764478764
aF423.5521235521236
aa(lp82
F354.5173745173745
aF425.4826254826255
aa(lp83
F352.5868725868726
aF427.4131274131274
aa(lp84
F350.6563706563706
aF429.3436293436294
aa(lp85
F348.7258687258687
aF431.2741312741313
aa(lp86
F346.79536679536676
aF433.20463320463324
aa(lp87
F344.86486486486484
aF435.13513513513516
aa(lp88
F342.9343629343629
aF437.0656370656371
aa(lp89
F341.003861003861
aF438.996138996139
aa(lp90
F338.61003861003854
aF440.4633204633205
aa(lp91
F335.71428571428567
aF441.42857142857144
aa(lp92
F332.8185328185328
aF442.3938223938224
aa(lp93
F329.9227799227799
aF443.35907335907336
aa(lp94
F327.02702702702703
aF444.3243243243243
aa(lp95
F324.13127413127415
aF445.2895752895753
aa(lp96
F321.23552123552116
aF446.2548262548263
aa(lp97
F318.3397683397683
aF447.22007722007726
aa(lp98
F315.4440154440154
aF448.1853281853282
aa(lp99
F312.5482625482625
aF449.1505791505792
aa(lp100
F309.65250965250965
aF450.0
aa(lp101
F306.75675675675666
aF450.0
aa(lp102
F303.8610038610038
aF450.0
aa(lp103
F300.9652509652509
aF450.0
aa(lp104
F298.069498069498
aF450.0
aa(lp105
F295.17374517374515
aF450.0
aa(lp106
F292.27799227799227
aF450.0
aa(lp107
F289.3822393822393
aF450.0
aa(lp108
F286.4864864864864
aF450.0
aa(lp109
F283.5907335907335
aF450.0
aa(lp110
F280.69498069498064
aF450.0
aa(lp111
F277.79922779922776
aF449.26640926640925
aa(lp112
F274.90347490347483
aF448.3011583011583
aa(lp113
F272.00772200772195
aF447.33590733590734
aa(lp114
F269.1119691119691
aF446.3706563706563
aa(lp115
F266.21621621621614
aF445.4054054054054
aa(lp116
F263.32046332046326
aF444.4401544401544
aa(lp117
F260.4247104247104
aF443.47490347490344
aa(lp118
F257.52895752895745
aF442.5096525096525
aa(lp119
F254.63320463320454
aF441.5444015444015
aa(lp120
F251.73745173745166
aF440.57915057915056
aa(lp121
F248.8416988416988
aF439.2277992277992
aa(lp122
F245.94594594594588
aF437.29729729729723
aa(lp123
F243.050193050193
aF435.3667953667953
aa(lp124
F240.15444015444012
aF433.4362934362934
aa(lp125
F237.2586872586872
aF431.5057915057915
aa(lp126
F234.3629343629343
aF429.57528957528956
aa(lp127
F231.46718146718143
aF427.64478764478764
aa(lp128
F228.5714285714285
aF425.71428571428567
aa(lp129
F225.67567567567565
aF423.78378378378375
aa(lp130
F222.7799227799227
aF421.8532818532818
aa(lp131
F219.92277992277988
aF419.9227799227799
aa(lp132
F217.99227799227796
aF417.992277992278
aa(lp133
F216.06177606177602
aF416.061776061776
aa(lp134
F214.1312741312741
aF414.1312741312741
aa(lp135
F212.20077220077218
aF412.2007722007722
aa(lp136
F210.27027027027023
aF410.27027027027026
aa(lp137
F208.3397683397683
aF408.33976833976834
aa(lp138
F206.40926640926642
aF406.4092664092664
aa(lp139
F204.47876447876445
aF404.47876447876445
aa(lp140
F202.54826254826253
aF402.5482625482625
aa(lp141
F200.61776061776064
aF400.6177606177606
aa(lp142
F198.68725868725866
aF398.03088803088804
aa(lp143
F196.75675675675674
aF395.1351351351351
aa(lp144
F194.8262548262548
aF392.2393822393822
aa(lp145
F192.89575289575288
aF389.34362934362935
aa(lp146
F190.96525096525096
aF386.44787644787647
aa(lp147
F189.034749034749
aF383.55212355212353
aa(lp148
F187.1042471042471
aF380.65637065637065
aa(lp149
F185.17374517374517
aF377.7606177606178
aa(lp150
F183.2432432432432
aF374.86486486486484
aa(lp151
F181.31274131274128
aF371.96911196911196
aa(lp152
F179.6911196911197
aF368.4555984555984
aa(lp153
F178.7258687258687
aF363.62934362934357
aa(lp154
F177.76061776061775
aF358.80308880308877
aa(lp155
F176.79536679536676
aF353.97683397683386
aa(lp156
F175.8301158301158
aF349.15057915057906
aa(lp157
F174.86486486486484
aF344.32432432432427
aa(lp158
F173.89961389961388
aF339.49806949806936
aa(lp159
F172.93436293436292
aF334.67181467181456
aa(lp160
F171.96911196911196
aF329.84555984555976
aa(lp161
F171.00386100386098
aF325.0193050193049
aa(lp162
F170.03861003861002
aF320.1930501930501
aa(lp163
F170.0
aF316.29343629343623
aaa(lp164
g16
a(lp165
F419.03474903474904
aF286.13899613899616
aa(lp166
F418.0694980694981
aF282.27799227799227
aa(lp167
F417.1042471042471
aF278.41698841698843
aa(lp168
F416.13899613899616
aF274.55598455598454
aa(lp169
F415.17374517374515
aF270.6949806949807
aa(lp170
F414.2084942084942
aF266.83397683397686
aa(lp171
F413.2432432432432
aF262.97297297297297
aa(lp172
F412.27799227799227
aF259.11196911196913
aa(lp173
F411.3127413127413
aF255.25096525096524
aa(lp174
F410.34749034749035
aF251.3899613899614
aa(lp175
F409.3822393822394
aF248.14671814671814
aa(lp176
F408.41698841698843
aF245.25096525096527
aa(lp177
F407.4517374517375
aF242.35521235521236
aa(lp178
F406.4864864864865
aF239.45945945945945
aa(lp179
F405.5212355212355
aF236.56370656370657
aa(lp180
F404.55598455598454
aF233.66795366795367
aa(lp181
F403.5907335907336
aF230.7722007722008
aa(lp182
F402.6254826254826
aF227.87644787644788
aa(lp183
F401.66023166023166
aF224.98069498069498
aa(lp184
F400.6949806949807
aF222.0849420849421
aa(lp185
F399.4594594594595
aF219.1891891891892
aa(lp186
F397.5289575289575
aF216.2934362934363
aa(lp187
F395.5984555984556
aF213.3976833976834
aa(lp188
F393.66795366795367
aF210.5019305019305
aa(lp189
F391.73745173745175
aF207.60617760617762
aa(lp190
F389.80694980694983
aF204.71042471042472
aa(lp191
F387.87644787644786
aF201.8146718146718
aa(lp192
F385.94594594594594
aF198.91891891891893
aa(lp193
F384.015444015444
aF196.02316602316603
aa(lp194
F382.0849420849421
aF193.12741312741315
aa(lp195
F380.1544401544402
aF190.23166023166024
aa(lp196
F377.33590733590734
aF189.1119691119691
aa(lp197
F374.44015444015446
aF188.14671814671814
aa(lp198
F371.5444015444016
aF187.18146718146718
aa(lp199
F368.64864864864865
aF186.21621621621622
aa(lp200
F365.75289575289577
aF185.25096525096527
aa(lp201
F362.8571428571429
aF184.28571428571428
aa(lp202
F359.96138996138995
aF183.32046332046332
aa(lp203
F357.0656370656371
aF182.35521235521236
aa(lp204
F354.1698841698842
aF181.3899613899614
aa(lp205
F351.2741312741313
aF180.42471042471044
aa(lp206
F347.83783783783787
aF178.91891891891893
aa(lp207
F343.976833976834
aF176.988416988417
aa(lp208
F340.11583011583014
aF175.05791505791507
aa(lp209
F336.2548262548263
aF173.12741312741315
aa(lp210
F332.3938223938224
aF171.1969111969112
aa(lp211
F328.53281853281857
aF169.26640926640928
aa(lp212
F324.67181467181473
aF167.33590733590736
aa(lp213
F320.81081081081084
aF165.40540540540542
aa(lp214
F316.949806949807
aF163.4749034749035
aa(lp215
F313.0888030888031
aF161.54440154440155
aa(lp216
F309.0347490347491
aF160.0
aa(lp217
F304.20849420849424
aF160.0
aa(lp218
F299.3822393822394
aF160.0
aa(lp219
F294.55598455598454
aF160.0
aa(lp220
F289.7297297297298
aF160.0
aa(lp221
F284.90347490347494
aF160.0
aa(lp222
F280.0772200772201
aF160.0
aa(lp223
F275.2509652509653
aF160.0
aa(lp224
F270.42471042471044
aF160.0
aa(lp225
F265.59845559845564
aF160.0
aa(lp226
F260.7722007722008
aF160.0
aa(lp227
F256.7567567567568
aF160.8108108108108
aa(lp228
F252.8957528957529
aF161.77606177606177
aa(lp229
F249.03474903474904
aF162.74131274131273
aa(lp230
F245.1737451737452
aF163.70656370656368
aa(lp231
F241.31274131274134
aF164.67181467181467
aa(lp232
F237.45173745173747
aF165.63706563706563
aa(lp233
F233.5907335907336
aF166.6023166023166
aa(lp234
F229.72972972972977
aF167.56756756756755
aa(lp235
F225.8687258687259
aF168.53281853281854
aa(lp236
F222.007722007722
aF169.4980694980695
aa(lp237
F219.0733590733591
aF170.9266409266409
aa(lp238
F217.14285714285717
aF172.85714285714283
aa(lp239
F215.21235521235522
aF174.78764478764478
aa(lp240
F213.2818532818533
aF176.7181467181467
aa(lp241
F211.35135135135138
aF178.64864864864862
aa(lp242
F209.42084942084944
aF180.57915057915056
aa(lp243
F207.4903474903475
aF182.5096525096525
aa(lp244
F205.55984555984557
aF184.44015444015443
aa(lp245
F203.62934362934365
aF186.37065637065635
aa(lp246
F201.69884169884173
aF188.30115830115827
aa(lp247
F199.76833976833979
aF190.46332046332046
aa(lp248
F197.83783783783787
aF194.3243243243243
aa(lp249
F195.9073359073359
aF198.1853281853282
aa(lp250
F193.97683397683397
aF202.04633204633203
aa(lp251
F192.04633204633205
aF205.90733590733586
aa(lp252
F190.1158301158301
aF209.76833976833979
aa(lp253
F188.1853281853282
aF213.62934362934362
aa(lp254
F186.25482625482627
aF217.49034749034746
aa(lp255
F184.32432432432432
aF221.35135135135135
aa(lp256
F182.3938223938224
aF225.2123552123552
aa(lp257
F180.46332046332049
aF229.07335907335903
aa(lp258
F179.26640926640925
aF233.66795366795367
aa(lp259
F178.3011583011583
aF238.49420849420846
aa(lp260
F177.33590733590734
aF243.32046332046326
aa(lp261
F176.37065637065638
aF248.14671814671814
aa(lp262
F175.40540540540542
aF252.97297297297294
aa(lp263
F174.44015444015443
aF257.7992277992278
aa(lp264
F173.47490347490347
aF262.6254826254826
aa(lp265
F172.5096525096525
aF267.4517374517374
aa(lp266
F171.54440154440155
aF272.27799227799227
aa(lp267
F170.5791505791506
aF277.10424710424707
aa(lp268
F170.0
aF281.54440154440147
aa(lp269
F170.0
aF285.40540540540536
aa(lp270
F170.0
aF289.2664092664092
aa(lp271
F170.0
aF293.12741312741304
aa(lp272
F170.0
aF296.98841698841693
aa(lp273
F170.0
aF300.84942084942077
aa(lp274
F170.0
aF304.71042471042466
aa(lp275
F170.0
aF308.5714285714285
aa(lp276
F170.0
aF312.43243243243234
aag163
aasS'best_score'
p277
g2
(g6
S'\x00\x00\x00\x00\x00\x80N\xc0'
p278
tp279
Rp280
sS'old_trajectory'
p281
(lp282
g16
ag165
ag166
ag167
ag168
ag169
ag170
ag171
ag172
ag173
ag174
ag175
ag176
ag177
ag178
ag179
ag180
ag181
ag182
ag183
ag184
ag185
ag186
ag187
ag188
ag189
ag190
ag191
ag192
ag193
ag194
ag195
ag196
ag197
ag198
ag199
ag200
ag201
ag202
ag203
ag204
ag205
ag206
ag207
ag208
ag209
ag210
ag211
ag212
ag213
ag214
ag215
ag216
ag217
ag218
ag219
ag220
ag221
ag222
ag223
ag224
ag225
ag226
ag227
ag228
ag229
ag230
ag231
ag232
ag233
ag234
ag235
ag236
ag237
ag238
ag239
ag240
ag241
ag242
ag243
ag244
ag245
ag246
ag247
ag248
ag249
ag250
ag251
ag252
ag253
ag254
ag255
ag256
ag257
ag258
ag259
ag260
ag261
ag262
ag263
ag264
ag265
ag266
ag267
ag268
ag269
ag270
ag271
ag272
ag273
ag274
ag275
ag276
ag163
ag16
ag17
ag18
ag19
ag20
ag21
ag22
ag23
ag24
ag25
ag26
ag27
ag28
ag29
ag30
ag31
ag32
ag33
ag34
ag35
ag36
ag37
ag38
ag39
ag40
ag41
ag42
ag43
ag44
ag45
ag46
ag47
ag48
ag49
ag50
ag51
ag52
ag53
ag54
ag55
ag56
ag57
ag58
ag59
ag60
ag61
ag62
ag63
ag64
ag65
ag66
ag67
ag68
ag69
ag70
ag71
ag72
ag73
ag74
ag75
ag76
ag77
ag78
ag79
ag80
ag81
ag82
ag83
ag84
ag85
ag86
ag87
ag88
ag89
ag90
ag91
ag92
ag93
ag94
ag95
ag96
ag97
ag98
ag99
ag100
ag101
ag102
ag103
ag104
ag105
ag106
ag107
ag108
ag109
ag110
ag111
ag112
ag113
ag114
ag115
ag116
ag117
ag118
ag119
ag120
ag121
ag122
ag123
ag124
ag125
ag126
ag127
ag128
ag129
ag130
ag131
ag132
ag133
ag134
ag135
ag136
ag137
ag138
ag139
ag140
ag141
ag142
ag143
ag144
ag145
ag146
ag147
ag148
ag149
ag150
ag151
ag152
ag153
ag154
ag155
ag156
ag157
ag158
ag159
ag160
ag161
ag162
ag163
asS'indices_of_pts'
p283
(lp284
(lp285
I0
aI259
aI258
aI257
aI256
aI255
aI254
aI253
aI252
aI251
aI250
aI249
aI248
aI247
aI246
aI245
aI244
aI243
aI242
aI241
aI240
aI239
aI238
aI237
aI236
aI235
aI234
aI233
aI232
aI231
aI230
aI229
aI228
aI227
aI226
aI225
aI224
aI223
aI222
aI221
aI220
aI219
aI218
aI217
aI216
aI215
aI214
aI213
aI212
aI211
aI210
aI209
aI208
aI207
aI206
aI205
aI204
aI203
aI202
aI201
aI200
aI199
aI198
aI197
aI196
aI195
aI194
aI193
aI192
aI191
aI190
aI189
aI188
aI187
aI186
aI185
aI184
aI183
aI182
aI181
aI180
aI179
aI178
aI177
aI176
aI175
aI174
aI173
aI172
aI171
aI170
aI169
aI168
aI167
aI166
aI165
aI164
aI163
aI162
aI161
aI160
aI159
aI158
aI157
aI156
aI155
aI154
aI153
aI152
aI151
aI150
aI149
aI148
aI147
aI146
aI145
aI144
aI143
aI142
aI141
aI140
aI139
aI138
aI137
aI136
aI135
aI134
aI133
aI132
aI131
aI130
aI129
aI128
aI127
aI126
aI125
aI124
aI123
aI122
aI121
aI120
aI119
aI118
aI117
aI116
aI115
aI114
aI113
aa(lp286
I0
aI1
aI2
aI3
aI4
aI5
aI6
aI7
aI8
aI9
aI10
aI11
aI12
aI13
aI14
aI15
aI16
aI17
aI18
aI19
aI20
aI21
aI22
aI23
aI24
aI25
aI26
aI27
aI28
aI29
aI30
aI31
aI32
aI33
aI34
aI35
aI36
aI37
aI38
aI39
aI40
aI41
aI42
aI43
aI44
aI45
aI46
aI47
aI48
aI49
aI50
aI51
aI52
aI53
aI54
aI55
aI56
aI57
aI58
aI59
aI60
aI61
aI62
aI63
aI64
aI65
aI66
aI67
aI68
aI69
aI70
aI71
aI72
aI73
aI74
aI75
aI76
aI77
aI78
aI79
aI80
aI81
aI82
aI83
aI84
aI85
aI86
aI87
aI88
aI89
aI90
aI91
aI92
aI93
aI94
aI95
aI96
aI97
aI98
aI99
aI100
aI101
aI102
aI103
aI104
aI105
aI106
aI107
aI108
aI109
aI110
aI111
aI112
aI113
aas.