(dp0
S'worst_score'
p1
cnumpy.core.multiarray
scalar
p2
(cnumpy
dtype
p3
(S'f8'
p4
I0
I1
tp5
Rp6
(I3
S'<'
p7
NNNI-1
I-1
I0
tp8
bS'\x00\x00\x00\x00\x00\x80M\xc0'
p9
tp10
Rp11
sS'best_pin_pt'
p12
(lp13
g2
(g3
(S'i8'
p14
I0
I1
tp15
Rp16
(I3
S'<'
p17
NNNI-1
I-1
I0
tp18
bS'\x18\x01\x00\x00\x00\x00\x00\x00'
p19
tp20
Rp21
ag2
(g16
S'\xc8\x00\x00\x00\x00\x00\x00\x00'
p22
tp23
Rp24
asS'worst_pin_pt'
p25
(lp26
g2
(g16
S'd\x00\x00\x00\x00\x00\x00\x00'
p27
tp28
Rp29
ag2
(g16
S'd\x00\x00\x00\x00\x00\x00\x00'
p30
tp31
Rp32
asS'totalpts'
p33
I43
sS'indices_of_pts'
p34
(lp35
(lp36
I0
aI1
aI2
aI3
aI4
aI5
aI6
aI7
aI8
aI9
aI10
aI11
aI12
aI13
aI14
aI15
aI16
aI17
aI18
aI19
aI20
aI21
aI22
aI23
aI24
aI25
aI26
aI27
aI28
aI29
aI30
aI31
aI32
aI33
aI34
aI35
aI36
aI37
aI38
aI39
aI40
aI41
aI42
aI43
aI44
aI45
aI46
aI47
aI48
aI49
aI50
aI51
aI52
aI53
aI54
aI55
aI56
aI57
aI58
aI59
aI60
aI61
aI62
aI63
aI64
aI65
aI66
aI67
aI68
aI69
aI70
aI71
aI72
aI73
aI74
aI75
aI76
aI77
aI78
aI79
aI80
aI81
aI82
aI83
aI84
aI85
aI86
aI87
aI88
aI89
aI90
aI91
aI92
aI93
aI94
aI95
aI96
aI97
aI98
aI99
aI100
aI101
aI102
aI103
aI104
aI105
aI106
aI107
aI108
aI109
aI110
aI111
aI112
aI113
aI114
aI115
aI116
aI117
aI118
aI119
aI120
aI121
aI122
aI123
aI124
aI125
aI126
aa(lp37
I199
aI198
aI197
aI196
aI195
aI194
aI193
aI192
aI191
aI190
aI189
aI188
aI187
aI186
aI185
aI184
aI183
aI182
aI181
aI180
aI179
aI178
aI177
aI176
aI175
aI174
aI173
aI172
aI171
aI170
aI169
aI168
aI167
aI166
aI165
aI164
aI163
aI162
aI161
aI160
aI159
aI158
aI157
aI156
aI155
aI154
aI153
aI152
aI151
aI150
aI149
aI148
aI147
aI146
aI145
aI144
aI143
aI142
aI141
aI140
aI139
aI138
aI137
aI136
aI135
aI134
aI133
aI132
aI131
aI130
aI129
aI128
aI127
aI126
aasS'old_trajectory'
p38
(lp39
(lp40
F310.0
aF50.0
aa(lp41
F310.0
aF53.81909547738687
aa(lp42
F310.0
aF57.63819095477386
aa(lp43
F310.0
aF61.45728643216072
aa(lp44
F310.0
aF65.27638190954772
aa(lp45
F310.0
aF69.09547738693458
aa(lp46
F310.0
aF72.91457286432157
aa(lp47
F310.0
aF76.73366834170844
aa(lp48
F310.0
aF80.55276381909543
aa(lp49
F310.0
aF84.3718592964823
aa(lp50
F310.0
aF88.1909547738693
aa(lp51
F308.9949748743719
aF92.01005025125616
aa(lp52
F307.0854271356784
aF95.82914572864317
aa(lp53
F305.17587939698495
aF99.64824120603004
aa(lp54
F303.26633165829145
aF103.46733668341705
aa(lp55
F301.35678391959806
aF107.28643216080393
aa(lp56
F299.44723618090455
aF111.10552763819094
aa(lp57
F297.5376884422111
aF114.92462311557782
aa(lp58
F295.6281407035176
aF118.74371859296483
aa(lp59
F293.71859296482415
aF122.56281407035169
aa(lp60
F291.80904522613065
aF126.3819095477387
aa(lp61
F289.8994974874372
aF130.20100502512557
aa(lp62
F287.9899497487437
aF134.02010050251258
aa(lp63
F286.0804020100503
aF137.83919597989944
aa(lp64
F284.1708542713568
aF141.65829145728642
aa(lp65
F282.26130653266335
aF145.4773869346733
aa(lp66
F280.35175879396985
aF149.2964824120603
aa(lp67
F278.4422110552764
aF153.11557788944714
aa(lp68
F276.53266331658295
aF156.93467336683415
aa(lp69
F274.6231155778895
aF160.753768844221
aa(lp70
F272.713567839196
aF164.572864321608
aa(lp71
F270.80402010050256
aF168.39195979899486
aa(lp72
F267.7889447236181
aF171.6582914572864
aa(lp73
F263.96984924623126
aF174.52261306532654
aa(lp74
F260.15075376884425
aF177.3869346733668
aa(lp75
F256.3316582914574
aF180.25125628140694
aa(lp76
F252.5125628140704
aF183.1155778894472
aa(lp77
F248.6934673366835
aF185.97989949748737
aa(lp78
F244.87437185929653
aF188.8442211055276
aa(lp79
F241.05527638190966
aF191.70854271356777
aa(lp80
F237.23618090452266
aF194.57286432160802
aa(lp81
F233.41708542713573
aF197.43718592964822
aa(lp82
F229.7989949748744
aF200.30150753768842
aa(lp83
F227.88944723618093
aF203.16582914572862
aa(lp84
F225.97989949748745
aF206.03015075376882
aa(lp85
F224.07035175879398
aF208.89447236180902
aa(lp86
F222.16080402010053
aF211.75879396984922
aa(lp87
F220.25125628140705
aF214.62311557788942
aa(lp88
F218.34170854271358
aF217.48743718592962
aa(lp89
F216.43216080402013
aF220.35175879396982
aa(lp90
F214.52261306532665
aF223.21608040201002
aa(lp91
F212.61306532663318
aF226.08040201005022
aa(lp92
F210.70351758793973
aF228.94472361809042
aa(lp93
F208.79396984924625
aF232.4120603015075
aa(lp94
F206.88442211055278
aF236.23115577889445
aa(lp95
F204.9748743718593
aF240.05025125628137
aa(lp96
F203.06532663316585
aF243.86934673366832
aa(lp97
F201.15577889447238
aF247.68844221105525
aa(lp98
F199.2462311557789
aF251.5075376884422
aa(lp99
F197.33668341708545
aF255.32663316582912
aa(lp100
F195.42713567839198
aF259.14572864321605
aa(lp101
F193.5175879396985
aF262.964824120603
aa(lp102
F191.60804020100502
aF266.78391959798995
aa(lp103
F189.84924623115577
aF270.7537688442211
aa(lp104
F188.89447236180905
aF275.52763819095475
aa(lp105
F187.93969849246233
aF280.3015075376884
aa(lp106
F186.98492462311557
aF285.0753768844221
aa(lp107
F186.03015075376885
aF289.84924623115575
aa(lp108
F185.07537688442213
aF294.6231155778894
aa(lp109
F184.12060301507537
aF299.3969849246231
aa(lp110
F183.16582914572865
aF304.17085427135675
aa(lp111
F182.21105527638193
aF308.94472361809045
aa(lp112
F181.25628140703517
aF313.7185929648241
aa(lp113
F180.30150753768845
aF318.49246231155774
aa(lp114
F490.0
aF540.0
aa(lp115
F489.04522613065325
aF534.2713567839196
aa(lp116
F488.09045226130655
aF528.5427135678392
aa(lp117
F487.1356783919598
aF522.8140703517588
aa(lp118
F486.18090452261305
aF517.0854271356784
aa(lp119
F485.22613065326635
aF511.356783919598
aa(lp120
F484.2713567839196
aF505.6281407035176
aa(lp121
F483.31658291457285
aF499.8994974874372
aa(lp122
F482.36180904522615
aF494.1708542713568
aa(lp123
F481.4070351758794
aF488.4422110552764
aa(lp124
F480.45226130653265
aF482.713567839196
aa(lp125
F478.99497487437185
aF478.4924623115578
aa(lp126
F477.0854271356784
aF475.6281407035176
aa(lp127
F475.1758793969849
aF472.7638190954774
aa(lp128
F473.26633165829145
aF469.8994974874372
aa(lp129
F471.356783919598
aF467.035175879397
aa(lp130
F469.4472361809045
aF464.1708542713568
aa(lp131
F467.53768844221105
aF461.3065326633166
aa(lp132
F465.6281407035176
aF458.4422110552764
aa(lp133
F463.7185929648241
aF455.5778894472362
aa(lp134
F461.80904522613065
aF452.71356783919595
aa(lp135
F459.84924623115575
aF449.79899497487435
aa(lp136
F456.98492462311555
aF445.97989949748745
aa(lp137
F454.12060301507535
aF442.1608040201005
aa(lp138
F451.25628140703515
aF438.34170854271355
aa(lp139
F448.39195979899495
aF434.5226130653266
aa(lp140
F445.52763819095475
aF430.7035175879397
aa(lp141
F442.66331658291455
aF426.88442211055275
aa(lp142
F439.79899497487435
aF423.0653266331658
aa(lp143
F436.93467336683415
aF419.2462311557789
aa(lp144
F434.07035175879395
aF415.42713567839195
aa(lp145
F431.20603015075375
aF411.608040201005
aa(lp146
F427.7889447236181
aF408.89447236180905
aa(lp147
F423.96984924623115
aF406.9849246231156
aa(lp148
F420.1507537688442
aF405.0753768844221
aa(lp149
F416.3316582914573
aF403.16582914572865
aa(lp150
F412.51256281407035
aF401.25628140703515
aa(lp151
F408.6934673366834
aF399.3467336683417
aa(lp152
F404.8743718592965
aF397.43718592964825
aa(lp153
F401.05527638190955
aF395.52763819095475
aa(lp154
F397.2361809045226
aF393.6180904522613
aa(lp155
F393.41708542713565
aF391.70854271356785
aa(lp156
F389.69849246231155
aF389.79899497487435
aa(lp157
F386.83417085427135
aF387.8894472361809
aa(lp158
F383.96984924623115
aF385.9798994974874
aa(lp159
F381.10552763819095
aF384.07035175879395
aa(lp160
F378.24120603015075
aF382.1608040201005
aa(lp161
F375.37688442211055
aF380.251256281407
aa(lp162
F372.51256281407035
aF378.34170854271355
aa(lp163
F369.64824120603015
aF376.4321608040201
aa(lp164
F366.78391959798995
aF374.5226130653266
aa(lp165
F363.9195979899497
aF372.61306532663315
aa(lp166
F361.0552763819095
aF370.7035175879397
aa(lp167
F357.58793969849245
aF370.0
aa(lp168
F353.7688442211055
aF370.0
aa(lp169
F349.94974874371854
aF370.0
aa(lp170
F346.13065326633165
aF370.0
aa(lp171
F342.3115577889447
aF370.0
aa(lp172
F338.49246231155774
aF370.0
aa(lp173
F334.67336683417085
aF370.0
aa(lp174
F330.8542713567839
aF370.0
aa(lp175
F327.035175879397
aF370.0
aa(lp176
F323.21608040201005
aF370.0
aa(lp177
F319.69849246231155
aF370.30150753768845
aa(lp178
F317.7889447236181
aF372.2110552763819
aa(lp179
F315.8793969849246
aF374.1206030150754
aa(lp180
F313.96984924623115
aF376.03015075376885
aa(lp181
F312.0603015075377
aF377.9396984924623
aa(lp182
F310.1507537688442
aF379.8492462311558
aa(lp183
F308.24120603015075
aF381.75879396984925
aa(lp184
F306.3316582914573
aF383.6683417085427
aa(lp185
F304.4221105527638
aF385.5778894472362
aa(lp186
F302.51256281407035
aF387.48743718592965
aa(lp187
F300.6030150753769
aF389.3969849246231
aa(lp188
F298.0402010050251
aF391.9597989949749
aa(lp189
F295.1758793969849
aF394.8241206030151
aa(lp190
F292.3115577889447
aF397.6884422110553
aa(lp191
F289.4472361809045
aF400.5527638190955
aa(lp192
F286.5829145728643
aF403.4170854271357
aa(lp193
F283.7185929648241
aF406.2814070351759
aa(lp194
F280.8542713567839
aF409.1457286432161
aa(lp195
F277.9899497487437
aF412.0100502512563
aa(lp196
F275.1256281407035
aF414.8743718592965
aa(lp197
F272.2613065326633
aF417.7386934673367
aa(lp198
F269.3969849246231
aF420.0
aa(lp199
F266.5326633165829
aF420.0
aa(lp200
F263.6683417085427
aF420.0
aa(lp201
F260.80402010050244
aF420.0
aa(lp202
F257.93969849246224
aF420.0
aa(lp203
F255.07537688442207
aF420.0
aa(lp204
F252.21105527638187
aF420.0
aa(lp205
F249.34673366834167
aF420.0
aa(lp206
F246.48241206030147
aF420.0
aa(lp207
F243.61809045226127
aF420.0
aa(lp208
F240.75376884422104
aF420.0
aa(lp209
F237.88944723618084
aF418.59296482412054
aa(lp210
F235.02512562814064
aF416.6834170854271
aa(lp211
F232.16080402010044
aF414.77386934673365
aa(lp212
F229.29648241206024
aF412.86432160804014
aa(lp213
F226.43216080402004
aF410.9547738693467
aa(lp214
F223.56783919597984
aF409.04522613065325
aa(lp215
F220.70351758793964
aF407.13567839195974
aa(lp216
F217.83919597989944
aF405.2261306532663
aa(lp217
F214.97487437185924
aF403.31658291457285
aa(lp218
F212.11055276381904
aF401.40703517587934
aa(lp219
F209.4974874371859
aF399.24623115577884
aa(lp220
F207.58793969849242
aF396.38190954773864
aa(lp221
F205.67839195979897
aF393.51758793969844
aa(lp222
F203.7688442211055
aF390.65326633165824
aa(lp223
F201.85929648241202
aF387.78894472361804
aa(lp224
F199.94974874371854
aF384.92462311557784
aa(lp225
F198.0402010050251
aF382.06030150753764
aa(lp226
F196.13065326633162
aF379.19597989949744
aa(lp227
F194.22110552763814
aF376.33165829145725
aa(lp228
F192.3115577889447
aF373.46733668341705
aa(lp229
F190.40201005025122
aF370.60301507537685
aa(lp230
F189.24623115577887
aF366.2311557788944
aa(lp231
F188.29145728643215
aF361.45728643216074
aa(lp232
F187.33668341708542
aF356.68341708542704
aa(lp233
F186.38190954773867
aF351.9095477386934
aa(lp234
F185.42713567839195
aF347.13567839195974
aa(lp235
F184.47236180904522
aF342.3618090452261
aa(lp236
F183.51758793969847
aF337.5879396984924
aa(lp237
F182.56281407035175
aF332.81407035175874
aa(lp238
F181.60804020100502
aF328.0402010050251
aa(lp239
F180.6532663316583
aF323.26633165829145
aag113
asS'pin_pts'
p240
(lp241
(lp242
g2
(g16
S'\xdc\x00\x00\x00\x00\x00\x00\x00'
p243
tp244
Rp245
ag2
(g16
S'P\x00\x00\x00\x00\x00\x00\x00'
p246
tp247
Rp248
aa(lp249
g2
(g16
S'\xc8\x00\x00\x00\x00\x00\x00\x00'
p250
tp251
Rp252
ag2
(g16
S'P\x00\x00\x00\x00\x00\x00\x00'
p253
tp254
Rp255
aa(lp256
g2
(g16
S'Z\x00\x00\x00\x00\x00\x00\x00'
p257
tp258
Rp259
ag2
(g16
S'x\x00\x00\x00\x00\x00\x00\x00'
p260
tp261
Rp262
aa(lp263
g2
(g16
S'F\x00\x00\x00\x00\x00\x00\x00'
p264
tp265
Rp266
ag2
(g16
S'\xe6\x00\x00\x00\x00\x00\x00\x00'
p267
tp268
Rp269
aa(lp270
g2
(g16
S'\xb4\x00\x00\x00\x00\x00\x00\x00'
p271
tp272
Rp273
ag2
(g16
S'\xbe\x00\x00\x00\x00\x00\x00\x00'
p274
tp275
Rp276
aa(lp277
g2
(g16
S'\x04\x01\x00\x00\x00\x00\x00\x00'
p278
tp279
Rp280
ag2
(g16
S'\xa0\x00\x00\x00\x00\x00\x00\x00'
p281
tp282
Rp283
aa(lp284
g2
(g16
S'2\x00\x00\x00\x00\x00\x00\x00'
p285
tp286
Rp287
ag2
(g16
S'\x04\x01\x00\x00\x00\x00\x00\x00'
p288
tp289
Rp290
aa(lp291
g2
(g16
S'\x96\x00\x00\x00\x00\x00\x00\x00'
p292
tp293
Rp294
ag2
(g16
S'\xbe\x00\x00\x00\x00\x00\x00\x00'
p295
tp296
Rp297
aag26
a(lp298
g2
(g16
S'\x8c\x00\x00\x00\x00\x00\x00\x00'
p299
tp300
Rp301
ag2
(g16
S'\xdc\x00\x00\x00\x00\x00\x00\x00'
p302
tp303
Rp304
aa(lp305
g2
(g16
S'\x18\x01\x00\x00\x00\x00\x00\x00'
p306
tp307
Rp308
ag2
(g16
S'\xaa\x00\x00\x00\x00\x00\x00\x00'
p309
tp310
Rp311
aa(lp312
g2
(g16
S'2\x00\x00\x00\x00\x00\x00\x00'
p313
tp314
Rp315
ag2
(g16
S'\xdc\x00\x00\x00\x00\x00\x00\x00'
p316
tp317
Rp318
aa(lp319
g2
(g16
S'\x82\x00\x00\x00\x00\x00\x00\x00'
p320
tp321
Rp322
ag2
(g16
S'\xe6\x00\x00\x00\x00\x00\x00\x00'
p323
tp324
Rp325
aa(lp326
g2
(g16
S'\xbe\x00\x00\x00\x00\x00\x00\x00'
p327
tp328
Rp329
ag2
(g16
S'\x04\x01\x00\x00\x00\x00\x00\x00'
p330
tp331
Rp332
aa(lp333
g2
(g16
S'\x82\x00\x00\x00\x00\x00\x00\x00'
p334
tp335
Rp336
ag2
(g16
S'\xfa\x00\x00\x00\x00\x00\x00\x00'
p337
tp338
Rp339
aa(lp340
g2
(g16
S'\xbe\x00\x00\x00\x00\x00\x00\x00'
p341
tp342
Rp343
ag2
(g16
S'2\x00\x00\x00\x00\x00\x00\x00'
p344
tp345
Rp346
aa(lp347
g2
(g16
S'\x0e\x01\x00\x00\x00\x00\x00\x00'
p348
tp349
Rp350
ag2
(g16
S'\x82\x00\x00\x00\x00\x00\x00\x00'
p351
tp352
Rp353
aa(lp354
g2
(g16
S'"\x01\x00\x00\x00\x00\x00\x00'
p355
tp356
Rp357
ag2
(g16
S'<\x00\x00\x00\x00\x00\x00\x00'
p358
tp359
Rp360
aa(lp361
g2
(g16
S'\x0e\x01\x00\x00\x00\x00\x00\x00'
p362
tp363
Rp364
ag2
(g16
S'F\x00\x00\x00\x00\x00\x00\x00'
p365
tp366
Rp367
aa(lp368
g2
(g16
S'Z\x00\x00\x00\x00\x00\x00\x00'
p369
tp370
Rp371
ag2
(g16
S'\x0e\x01\x00\x00\x00\x00\x00\x00'
p372
tp373
Rp374
aa(lp375
g2
(g16
S'\x96\x00\x00\x00\x00\x00\x00\x00'
p376
tp377
Rp378
ag2
(g16
S'"\x01\x00\x00\x00\x00\x00\x00'
p379
tp380
Rp381
aa(lp382
g2
(g16
S'"\x01\x00\x00\x00\x00\x00\x00'
p383
tp384
Rp385
ag2
(g16
S'F\x00\x00\x00\x00\x00\x00\x00'
p386
tp387
Rp388
aa(lp389
g2
(g16
S'\x18\x01\x00\x00\x00\x00\x00\x00'
p390
tp391
Rp392
ag2
(g16
S'2\x00\x00\x00\x00\x00\x00\x00'
p393
tp394
Rp395
aa(lp396
g2
(g16
S'\xa0\x00\x00\x00\x00\x00\x00\x00'
p397
tp398
Rp399
ag2
(g16
S'\xaa\x00\x00\x00\x00\x00\x00\x00'
p400
tp401
Rp402
aag13
a(lp403
g2
(g16
S'\xa0\x00\x00\x00\x00\x00\x00\x00'
p404
tp405
Rp406
ag2
(g16
S'\xf0\x00\x00\x00\x00\x00\x00\x00'
p407
tp408
Rp409
aa(lp410
g2
(g16
S'F\x00\x00\x00\x00\x00\x00\x00'
p411
tp412
Rp413
ag2
(g16
S'd\x00\x00\x00\x00\x00\x00\x00'
p414
tp415
Rp416
aa(lp417
g2
(g16
S'P\x00\x00\x00\x00\x00\x00\x00'
p418
tp419
Rp420
ag2
(g16
S'\x04\x01\x00\x00\x00\x00\x00\x00'
p421
tp422
Rp423
aa(lp424
g2
(g16
S'\xc8\x00\x00\x00\x00\x00\x00\x00'
p425
tp426
Rp427
ag2
(g16
S'\x18\x01\x00\x00\x00\x00\x00\x00'
p428
tp429
Rp430
aa(lp431
g2
(g16
S'\xfa\x00\x00\x00\x00\x00\x00\x00'
p432
tp433
Rp434
ag2
(g16
S'F\x00\x00\x00\x00\x00\x00\x00'
p435
tp436
Rp437
aasS'trajectory'
p438
(lp439
(lp440
g114
ag115
ag116
ag117
ag118
ag119
ag120
ag121
ag122
ag123
ag124
ag125
ag126
ag127
ag128
ag129
ag130
ag131
ag132
ag133
ag134
ag135
ag136
ag137
ag138
ag139
ag140
ag141
ag142
ag143
ag144
ag145
ag146
ag147
ag148
ag149
ag150
ag151
ag152
ag153
ag154
ag155
ag156
ag157
ag158
ag159
ag160
ag161
ag162
ag163
ag164
ag165
ag166
ag167
ag168
ag169
ag170
ag171
ag172
ag173
ag174
ag175
ag176
ag177
ag178
ag179
ag180
ag181
ag182
ag183
ag184
ag185
ag186
ag187
ag188
ag189
ag190
ag191
ag192
ag193
ag194
ag195
ag196
ag197
ag198
ag199
ag200
ag201
ag202
ag203
ag204
ag205
ag206
ag207
ag208
ag209
ag210
ag211
ag212
ag213
ag214
ag215
ag216
ag217
ag218
ag219
ag220
ag221
ag222
ag223
ag224
ag225
ag226
ag227
ag228
ag229
ag230
ag231
ag232
ag233
ag234
ag235
ag236
ag237
ag238
ag239
ag113
aa(lp441
g40
ag41
ag42
ag43
ag44
ag45
ag46
ag47
ag48
ag49
ag50
ag51
ag52
ag53
ag54
ag55
ag56
ag57
ag58
ag59
ag60
ag61
ag62
ag63
ag64
ag65
ag66
ag67
ag68
ag69
ag70
ag71
ag72
ag73
ag74
ag75
ag76
ag77
ag78
ag79
ag80
ag81
ag82
ag83
ag84
ag85
ag86
ag87
ag88
ag89
ag90
ag91
ag92
ag93
ag94
ag95
ag96
ag97
ag98
ag99
ag100
ag101
ag102
ag103
ag104
ag105
ag106
ag107
ag108
ag109
ag110
ag111
ag112
ag113
aasS'pin_scores'
p442
(lp443
g2
(g6
S'\x00\x00\x00\x00\x00\x80C\xc0'
p444
tp445
Rp446
ag2
(g6
S'\x00\x00\x00\x00\x00\x00B\xc0'
p447
tp448
Rp449
ag2
(g6
S'\x00\x00\x00\x00\x00\x00D\xc0'
p450
tp451
Rp452
ag2
(g6
S'\x00\x00\x00\x00\x00\x00E\xc0'
p453
tp454
Rp455
ag2
(g6
S'\x00\x00\x00\x00\x00\x80D\xc0'
p456
tp457
Rp458
ag2
(g6
S'\x00\x00\x00\x00\x00\x007\xc0'
p459
tp460
Rp461
ag2
(g6
S'\x00\x00\x00\x00\x00\x80@\xc0'
p462
tp463
Rp464
ag2
(g6
S'\x00\x00\x00\x00\x00\x00D\xc0'
p465
tp466
Rp467
ag2
(g6
S'\x00\x00\x00\x00\x00\x80C\xc0'
p468
tp469
Rp470
ag2
(g6
S'\x00\x00\x00\x00\x00\x00D\xc0'
p471
tp472
Rp473
ag2
(g6
S'\x00\x00\x00\x00\x00\x007\xc0'
p474
tp475
Rp476
ag2
(g6
S'\x00\x00\x00\x00\x00\x80D\xc0'
p477
tp478
Rp479
ag2
(g6
S'\x00\x00\x00\x00\x00\x00D\xc0'
p480
tp481
Rp482
ag2
(g6
S'\x00\x00\x00\x00\x00\x00<\xc0'
p483
tp484
Rp485
ag2
(g6
S'\x00\x00\x00\x00\x00\x00@\xc0'
p486
tp487
Rp488
ag2
(g6
S'\x00\x00\x00\x00\x00\x80C\xc0'
p489
tp490
Rp491
ag2
(g6
S'\x00\x00\x00\x00\x00\x00;\xc0'
p492
tp493
Rp494
ag2
(g6
S'\x00\x00\x00\x00\x00\x80C\xc0'
p495
tp496
Rp497
ag2
(g6
S'\x00\x00\x00\x00\x00\x80B\xc0'
p498
tp499
Rp500
ag2
(g6
S'\x00\x00\x00\x00\x00\x00>\xc0'
p501
tp502
Rp503
ag2
(g6
S'\x00\x00\x00\x00\x00\x00<\xc0'
p504
tp505
Rp506
ag2
(g6
S'\x00\x00\x00\x00\x00\x80D\xc0'
p507
tp508
Rp509
ag2
(g6
S'\x00\x00\x00\x00\x00\x00C\xc0'
p510
tp511
Rp512
ag2
(g6
S'\x00\x00\x00\x00\x00\x80C\xc0'
p513
tp514
Rp515
ag2
(g6
S'\x00\x00\x00\x00\x00\x005\xc0'
p516
tp517
Rp518
ag2
(g6
S'\x00\x00\x00\x00\x00\x80@\xc0'
p519
tp520
Rp521
ag2
(g6
S'\x00\x00\x00\x00\x00\x00C\xc0'
p522
tp523
Rp524
ag2
(g6
S'\x00\x00\x00\x00\x00\x00C\xc0'
p525
tp526
Rp527
ag2
(g6
S'\x00\x00\x00\x00\x00\x00;\xc0'
p528
tp529
Rp530
ag2
(g6
S'\x00\x00\x00\x00\x00\x80C\xc0'
p531
tp532
Rp533
asS'best_score'
p534
g518
s.