(dp0
S'worst_score'
p1
I35
sS'totalpts'
p2
I84
sS'trajectory'
p3
(lp4
(lp5
(lp6
F480.0
aF314.11290322580646
aa(lp7
F480.0
aF316.5322580645161
aa(lp8
F480.0
aF318.9516129032258
aa(lp9
F480.0
aF321.3709677419355
aa(lp10
F480.0
aF323.7903225806451
aa(lp11
F480.0
aF326.2096774193548
aa(lp12
F480.0
aF328.6290322580645
aa(lp13
F480.0
aF331.0483870967742
aa(lp14
F480.0
aF333.46774193548384
aa(lp15
F480.0
aF335.88709677419354
aa(lp16
F479.6774193548387
aF338.30645161290323
aa(lp17
F478.7096774193548
aF340.72580645161287
aa(lp18
F477.741935483871
aF343.14516129032256
aa(lp19
F476.7741935483871
aF345.56451612903226
aa(lp20
F475.80645161290323
aF347.98387096774195
aa(lp21
F474.8387096774194
aF350.4032258064516
aa(lp22
F473.8709677419355
aF352.8225806451613
aa(lp23
F472.90322580645164
aF355.241935483871
aa(lp24
F471.93548387096774
aF357.6612903225806
aa(lp25
F470.9677419354839
aF360.0806451612903
aa(lp26
F470.0
aF362.5
aa(lp27
F467.0967741935484
aF363.7096774193548
aa(lp28
F464.19354838709677
aF364.9193548387097
aa(lp29
F461.2903225806452
aF366.1290322580645
aa(lp30
F458.38709677419354
aF367.33870967741933
aa(lp31
F455.48387096774195
aF368.5483870967742
aa(lp32
F452.58064516129036
aF369.758064516129
aa(lp33
F449.6774193548387
aF370.96774193548384
aa(lp34
F446.7741935483871
aF372.1774193548387
aa(lp35
F443.8709677419355
aF373.38709677419354
aa(lp36
F440.9677419354839
aF374.5967741935484
aa(lp37
F438.7096774193549
aF375.0
aa(lp38
F436.7741935483871
aF375.0
aa(lp39
F434.8387096774194
aF375.0
aa(lp40
F432.90322580645164
aF375.0
aa(lp41
F430.9677419354839
aF375.0
aa(lp42
F429.03225806451616
aF375.0
aa(lp43
F427.0967741935484
aF375.0
aa(lp44
F425.16129032258067
aF375.0
aa(lp45
F423.2258064516129
aF375.0
aa(lp46
F421.2903225806452
aF375.0
aa(lp47
F419.6774193548387
aF374.19354838709677
aa(lp48
F418.7096774193548
aF371.7741935483871
aa(lp49
F417.741935483871
aF369.35483870967744
aa(lp50
F416.7741935483871
aF366.93548387096774
aa(lp51
F415.80645161290323
aF364.51612903225805
aa(lp52
F414.83870967741933
aF362.0967741935484
aa(lp53
F413.8709677419355
aF359.6774193548387
aa(lp54
F412.9032258064516
aF357.258064516129
aa(lp55
F411.93548387096774
aF354.83870967741933
aa(lp56
F410.96774193548384
aF352.4193548387097
aa(lp57
F410.0
aF350.0
aa(lp58
F410.0
aF350.0
aa(lp59
F409.03225806451616
aF350.0
aa(lp60
F408.0645161290323
aF350.0
aa(lp61
F407.0967741935484
aF350.0
aa(lp62
F406.1290322580645
aF350.0
aa(lp63
F405.16129032258067
aF350.0
aa(lp64
F404.19354838709677
aF350.0
aa(lp65
F403.2258064516129
aF350.0
aa(lp66
F402.258064516129
aF350.0
aa(lp67
F401.2903225806452
aF350.0
aa(lp68
F400.32258064516134
aF350.0
aa(lp69
F399.35483870967744
aF350.80645161290323
aa(lp70
F398.3870967741936
aF352.01612903225805
aa(lp71
F397.4193548387097
aF353.22580645161287
aa(lp72
F396.4516129032258
aF354.43548387096774
aa(lp73
F395.48387096774195
aF355.64516129032256
aa(lp74
F394.5161290322581
aF356.8548387096774
aa(lp75
F393.5483870967742
aF358.06451612903226
aa(lp76
F392.58064516129036
aF359.2741935483871
aa(lp77
F391.61290322580646
aF360.4838709677419
aa(lp78
F390.6451612903226
aF361.69354838709677
aa(lp79
F390.0
aF363.3064516129031
aa(lp80
F390.0
aF365.72580645161287
aa(lp81
F390.0
aF368.1451612903225
aa(lp82
F390.0
aF370.56451612903214
aa(lp83
F390.0
aF372.9838709677419
aa(lp84
F390.0
aF375.40322580645153
aa(lp85
F390.0
aF377.82258064516117
aa(lp86
F390.0
aF380.2419354838709
aa(lp87
F390.0
aF382.66129032258056
aa(lp88
F390.0
aF385.08064516129025
aa(lp89
F390.0
aF387.4999999999999
aa(lp90
F389.03225806451616
aF391.12903225806434
aa(lp91
F388.06451612903226
aF394.75806451612897
aa(lp92
F387.0967741935484
aF398.3870967741934
aa(lp93
F386.12903225806457
aF402.01612903225794
aa(lp94
F385.16129032258067
aF405.6451612903225
aa(lp95
F384.1935483870968
aF409.274193548387
aa(lp96
F383.2258064516129
aF412.9032258064515
aa(lp97
F382.258064516129
aF416.5322580645161
aa(lp98
F381.2903225806452
aF420.16129032258056
aa(lp99
F380.32258064516134
aF423.79032258064507
aa(lp100
F378.0645161290323
aF426.6129032258064
aa(lp101
F375.1612903225807
aF429.0322580645161
aa(lp102
F372.258064516129
aF431.4516129032258
aa(lp103
F369.35483870967744
aF433.87096774193543
aa(lp104
F366.4516129032259
aF436.29032258064507
aa(lp105
F363.5483870967742
aF438.7096774193548
aa(lp106
F360.6451612903226
aF441.12903225806446
aa(lp107
F357.7419354838711
aF443.5483870967741
aa(lp108
F354.8387096774194
aF445.96774193548384
aa(lp109
F351.9354838709678
aF448.3870967741935
aa(lp110
F349.03225806451627
aF450.0
aa(lp111
F346.12903225806457
aF450.0
aa(lp112
F343.225806451613
aF450.0
aa(lp113
F340.32258064516134
aF450.0
aa(lp114
F337.41935483870975
aF450.0
aa(lp115
F334.51612903225816
aF450.0
aa(lp116
F331.6129032258065
aF450.0
aa(lp117
F328.70967741935493
aF450.0
aa(lp118
F325.80645161290334
aF450.0
aa(lp119
F322.9032258064517
aF450.0
aa(lp120
F320.0000000000001
aF450.0
aa(lp121
F316.1290322580647
aF448.79032258064524
aa(lp122
F312.25806451612914
aF447.58064516129036
aa(lp123
F308.38709677419365
aF446.37096774193554
aa(lp124
F304.5161290322582
aF445.16129032258067
aa(lp125
F300.6451612903226
aF443.95161290322585
aa(lp126
F296.7741935483872
aF442.741935483871
aa(lp127
F292.9032258064516
aF441.53225806451616
aa(lp128
F289.03225806451616
aF440.3225806451613
aa(lp129
F285.1612903225807
aF439.11290322580646
aa(lp130
F281.2903225806451
aF437.9032258064516
aa(lp131
F278.0645161290323
aF435.8870967741936
aa(lp132
F275.1612903225807
aF433.4677419354839
aa(lp133
F272.258064516129
aF431.0483870967742
aa(lp134
F269.35483870967744
aF428.62903225806457
aa(lp135
F266.4516129032259
aF426.20967741935493
aa(lp136
F263.5483870967742
aF423.7903225806452
aa(lp137
F260.6451612903226
aF421.37096774193554
aa(lp138
F257.7419354838711
aF418.9516129032259
aa(lp139
F254.8387096774194
aF416.53225806451616
aa(lp140
F251.93548387096783
aF414.1129032258065
aa(lp141
F249.67741935483872
aF411.2903225806452
aa(lp142
F248.70967741935485
aF407.6612903225807
aa(lp143
F247.741935483871
aF404.03225806451627
aa(lp144
F246.7741935483871
aF400.40322580645164
aa(lp145
F245.80645161290326
aF396.7741935483872
aa(lp146
F244.8387096774194
aF393.14516129032273
aa(lp147
F243.8709677419355
aF389.5161290322581
aa(lp148
F242.90322580645164
aF385.88709677419365
aa(lp149
F241.93548387096777
aF382.2580645161292
aa(lp150
F240.9677419354839
aF378.62903225806457
aa(lp151
F240.00000000000003
aF375.0000000000001
aa(lp152
F238.06451612903228
aF368.95161290322585
aa(lp153
F236.12903225806457
aF362.90322580645176
aa(lp154
F234.19354838709683
aF356.8548387096776
aa(lp155
F232.25806451612905
aF350.8064516129033
aa(lp156
F230.3225806451613
aF344.75806451612914
aa(lp157
F228.3870967741936
aF338.709677419355
aa(lp158
F226.4516129032258
aF332.66129032258067
aa(lp159
F224.51612903225808
aF326.6129032258065
aa(lp160
F222.58064516129036
aF320.56451612903237
aa(lp161
F220.64516129032256
aF314.51612903225805
aaa(lp162
g6
a(lp163
F479.6774193548387
aF311.69354838709677
aa(lp164
F478.7096774193548
aF309.2741935483871
aa(lp165
F477.741935483871
aF306.8548387096774
aa(lp166
F476.7741935483871
aF304.43548387096774
aa(lp167
F475.80645161290323
aF302.01612903225805
aa(lp168
F474.83870967741933
aF299.59677419354836
aa(lp169
F473.8709677419355
aF297.1774193548387
aa(lp170
F472.9032258064516
aF294.758064516129
aa(lp171
F471.93548387096774
aF292.33870967741933
aa(lp172
F470.96774193548384
aF289.91935483870964
aa(lp173
F470.0
aF287.5
aa(lp174
F469.0322580645161
aF286.2903225806451
aa(lp175
F468.06451612903226
aF285.0806451612903
aa(lp176
F467.09677419354836
aF283.8709677419355
aa(lp177
F466.1290322580645
aF282.6612903225806
aa(lp178
F465.1612903225806
aF281.4516129032258
aa(lp179
F464.19354838709677
aF280.241935483871
aa(lp180
F463.2258064516129
aF279.0322580645161
aa(lp181
F462.258064516129
aF277.8225806451613
aa(lp182
F461.2903225806452
aF276.61290322580646
aa(lp183
F460.3225806451613
aF275.4032258064516
aa(lp184
F457.41935483870964
aF275.0
aa(lp185
F453.54838709677415
aF275.0
aa(lp186
F449.67741935483866
aF275.0
aa(lp187
F445.8064516129032
aF275.0
aa(lp188
F441.9354838709677
aF275.0
aa(lp189
F438.06451612903226
aF275.0
aa(lp190
F434.1935483870967
aF275.0
aa(lp191
F430.3225806451612
aF275.0
aa(lp192
F426.4516129032258
aF275.0
aa(lp193
F422.5806451612903
aF275.0
aa(lp194
F419.6774193548387
aF275.40322580645164
aa(lp195
F418.7096774193548
aF276.61290322580646
aa(lp196
F417.741935483871
aF277.8225806451613
aa(lp197
F416.7741935483871
aF279.03225806451616
aa(lp198
F415.80645161290323
aF280.241935483871
aa(lp199
F414.83870967741933
aF281.4516129032258
aa(lp200
F413.8709677419355
aF282.66129032258067
aa(lp201
F412.9032258064516
aF283.8709677419355
aa(lp202
F411.93548387096774
aF285.0806451612903
aa(lp203
F410.96774193548384
aF286.2903225806452
aa(lp204
F409.99999999999994
aF287.5
aa(lp205
F408.0645161290322
aF288.7096774193549
aa(lp206
F406.1290322580645
aF289.9193548387097
aa(lp207
F404.19354838709677
aF291.1290322580645
aa(lp208
F402.258064516129
aF292.3387096774194
aa(lp209
F400.3225806451613
aF293.5483870967742
aa(lp210
F398.38709677419354
aF294.758064516129
aa(lp211
F396.4516129032258
aF295.9677419354839
aa(lp212
F394.51612903225805
aF297.1774193548387
aa(lp213
F392.5806451612903
aF298.38709677419354
aa(lp214
F390.64516129032256
aF299.5967741935484
aa(lp215
F389.35483870967744
aF299.19354838709677
aa(lp216
F388.38709677419354
aF297.98387096774195
aa(lp217
F387.4193548387097
aF296.7741935483871
aa(lp218
F386.4516129032258
aF295.56451612903226
aa(lp219
F385.4838709677419
aF294.3548387096774
aa(lp220
F384.51612903225805
aF293.14516129032256
aa(lp221
F383.5483870967742
aF291.93548387096774
aa(lp222
F382.5806451612903
aF290.72580645161287
aa(lp223
F381.61290322580646
aF289.51612903225805
aa(lp224
F380.64516129032256
aF288.30645161290323
aa(lp225
F379.3548387096774
aF286.69354838709677
aa(lp226
F377.41935483870964
aF284.2741935483871
aa(lp227
F375.4838709677419
aF281.8548387096774
aa(lp228
F373.54838709677415
aF279.4354838709677
aa(lp229
F371.6129032258064
aF277.016129032258
aa(lp230
F369.67741935483866
aF274.5967741935483
aa(lp231
F367.7419354838709
aF272.17741935483866
aa(lp232
F365.8064516129032
aF269.75806451612897
aa(lp233
F363.87096774193543
aF267.3387096774193
aa(lp234
F361.93548387096774
aF264.91935483870964
aa(lp235
F359.99999999999994
aF262.49999999999994
aa(lp236
F358.0645161290322
aF260.08064516129025
aa(lp237
F356.12903225806446
aF257.66129032258056
aa(lp238
F354.19354838709677
aF255.24193548387095
aa(lp239
F352.258064516129
aF252.82258064516125
aa(lp240
F350.3225806451612
aF250.40322580645156
aa(lp241
F348.38709677419354
aF247.98387096774192
aa(lp242
F346.4516129032258
aF245.56451612903223
aa(lp243
F344.51612903225805
aF243.14516129032253
aa(lp244
F342.5806451612903
aF240.72580645161287
aa(lp245
F340.64516129032256
aF238.3064516129032
aa(lp246
F338.7096774193548
aF235.88709677419354
aa(lp247
F336.7741935483871
aF233.46774193548384
aa(lp248
F334.83870967741933
aF231.04838709677418
aa(lp249
F332.9032258064516
aF228.62903225806448
aa(lp250
F330.96774193548384
aF226.2096774193548
aa(lp251
F329.0322580645161
aF223.79032258064512
aa(lp252
F327.09677419354836
aF221.37096774193546
aa(lp253
F325.1612903225806
aF218.95161290322577
aa(lp254
F323.22580645161287
aF216.53225806451607
aa(lp255
F321.2903225806451
aF214.11290322580638
aa(lp256
F318.3870967741935
aF212.5
aa(lp257
F313.5483870967741
aF212.5
aa(lp258
F308.70967741935476
aF212.5
aa(lp259
F303.87096774193543
aF212.5
aa(lp260
F299.0322580645161
aF212.5
aa(lp261
F294.1935483870967
aF212.5
aa(lp262
F289.3548387096773
aF212.5
aa(lp263
F284.51612903225805
aF212.5
aa(lp264
F279.67741935483866
aF212.5
aa(lp265
F274.8387096774193
aF212.5
aa(lp266
F270.0
aF212.5
aa(lp267
F267.09677419354836
aF216.12903225806454
aa(lp268
F264.19354838709677
aF219.75806451612908
aa(lp269
F261.2903225806451
aF223.38709677419362
aa(lp270
F258.38709677419354
aF227.01612903225808
aa(lp271
F255.48387096774186
aF230.64516129032268
aa(lp272
F252.58064516129028
aF234.27419354838716
aa(lp273
F249.6774193548387
aF237.90322580645164
aa(lp274
F246.77419354838702
aF241.53225806451624
aa(lp275
F243.87096774193543
aF245.1612903225807
aa(lp276
F240.96774193548387
aF248.79032258064518
aa(lp277
F238.7096774193548
aF254.0322580645163
aa(lp278
F236.77419354838707
aF260.0806451612904
aa(lp279
F234.83870967741936
aF266.1290322580645
aa(lp280
F232.9032258064516
aF272.17741935483883
aa(lp281
F230.96774193548384
aF278.2258064516129
aa(lp282
F229.03225806451616
aF284.2741935483871
aa(lp283
F227.09677419354836
aF290.3225806451614
aa(lp284
F225.16129032258064
aF296.3709677419355
aa(lp285
F223.22580645161287
aF302.4193548387098
aa(lp286
F221.29032258064515
aF308.4677419354839
aag161
aasS'best_score'
p287
I33
sS'init_score'
p288
I0
sS'old_trajectory'
p289
(lp290
g6
ag163
ag164
ag165
ag166
ag167
ag168
ag169
ag170
ag171
ag172
ag173
ag174
ag175
ag176
ag177
ag178
ag179
ag180
ag181
ag182
ag183
ag184
ag185
ag186
ag187
ag188
ag189
ag190
ag191
ag192
ag193
ag194
ag195
ag196
ag197
ag198
ag199
ag200
ag201
ag202
ag203
ag204
ag205
ag206
ag207
ag208
ag209
ag210
ag211
ag212
ag213
ag214
ag215
ag216
ag217
ag218
ag219
ag220
ag221
ag222
ag223
ag224
ag225
ag226
ag227
ag228
ag229
ag230
ag231
ag232
ag233
ag234
ag235
ag236
ag237
ag238
ag239
ag240
ag241
ag242
ag243
ag244
ag245
ag246
ag247
ag248
ag249
ag250
ag251
ag252
ag253
ag254
ag255
ag256
ag257
ag258
ag259
ag260
ag261
ag262
ag263
ag264
ag265
ag266
ag267
ag268
ag269
ag270
ag271
ag272
ag273
ag274
ag275
ag276
ag277
ag278
ag279
ag280
ag281
ag282
ag283
ag284
ag285
ag286
ag161
ag6
ag7
ag8
ag9
ag10
ag11
ag12
ag13
ag14
ag15
ag16
ag17
ag18
ag19
ag20
ag21
ag22
ag23
ag24
ag25
ag26
ag27
ag28
ag29
ag30
ag31
ag32
ag33
ag34
ag35
ag36
ag37
ag38
ag39
ag40
ag41
ag42
ag43
ag44
ag45
ag46
ag47
ag48
ag49
ag50
ag51
ag52
ag53
ag54
ag55
ag56
ag57
ag58
ag59
ag60
ag61
ag62
ag63
ag64
ag65
ag66
ag67
ag68
ag69
ag70
ag71
ag72
ag73
ag74
ag75
ag76
ag77
ag78
ag79
ag80
ag81
ag82
ag83
ag84
ag85
ag86
ag87
ag88
ag89
ag90
ag91
ag92
ag93
ag94
ag95
ag96
ag97
ag98
ag99
ag100
ag101
ag102
ag103
ag104
ag105
ag106
ag107
ag108
ag109
ag110
ag111
ag112
ag113
ag114
ag115
ag116
ag117
ag118
ag119
ag120
ag121
ag122
ag123
ag124
ag125
ag126
ag127
ag128
ag129
ag130
ag131
ag132
ag133
ag134
ag135
ag136
ag137
ag138
ag139
ag140
ag141
ag142
ag143
ag144
ag145
ag146
ag147
ag148
ag149
ag150
ag151
ag152
ag153
ag154
ag155
ag156
ag157
ag158
ag159
ag160
ag161
asS'indices_of_pts'
p291
(lp292
(lp293
I51
aI50
aI49
aI48
aI47
aI46
aI45
aI44
aI43
aI42
aI41
aI40
aI39
aI38
aI37
aI36
aI35
aI34
aI33
aI32
aI31
aI30
aI29
aI28
aI27
aI26
aI25
aI24
aI23
aI22
aI21
aI20
aI19
aI18
aI17
aI16
aI15
aI14
aI13
aI12
aI11
aI10
aI9
aI8
aI7
aI6
aI5
aI4
aI3
aI2
aI1
aI0
aI279
aI278
aI277
aI276
aI275
aI274
aI273
aI272
aI271
aI270
aI269
aI268
aI267
aI266
aI265
aI264
aI263
aI262
aI261
aI260
aI259
aI258
aI257
aI256
aI255
aI254
aI253
aI252
aI251
aI250
aI249
aI248
aI247
aI246
aI245
aI244
aI243
aI242
aI241
aI240
aI239
aI238
aI237
aI236
aI235
aI234
aI233
aI232
aI231
aI230
aI229
aI228
aI227
aI226
aI225
aI224
aI223
aI222
aI221
aI220
aI219
aI218
aI217
aI216
aI215
aI214
aI213
aI212
aI211
aI210
aI209
aI208
aI207
aI206
aI205
aI204
aI203
aI202
aI201
aI200
aI199
aI198
aI197
aI196
aI195
aI194
aI193
aI192
aI191
aI190
aI189
aI188
aI187
aI186
aI185
aI184
aI183
aI182
aI181
aI180
aI179
aI178
aI177
aI176
aa(lp294
I51
aI52
aI53
aI54
aI55
aI56
aI57
aI58
aI59
aI60
aI61
aI62
aI63
aI64
aI65
aI66
aI67
aI68
aI69
aI70
aI71
aI72
aI73
aI74
aI75
aI76
aI77
aI78
aI79
aI80
aI81
aI82
aI83
aI84
aI85
aI86
aI87
aI88
aI89
aI90
aI91
aI92
aI93
aI94
aI95
aI96
aI97
aI98
aI99
aI100
aI101
aI102
aI103
aI104
aI105
aI106
aI107
aI108
aI109
aI110
aI111
aI112
aI113
aI114
aI115
aI116
aI117
aI118
aI119
aI120
aI121
aI122
aI123
aI124
aI125
aI126
aI127
aI128
aI129
aI130
aI131
aI132
aI133
aI134
aI135
aI136
aI137
aI138
aI139
aI140
aI141
aI142
aI143
aI144
aI145
aI146
aI147
aI148
aI149
aI150
aI151
aI152
aI153
aI154
aI155
aI156
aI157
aI158
aI159
aI160
aI161
aI162
aI163
aI164
aI165
aI166
aI167
aI168
aI169
aI170
aI171
aI172
aI173
aI174
aI175
aI176
aas.