(lp0
F0.04224264454232778
aF0.11320456721721912
aF-0.11350069261434848
a.(lp0
F0.04894678572418976
aF0.08881200012913613
aF-0.10997244728071802
a.(lp0
F0.057032236995093966
aF0.06429083024133674
aF-0.11792205154627579
a.(lp0
F0.06600404194782614
aF0.04619415693663364
aF-0.11852995554178757
a.(lp0
F0.0819300775898447
aF0.03286406540571292
aF-0.12276324862467179
a.(lp0
F0.09952404503573367
aF0.03030000579155776
aF-0.12504055357475818
a.(lp0
F0.1201018338629671
aF0.03136561790151314
aF-0.1278224137616983
a.(lp0
F0.1378612840309249
aF0.034751436271309624
aF-0.1260081776107485
a.