(lp0
F0.10324142955004245
aF0.095341658888602
aF-0.11352913944826482
a.(lp0
F0.03878213365888515
aF0.09058712285467924
aF-0.11494832794661904
a.(lp0
F0.10565093842467776
aF0.028873905138444293
aF-0.12487343644363297
a.(lp0
F0.04313256224605484
aF0.023686571135154544
aF-0.11488432884266643
a.