(lp0
F0.03797440197159545
aF0.05119670750864715
aF-0.1163954115290758
a.(lp0
F0.04073450042528858
aF0.04291175735046444
aF-0.11851705129365513
a.(lp0
F0.04872165461243116
aF0.035147956575975116
aF-0.11823362564333079
a.(lp0
F0.05838390602410011
aF0.033287312571172935
aF-0.11932383647880151
a.(lp0
F0.07169339975423845
aF0.037257651476466716
aF-0.12249930504368911
a.(lp0
F0.08358549734486936
aF0.044756442580008236
aF-0.12553045341808372
a.(lp0
F0.08664833344451583
aF0.06034961260073951
aF-0.11810733878474618
a.(lp0
F0.07821489351343686
aF0.07606249416435339
aF-0.1167280065140818
a.(lp0
F0.05957863081592563
aF0.08093690390824329
aF-0.11659661102602624
a.(lp0
F0.044151856225015565
aF0.07186436351704927
aF-0.11437677807683613
a.(lp0
F0.03486134778603884
aF0.056427974044300055
aF-0.11673514340840208
a.(lp0
F0.03407041550710096
aF0.04357170247454882
aF-0.11651539681196581
a.