(lp0
F0.01986518378735339
aF0.031362044769197406
aF-0.1182844007345269
a.(lp0
F0.035843781096969105
aF0.03455002935642632
aF-0.1179984016218418
a.(lp0
F0.04922048005220261
aF0.038364714197096486
aF-0.12011270264852343
a.(lp0
F0.06191423636226304
aF0.039544392188517984
aF-0.12200317998553552
a.(lp0
F0.07233070686223575
aF0.042110092238302484
aF-0.1217218973626575
a.(lp0
F0.07909226836248334
aF0.043781227285807786
aF-0.1230023582099544
a.(lp0
F0.0890458809645377
aF0.04529722380454802
aF-0.12241950227762181
a.(lp0
F0.09281976406459003
aF0.05790616718501066
aF-0.12049711334140695
a.(lp0
F0.09262518231212732
aF0.06574388582882416
aF-0.12108480552109188
a.(lp0
F0.08869977295224872
aF0.07456987286769662
aF-0.1189011330011789
a.(lp0
F0.0803879952274316
aF0.07754106242607513
aF-0.12280143016196338
a.(lp0
F0.06738671617896934
aF0.07515000147212156
aF-0.1188717168216706
a.(lp0
F0.05219506190837463
aF0.07260939369033316
aF-0.11900511610592661
a.(lp0
F0.040100861030174156
aF0.07103676612527529
aF-0.11772249466469097
a.(lp0
F0.015987232212440708
aF0.0652551827158804
aF-0.11184245944293848
a.