(lp0
F0.016853307825309673
aF0.030428772887699955
aF-0.12066497369293201
a.(lp0
F0.035169500961530445
aF0.0341009326039845
aF-0.12239914913453909
a.(lp0
F0.04670156414937205
aF0.0349901089497594
aF-0.1233078795464034
a.(lp0
F0.05410665621643213
aF0.03490683935002821
aF-0.12600134352601616
a.(lp0
F0.0694793787010524
aF0.03741230060658519
aF-0.1244759699947564
a.(lp0
F0.07999568460476268
aF0.04527232701995776
aF-0.12387529997712945
a.(lp0
F0.08365611428868876
aF0.05631268586903656
aF-0.12716883169480672
a.(lp0
F0.08024966567297274
aF0.06690300534863096
aF-0.12438999372485368
a.(lp0
F0.07745875153819526
aF0.07543645771766377
aF-0.12129958621577917
a.(lp0
F0.06660078356851039
aF0.07503244580696035
aF-0.12615060671474537
a.(lp0
F0.050997053767481995
aF0.0732604312716789
aF-0.12162574973916526
a.(lp0
F0.03641424272454801
aF0.07240606937843105
aF-0.11858443892937669
a.(lp0
F0.019034617492247215
aF0.06896522085985896
aF-0.11289596526771108
a.(lp0
F0.009649120628563785
aF0.06995468554275376
aF-0.11437624383210539
a.