(lp0
F0.10367636691922287
aF0.09700094111608058
aF-0.1157741717740293
a.(lp0
F0.04110304491056076
aF0.08879722031444341
aF-0.11418563915146314
a.(lp0
F0.11400355557128074
aF0.03345083821751832
aF-0.12457047406029607
a.(lp0
F0.05281759825352342
aF0.02510956737592577
aF-0.11823405357762402
a.