(lp0
F0.11358579997323698
aF0.10006345722727307
aF-0.11394406001455663
a.(lp0
F0.04304720540726073
aF0.08815693705768027
aF-0.11175912266894836
a.(lp0
F0.12564240068068375
aF0.029484273777228495
aF-0.12601370243040932
a.(lp0
F0.04383397844075455
aF0.018125557799956324
aF-0.11695882767951649
a.