(dp0
S'worst_score'
p1
cnumpy.core.multiarray
scalar
p2
(cnumpy
dtype
p3
(S'f8'
p4
I0
I1
tp5
Rp6
(I3
S'<'
p7
NNNI-1
I-1
I0
tp8
bS'\x00\x00\x00\x00\x00\x80h\xc0'
p9
tp10
Rp11
sS'best_pin_pt'
p12
(lp13
g2
(g3
(S'i8'
p14
I0
I1
tp15
Rp16
(I3
S'<'
p17
NNNI-1
I-1
I0
tp18
bS'\x18\x01\x00\x00\x00\x00\x00\x00'
p19
tp20
Rp21
ag2
(g16
S'\x04\x01\x00\x00\x00\x00\x00\x00'
p22
tp23
Rp24
asS'worst_pin_pt'
p25
(lp26
g2
(g16
S'\x82\x00\x00\x00\x00\x00\x00\x00'
p27
tp28
Rp29
ag2
(g16
S'\x18\x01\x00\x00\x00\x00\x00\x00'
p30
tp31
Rp32
asS'totalpts'
p33
I45
sS'indices_of_pts'
p34
(lp35
(lp36
I134
aI135
aI136
aI137
aI138
aI139
aI140
aI141
aI142
aI143
aI144
aI145
aI146
aI147
aI148
aI149
aI150
aI151
aI152
aI153
aI154
aI155
aI156
aI157
aI158
aI159
aI160
aI161
aI162
aI163
aI164
aI165
aI166
aI167
aI168
aI169
aI170
aI171
aI172
aI173
aI174
aI175
aI176
aI177
aI178
aI179
aI180
aI181
aI182
aI183
aI184
aI185
aI186
aI187
aI188
aI189
aI190
aI191
aI192
aI193
aI194
aI195
aI196
aI197
aI198
aI199
aI200
aI201
aI202
aI203
aI204
aI205
aI206
aI207
aI208
aI209
aI210
aI211
aI212
aI213
aI214
aI215
aI216
aI217
aa(lp37
I0
aI1
aI2
aI3
aI4
aI5
aI6
aI7
aI8
aI9
aI10
aI11
aI12
aI13
aI14
aI15
aI16
aI17
aI18
aI19
aI20
aI21
aI22
aI23
aI24
aI25
aI26
aI27
aI28
aI29
aI30
aI31
aI32
aI33
aI34
aI35
aI36
aI37
aI38
aI39
aI40
aI41
aI42
aI43
aI44
aI45
aI46
aI47
aI48
aI49
aI50
aI51
aI52
aI53
aI54
aI55
aI56
aI57
aI58
aI59
aI60
aI61
aI62
aI63
aI64
aI65
aI66
aI67
aI68
aI69
aI70
aI71
aI72
aI73
aI74
aI75
aI76
aI77
aI78
aI79
aI80
aI81
aI82
aI83
aI84
aI85
aI86
aI87
aI88
aI89
aI90
aI91
aI92
aI93
aI94
aI95
aI96
aI97
aI98
aI99
aI100
aI101
aI102
aI103
aI104
aI105
aI106
aI107
aI108
aI109
aI110
aI111
aI112
aI113
aI114
aI115
aI116
aI117
aI118
aI119
aI120
aI121
aI122
aI123
aI124
aI125
aI126
aI127
aI128
aI129
aI130
aI131
aI132
aI133
aI134
aI135
aI136
aI137
aI138
aI139
aI140
aI141
aI142
aI143
aI144
aI145
aI146
aI147
aI148
aI149
aI150
aI151
aI152
aI153
aI154
aI155
aI156
aI157
aI158
aI159
aI160
aI161
aI162
aI163
aI164
aI165
aI166
aI167
aI168
aI169
aI170
aI171
aI172
aI173
aI174
aI175
aI176
aI177
aI178
aI179
aI180
aI181
aI182
aI183
aI184
aI185
aI186
aI187
aI188
aI189
aI190
aI191
aI192
aI193
aI194
aI195
aI196
aI197
aI198
aI199
aI200
aI201
aI202
aI203
aI204
aI205
aI206
aI207
aI208
aI209
aI210
aI211
aI212
aI213
aI214
aI215
aI216
aI217
aI218
aI219
aI220
aI221
aI222
aI223
aI224
aI225
aI226
aI227
aI228
aI229
aI230
aI231
aI232
aI233
aI234
aI235
aI236
aI237
aI238
aI239
aI240
aI241
aI242
aI243
aI244
aI245
aI246
aI247
aI248
aI249
aI250
aI251
aI252
aI253
aI254
aI255
aI256
aI257
aI258
aI259
aI260
aI261
aI262
aI263
aI264
aI265
aI266
aI267
aI268
aI269
aI0
aI1
aI2
aI3
aI4
aI5
aI6
aI7
aI8
aI9
aI10
aI11
aI12
aI13
aI14
aI15
aI16
aI17
aI18
aI19
aI20
aI21
aI22
aI23
aI24
aI25
aI26
aI27
aI28
aI29
aI30
aI31
aI32
aI33
aI34
aI35
aI36
aI37
aI38
aI39
aI40
aI41
aa(lp38
I134
aI133
aI132
aI131
aI130
aI129
aI128
aI127
aI126
aI125
aI124
aI123
aI122
aI121
aI120
aI119
aI118
aI117
aI116
aI115
aI114
aI113
aI112
aI111
aI110
aI109
aI108
aI107
aI106
aI105
aI104
aI103
aI102
aI101
aI100
aI99
aI98
aI97
aI96
aI95
aI94
aI93
aI92
aI91
aI90
aI89
aI88
aI87
aI86
aI85
aI84
aI83
aI82
aI81
aI80
aI79
aI78
aI77
aI76
aI75
aI74
aI73
aI72
aI71
aI70
aI69
aI68
aI67
aI66
aI65
aI64
aI63
aI62
aI61
aI60
aI59
aI58
aI57
aI56
aI55
aI54
aI53
aI52
aI51
aI50
aI49
aI48
aI47
aI46
aI45
aI44
aI43
aI42
aI41
aa(lp39
asS'old_trajectory'
p40
(lp41
(lp42
F230.0
aF330.0
aa(lp43
F229.03345724907064
aF332.8996282527881
aa(lp44
F228.06691449814127
aF335.7992565055762
aa(lp45
F227.1003717472119
aF338.69888475836433
aa(lp46
F226.13382899628252
aF341.5985130111524
aa(lp47
F225.16728624535315
aF344.4981412639405
aa(lp48
F224.2007434944238
aF347.3977695167286
aa(lp49
F223.23420074349443
aF350.29739776951675
aa(lp50
F222.26765799256506
aF353.19702602230484
aa(lp51
F221.3011152416357
aF356.09665427509293
aa(lp52
F220.3345724907063
aF358.996282527881
aa(lp53
F219.36802973977694
aF361.2639405204461
aa(lp54
F218.40148698884758
aF363.19702602230484
aa(lp55
F217.43494423791822
aF365.13011152416357
aa(lp56
F216.46840148698885
aF367.0631970260223
aa(lp57
F215.5018587360595
aF368.996282527881
aa(lp58
F214.53531598513013
aF370.92936802973975
aa(lp59
F213.56877323420073
aF372.86245353159853
aa(lp60
F212.60223048327137
aF374.79553903345726
aa(lp61
F211.635687732342
aF376.728624535316
aa(lp62
F210.66914498141264
aF378.6617100371747
aa(lp63
F210.0
aF380.8921933085502
aa(lp64
F210.0
aF383.7918215613383
aa(lp65
F210.0
aF386.6914498141264
aa(lp66
F210.0
aF389.5910780669145
aa(lp67
F210.0
aF392.4907063197026
aa(lp68
F210.0
aF395.3903345724907
aa(lp69
F210.0
aF398.2899628252788
aa(lp70
F210.0
aF401.1895910780669
aa(lp71
F210.0
aF404.08921933085503
aa(lp72
F210.0
aF406.9888475836431
aa(lp73
F210.0
aF409.8884758364312
aa(lp74
F210.0
aF412.7881040892193
aa(lp75
F210.0
aF415.68773234200745
aa(lp76
F210.0
aF418.58736059479554
aa(lp77
F210.0
aF421.48698884758363
aa(lp78
F210.0
aF424.3866171003717
aa(lp79
F210.0
aF427.28624535315987
aa(lp80
F210.0
aF430.18587360594796
aa(lp81
F210.0
aF433.08550185873605
aa(lp82
F210.0
aF435.98513011152414
aa(lp83
F210.0
aF438.8847583643123
aa(lp84
F211.1895910780669
aF441.7843866171004
aa(lp85
F213.12267657992567
aF444.6840148698885
aa(lp86
F215.0557620817844
aF447.58364312267656
aa(lp87
F216.98884758364312
aF450.4832713754647
aa(lp88
F218.92193308550185
aF453.3828996282528
aa(lp89
F220.8550185873606
aF456.2825278810409
aa(lp90
F222.78810408921933
aF459.182156133829
aa(lp91
F224.72118959107806
aF462.08178438661713
aa(lp92
F226.6542750929368
aF464.9814126394052
aa(lp93
F228.58736059479554
aF467.8810408921933
aa(lp94
F231.04089219330857
aF470.52044609665427
aa(lp95
F234.90706319702602
aF472.453531598513
aa(lp96
F238.7732342007435
aF474.3866171003717
aa(lp97
F242.63940520446096
aF476.3197026022305
aa(lp98
F246.50557620817844
aF478.25278810408923
aa(lp99
F250.3717472118959
aF480.18587360594796
aa(lp100
F254.23791821561338
aF482.1189591078067
aa(lp101
F258.10408921933083
aF484.0520446096654
aa(lp102
F261.9702602230483
aF485.98513011152414
aa(lp103
F265.8364312267658
aF487.91821561338287
aa(lp104
F269.70260223048325
aF489.8513011152416
aa(lp105
F272.6765799256505
aF489.1078066914498
aa(lp106
F275.57620817843866
aF488.14126394052045
aa(lp107
F278.47583643122675
aF487.1747211895911
aa(lp108
F281.37546468401484
aF486.2081784386617
aa(lp109
F284.27509293680293
aF485.24163568773236
aa(lp110
F287.1747211895911
aF484.275092936803
aa(lp111
F290.0743494423792
aF483.3085501858736
aa(lp112
F292.97397769516726
aF482.34200743494426
aa(lp113
F295.87360594795535
aF481.3754646840149
aa(lp114
F298.7732342007435
aF480.4089219330855
aa(lp115
F301.1152416356877
aF478.8847583643123
aa(lp116
F303.04832713754644
aF476.95167286245356
aa(lp117
F304.9814126394052
aF475.0185873605948
aa(lp118
F306.91449814126395
aF473.08550185873605
aa(lp119
F308.8475836431227
aF471.1524163568773
aa(lp120
F310.7806691449814
aF469.2193308550186
aa(lp121
F312.71375464684013
aF467.28624535315987
aa(lp122
F314.6468401486989
aF465.3531598513011
aa(lp123
F316.5799256505576
aF463.4200743494424
aa(lp124
F318.51301115241637
aF461.48698884758363
aa(lp125
F320.4460966542751
aF459.3308550185874
aa(lp126
F322.3791821561338
aF456.43122676579924
aa(lp127
F324.31226765799255
aF453.53159851301115
aa(lp128
F326.24535315985133
aF450.63197026022306
aa(lp129
F328.17843866171
aF447.73234200743497
aa(lp130
F330.1115241635688
aF444.8327137546468
aa(lp131
F332.0446096654275
aF441.9330855018587
aa(lp132
F333.97769516728624
aF439.03345724907064
aa(lp133
F335.91078066914497
aF436.13382899628255
aa(lp134
F337.8438661710037
aF433.2342007434944
aa(lp135
F339.7769516728624
aF430.33457249070636
aa(lp136
F341.7100371747212
aF427.4349442379182
aa(lp137
F343.64312267657994
aF424.5353159851301
aa(lp138
F345.57620817843866
aF421.635687732342
aa(lp139
F347.5092936802974
aF418.73605947955394
aa(lp140
F349.4423791821561
aF415.8364312267658
aa(lp141
F351.37546468401484
aF412.9368029739777
aa(lp142
F353.3085501858736
aF410.03717472118956
aa(lp143
F355.24163568773236
aF407.1375464684015
aa(lp144
F357.1747211895911
aF404.2379182156134
aa(lp145
F359.1078066914498
aF401.3382899628253
aa(lp146
F360.52044609665427
aF397.91821561338287
aa(lp147
F361.48698884758363
aF394.0520446096655
aa(lp148
F362.453531598513
aF390.18587360594796
aa(lp149
F363.42007434944236
aF386.3197026022305
aa(lp150
F364.3866171003717
aF382.453531598513
aa(lp151
F365.3531598513011
aF378.58736059479554
aa(lp152
F366.3197026022305
aF374.72118959107803
aa(lp153
F367.28624535315987
aF370.85501858736063
aa(lp154
F368.25278810408923
aF366.9888475836431
aa(lp155
F369.2193308550186
aF363.12267657992567
aa(lp156
F370.18587360594796
aF359.0706319702602
aa(lp157
F371.1524163568773
aF354.23791821561343
aa(lp158
F372.1189591078067
aF349.40520446096656
aa(lp159
F373.08550185873605
aF344.57249070631974
aa(lp160
F374.0520446096654
aF339.73977695167287
aa(lp161
F375.0185873605948
aF334.9070631970261
aa(lp162
F375.98513011152414
aF330.07434944237923
aa(lp163
F376.9516728624535
aF325.2416356877324
aa(lp164
F377.91821561338287
aF320.40892193308554
aa(lp165
F378.88475836431223
aF315.5762081784388
aa(lp166
F379.8513011152416
aF310.7434944237919
aa(lp167
F380.0
aF305.9107806691451
aa(lp168
F380.0
aF301.0780669144982
aa(lp169
F380.0
aF296.2453531598514
aa(lp170
F380.0
aF291.4126394052045
aa(lp171
F380.0
aF286.57992565055764
aa(lp172
F380.0
aF281.7472118959108
aa(lp173
F380.0
aF276.91449814126395
aa(lp174
F380.0
aF272.0817843866172
aa(lp175
F380.0
aF267.2490706319703
aa(lp176
F380.0
aF262.4163568773235
aa(lp177
F379.51672862453535
aF257.5836431226766
aa(lp178
F378.550185873606
aF252.7509293680298
aa(lp179
F377.58364312267656
aF247.91821561338293
aa(lp180
F376.6171003717472
aF243.0855018587361
aa(lp181
F375.65055762081784
aF238.25278810408923
aa(lp182
F374.6840148698885
aF233.42007434944244
aa(lp183
F373.7174721189591
aF228.58736059479557
aa(lp184
F372.75092936802974
aF223.75464684014878
aa(lp185
F371.7843866171004
aF218.92193308550188
aa(lp186
F370.817843866171
aF214.0892193308551
aa(lp187
F369.70260223048325
aF209.10780669144984
aa(lp188
F367.7695167286246
aF203.30855018587368
aa(lp189
F365.8364312267658
aF197.50929368029742
aa(lp190
F363.90334572490707
aF191.71003717472126
aa(lp191
F361.97026022304834
aF185.910780669145
aa(lp192
F360.0371747211896
aF180.11152416356884
aa(lp193
F358.1040892193309
aF174.31226765799258
aa(lp194
F356.17100371747216
aF168.51301115241642
aa(lp195
F354.2379182156134
aF162.7137546468402
aa(lp196
F352.30483271375465
aF156.914498141264
aa(lp197
F350.3717472118959
aF151.11524163568777
aa(lp198
F346.096654275093
aF147.6579925650558
aa(lp199
F341.2639405204461
aF144.75836431226767
aa(lp200
F336.4312267657993
aF141.85873605947958
aa(lp201
F331.5985130111524
aF138.95910780669146
aa(lp202
F326.76579925650555
aF136.05947955390332
aa(lp203
F321.9330855018587
aF133.15985130111525
aa(lp204
F317.10037174721197
aF130.26022304832716
aa(lp205
F312.26765799256515
aF127.3605947955391
aa(lp206
F307.4349442379182
aF124.46096654275091
aa(lp207
F302.6022304832714
aF121.56133828996283
aa(lp208
F297.7695167286246
aF119.55390334572492
aa(lp209
F292.9368029739778
aF118.58736059479556
aa(lp210
F288.10408921933083
aF117.62081784386616
aa(lp211
F283.27137546468407
aF116.65427509293681
aa(lp212
F278.43866171003725
aF115.68773234200745
aa(lp213
F273.6059479553905
aF114.7211895910781
aa(lp214
F268.7732342007435
aF113.75464684014871
aa(lp215
F263.94052044609674
aF112.78810408921935
aa(lp216
F259.1078066914499
aF111.82156133829
aa(lp217
F254.27509293680316
aF110.85501858736063
aa(lp218
F249.55390334572496
aF110.22304832713752
aa(lp219
F245.6877323420075
aF112.15613382899625
aa(lp220
F241.82156133829005
aF114.08921933085497
aa(lp221
F237.95539033457263
aF116.02230483271369
aa(lp222
F234.08921933085503
aF117.95539033457248
aa(lp223
F230.22304832713758
aF119.88847583643121
aa(lp224
F226.35687732342015
aF121.82156133828992
aa(lp225
F222.4907063197027
aF123.75464684014865
aa(lp226
F218.62453531598513
aF125.68773234200744
aa(lp227
F214.75836431226767
aF127.62081784386616
aa(lp228
F210.89219330855025
aF129.55390334572488
aa(lp229
F208.5130111524164
aF132.2304832713754
aa(lp230
F206.5799256505576
aF135.13011152416357
aa(lp231
F204.6468401486989
aF138.02973977695166
aa(lp232
F202.7137546468402
aF140.92936802973972
aa(lp233
F200.78066914498146
aF143.8289962825278
aa(lp234
F198.84758364312268
aF146.728624535316
aa(lp235
F196.91449814126398
aF149.62825278810405
aa(lp236
F194.98141263940525
aF152.5278810408921
aa(lp237
F193.04832713754647
aF155.4275092936803
aa(lp238
F191.11524163568777
aF158.32713754646838
aa(lp239
F189.59107806691452
aF161.22676579925644
aa(lp240
F188.62453531598516
aF164.12639405204453
aa(lp241
F187.65799256505576
aF167.0260223048327
aa(lp242
F186.6914498141264
aF169.9256505576208
aa(lp243
F185.72490706319704
aF172.8252788104089
aa(lp244
F184.75836431226767
aF175.72490706319698
aa(lp245
F183.79182156133828
aF178.62453531598516
aa(lp246
F182.82527881040892
aF181.52416356877325
aa(lp247
F181.85873605947955
aF184.42379182156134
aa(lp248
F180.8921933085502
aF187.3234200743494
aa(lp249
F180.0
aF190.2230483271376
aa(lp250
F180.0
aF193.12267657992567
aa(lp251
F180.0
aF196.02230483271373
aa(lp252
F180.0
aF198.92193308550182
aa(lp253
F180.0
aF201.82156133829
aa(lp254
F180.0
aF204.72118959107806
aa(lp255
F180.0
aF207.62081784386612
aa(lp256
F180.0
aF210.5204460966542
aa(lp257
F180.0
aF213.4200743494424
aa(lp258
F180.0
aF216.31970260223045
aa(lp259
F180.0
aF219.21933085501854
aa(lp260
F180.7063197026022
aF222.1189591078066
aa(lp261
F181.6728624535316
aF225.0185873605948
aa(lp262
F182.63940520446096
aF227.91821561338287
aa(lp263
F183.60594795539032
aF230.81784386617096
aa(lp264
F184.57249070631968
aF233.71747211895905
aa(lp265
F185.53903345724908
aF236.61710037174723
aa(lp266
F186.50557620817844
aF239.51672862453532
aa(lp267
F187.4721189591078
aF242.4163568773234
aa(lp268
F188.43866171003717
aF245.31598513011147
aa(lp269
F189.40520446096656
aF248.21561338289968
aa(lp270
F190.37174721189592
aF250.74349442379184
aa(lp271
F191.33828996282529
aF252.67657992565054
aa(lp272
F192.30483271375462
aF254.60966542750927
aa(lp273
F193.271375464684
aF256.542750929368
aa(lp274
F194.23791821561338
aF258.47583643122675
aa(lp275
F195.20446096654274
aF260.4089219330855
aa(lp276
F196.1710037174721
aF262.3420074349442
aa(lp277
F197.1375464684015
aF264.275092936803
aa(lp278
F198.10408921933086
aF266.2081784386617
aa(lp279
F199.0706319702602
aF268.1412639405204
aa(lp280
F200.07434944237912
aF270.03717472118956
aa(lp281
F202.0074349442379
aF271.003717472119
aa(lp282
F203.94052044609663
aF271.97026022304834
aa(lp283
F205.87360594795535
aF272.93680297397765
aa(lp284
F207.80669144981405
aF273.903345724907
aa(lp285
F209.73977695167284
aF274.86988847583643
aa(lp286
F211.67286245353156
aF275.8364312267658
aa(lp287
F213.60594795539026
aF276.80297397769516
aa(lp288
F215.539033457249
aF277.76951672862447
aa(lp289
F217.47211895910777
aF278.7360594795539
aa(lp290
F219.4052044609665
aF279.70260223048325
aa(lp291
F220.66914498141261
aF281.33828996282523
aa(lp292
F221.63568773234198
aF283.27137546468396
aa(lp293
F222.60223048327137
aF285.20446096654274
aa(lp294
F223.56877323420073
aF287.13754646840147
aa(lp295
F224.5353159851301
aF289.0706319702602
aa(lp296
F225.50185873605943
aF291.00371747211886
aa(lp297
F226.46840148698885
aF292.9368029739777
aa(lp298
F227.43494423791822
aF294.86988847583643
aa(lp299
F228.40148698884755
aF296.8029739776951
aa(lp300
F229.36802973977697
aF298.73605947955394
aa(lp301
F230.0
aF301.003717472119
aa(lp302
F230.0
aF303.90334572490707
aa(lp303
F230.0
aF306.8029739776951
aa(lp304
F230.0
aF309.7026022304833
aa(lp305
F230.0
aF312.6022304832714
aa(lp306
F230.0
aF315.5018587360595
aa(lp307
F230.0
aF318.4014869888476
aa(lp308
F230.0
aF321.3011152416357
aa(lp309
F230.0
aF324.2007434944238
aa(lp310
F230.0
aF327.1003717472119
aa(lp311
F230.0
aF330.0
aag42
ag43
ag44
ag45
ag46
ag47
ag48
ag49
ag50
ag51
ag52
ag53
ag54
ag55
ag56
ag57
ag58
ag59
ag60
ag61
ag62
ag63
ag64
ag65
ag66
ag67
ag68
ag69
ag70
ag71
ag72
ag73
ag74
ag75
ag76
ag77
ag78
ag79
ag80
ag81
ag82
ag83
ag176
ag177
ag178
ag179
ag180
ag181
ag182
ag183
ag184
ag185
ag186
ag187
ag188
ag189
ag190
ag191
ag192
ag193
ag194
ag195
ag196
ag197
ag198
ag199
ag200
ag201
ag202
ag203
ag204
ag205
ag206
ag207
ag208
ag209
ag210
ag211
ag212
ag213
ag214
ag215
ag216
ag217
ag218
ag219
ag220
ag221
ag222
ag223
ag224
ag225
ag226
ag227
ag228
ag229
ag230
ag231
ag232
ag233
ag234
ag235
ag236
ag237
ag238
ag239
ag240
ag241
ag242
ag243
ag244
ag245
ag246
ag247
ag248
ag249
ag250
ag251
ag252
ag253
ag254
ag255
ag256
ag257
ag258
ag259
ag176
ag175
ag174
ag173
ag172
ag171
ag170
ag169
ag168
ag167
ag166
ag165
ag164
ag163
ag162
ag161
ag160
ag159
ag158
ag157
ag156
ag155
ag154
ag153
ag152
ag151
ag150
ag149
ag148
ag147
ag146
ag145
ag144
ag143
ag142
ag141
ag140
ag139
ag138
ag137
ag136
ag135
ag134
ag133
ag132
ag131
ag130
ag129
ag128
ag127
ag126
ag125
ag124
ag123
ag122
ag121
ag120
ag119
ag118
ag117
ag116
ag115
ag114
ag113
ag112
ag111
ag110
ag109
ag108
ag107
ag106
ag105
ag104
ag103
ag102
ag101
ag100
ag99
ag98
ag97
ag96
ag95
ag94
ag93
ag92
ag91
ag90
ag89
ag88
ag87
ag86
ag85
ag84
ag83
asS'pin_pts'
p312
(lp313
(lp314
g2
(g16
S'"\x01\x00\x00\x00\x00\x00\x00'
p315
tp316
Rp317
ag2
(g16
S'd\x00\x00\x00\x00\x00\x00\x00'
p318
tp319
Rp320
aa(lp321
g2
(g16
S'\x8c\x00\x00\x00\x00\x00\x00\x00'
p322
tp323
Rp324
ag2
(g16
S'F\x00\x00\x00\x00\x00\x00\x00'
p325
tp326
Rp327
aa(lp328
g2
(g16
S'\xd2\x00\x00\x00\x00\x00\x00\x00'
p329
tp330
Rp331
ag2
(g16
S'\x04\x01\x00\x00\x00\x00\x00\x00'
p332
tp333
Rp334
aa(lp335
g2
(g16
S'"\x01\x00\x00\x00\x00\x00\x00'
p336
tp337
Rp338
ag2
(g16
S'\xd2\x00\x00\x00\x00\x00\x00\x00'
p339
tp340
Rp341
aa(lp342
g2
(g16
S'\xb4\x00\x00\x00\x00\x00\x00\x00'
p343
tp344
Rp345
ag2
(g16
S'\xf0\x00\x00\x00\x00\x00\x00\x00'
p346
tp347
Rp348
aa(lp349
g2
(g16
S'\xc8\x00\x00\x00\x00\x00\x00\x00'
p350
tp351
Rp352
ag2
(g16
S'2\x00\x00\x00\x00\x00\x00\x00'
p353
tp354
Rp355
aa(lp356
g2
(g16
S'\xd2\x00\x00\x00\x00\x00\x00\x00'
p357
tp358
Rp359
ag2
(g16
S'<\x00\x00\x00\x00\x00\x00\x00'
p360
tp361
Rp362
aa(lp363
g2
(g16
S'F\x00\x00\x00\x00\x00\x00\x00'
p364
tp365
Rp366
ag2
(g16
S'Z\x00\x00\x00\x00\x00\x00\x00'
p367
tp368
Rp369
aa(lp370
g2
(g16
S'F\x00\x00\x00\x00\x00\x00\x00'
p371
tp372
Rp373
ag2
(g16
S'\xfa\x00\x00\x00\x00\x00\x00\x00'
p374
tp375
Rp376
aa(lp377
g2
(g16
S'\xdc\x00\x00\x00\x00\x00\x00\x00'
p378
tp379
Rp380
ag2
(g16
S'F\x00\x00\x00\x00\x00\x00\x00'
p381
tp382
Rp383
aag13
ag26
a(lp384
g2
(g16
S'\x0e\x01\x00\x00\x00\x00\x00\x00'
p385
tp386
Rp387
ag2
(g16
S'P\x00\x00\x00\x00\x00\x00\x00'
p388
tp389
Rp390
aa(lp391
g2
(g16
S'2\x00\x00\x00\x00\x00\x00\x00'
p392
tp393
Rp394
ag2
(g16
S'Z\x00\x00\x00\x00\x00\x00\x00'
p395
tp396
Rp397
aa(lp398
g2
(g16
S'\x96\x00\x00\x00\x00\x00\x00\x00'
p399
tp400
Rp401
ag2
(g16
S'P\x00\x00\x00\x00\x00\x00\x00'
p402
tp403
Rp404
aa(lp405
g2
(g16
S'\xe6\x00\x00\x00\x00\x00\x00\x00'
p406
tp407
Rp408
ag2
(g16
S'\xf0\x00\x00\x00\x00\x00\x00\x00'
p409
tp410
Rp411
aa(lp412
g2
(g16
S'\x0e\x01\x00\x00\x00\x00\x00\x00'
p413
tp414
Rp415
ag2
(g16
S'Z\x00\x00\x00\x00\x00\x00\x00'
p416
tp417
Rp418
aa(lp419
g2
(g16
S'\x8c\x00\x00\x00\x00\x00\x00\x00'
p420
tp421
Rp422
ag2
(g16
S'\xaa\x00\x00\x00\x00\x00\x00\x00'
p423
tp424
Rp425
aa(lp426
g2
(g16
S'2\x00\x00\x00\x00\x00\x00\x00'
p427
tp428
Rp429
ag2
(g16
S'\x82\x00\x00\x00\x00\x00\x00\x00'
p430
tp431
Rp432
aa(lp433
g2
(g16
S'\x18\x01\x00\x00\x00\x00\x00\x00'
p434
tp435
Rp436
ag2
(g16
S'2\x00\x00\x00\x00\x00\x00\x00'
p437
tp438
Rp439
aa(lp440
g2
(g16
S'P\x00\x00\x00\x00\x00\x00\x00'
p441
tp442
Rp443
ag2
(g16
S'2\x00\x00\x00\x00\x00\x00\x00'
p444
tp445
Rp446
aa(lp447
g2
(g16
S'\xc8\x00\x00\x00\x00\x00\x00\x00'
p448
tp449
Rp450
ag2
(g16
S'"\x01\x00\x00\x00\x00\x00\x00'
p451
tp452
Rp453
aa(lp454
g2
(g16
S'\x18\x01\x00\x00\x00\x00\x00\x00'
p455
tp456
Rp457
ag2
(g16
S'd\x00\x00\x00\x00\x00\x00\x00'
p458
tp459
Rp460
aa(lp461
g2
(g16
S'2\x00\x00\x00\x00\x00\x00\x00'
p462
tp463
Rp464
ag2
(g16
S'\x96\x00\x00\x00\x00\x00\x00\x00'
p465
tp466
Rp467
aa(lp468
g2
(g16
S'n\x00\x00\x00\x00\x00\x00\x00'
p469
tp470
Rp471
ag2
(g16
S'"\x01\x00\x00\x00\x00\x00\x00'
p472
tp473
Rp474
aa(lp475
g2
(g16
S'\xbe\x00\x00\x00\x00\x00\x00\x00'
p476
tp477
Rp478
ag2
(g16
S'2\x00\x00\x00\x00\x00\x00\x00'
p479
tp480
Rp481
aa(lp482
g2
(g16
S'\xdc\x00\x00\x00\x00\x00\x00\x00'
p483
tp484
Rp485
ag2
(g16
S'\x0e\x01\x00\x00\x00\x00\x00\x00'
p486
tp487
Rp488
aa(lp489
g2
(g16
S'\x18\x01\x00\x00\x00\x00\x00\x00'
p490
tp491
Rp492
ag2
(g16
S'F\x00\x00\x00\x00\x00\x00\x00'
p493
tp494
Rp495
aa(lp496
g2
(g16
S'\x8c\x00\x00\x00\x00\x00\x00\x00'
p497
tp498
Rp499
ag2
(g16
S'\xa0\x00\x00\x00\x00\x00\x00\x00'
p500
tp501
Rp502
aa(lp503
g2
(g16
S'\xb4\x00\x00\x00\x00\x00\x00\x00'
p504
tp505
Rp506
ag2
(g16
S'\xaa\x00\x00\x00\x00\x00\x00\x00'
p507
tp508
Rp509
aasS'trajectory'
p510
(lp511
(lp512
g176
ag177
ag178
ag179
ag180
ag181
ag182
ag183
ag184
ag185
ag186
ag187
ag188
ag189
ag190
ag191
ag192
ag193
ag194
ag195
ag196
ag197
ag198
ag199
ag200
ag201
ag202
ag203
ag204
ag205
ag206
ag207
ag208
ag209
ag210
ag211
ag212
ag213
ag214
ag215
ag216
ag217
ag218
ag219
ag220
ag221
ag222
ag223
ag224
ag225
ag226
ag227
ag228
ag229
ag230
ag231
ag232
ag233
ag234
ag235
ag236
ag237
ag238
ag239
ag240
ag241
ag242
ag243
ag244
ag245
ag246
ag247
ag248
ag249
ag250
ag251
ag252
ag253
ag254
ag255
ag256
ag257
ag258
ag259
aa(lp513
g42
ag43
ag44
ag45
ag46
ag47
ag48
ag49
ag50
ag51
ag52
ag53
ag54
ag55
ag56
ag57
ag58
ag59
ag60
ag61
ag62
ag63
ag64
ag65
ag66
ag67
ag68
ag69
ag70
ag71
ag72
ag73
ag74
ag75
ag76
ag77
ag78
ag79
ag80
ag81
ag82
ag83
ag84
ag85
ag86
ag87
ag88
ag89
ag90
ag91
ag92
ag93
ag94
ag95
ag96
ag97
ag98
ag99
ag100
ag101
ag102
ag103
ag104
ag105
ag106
ag107
ag108
ag109
ag110
ag111
ag112
ag113
ag114
ag115
ag116
ag117
ag118
ag119
ag120
ag121
ag122
ag123
ag124
ag125
ag126
ag127
ag128
ag129
ag130
ag131
ag132
ag133
ag134
ag135
ag136
ag137
ag138
ag139
ag140
ag141
ag142
ag143
ag144
ag145
ag146
ag147
ag148
ag149
ag150
ag151
ag152
ag153
ag154
ag155
ag156
ag157
ag158
ag159
ag160
ag161
ag162
ag163
ag164
ag165
ag166
ag167
ag168
ag169
ag170
ag171
ag172
ag173
ag174
ag175
ag176
ag177
ag178
ag179
ag180
ag181
ag182
ag183
ag184
ag185
ag186
ag187
ag188
ag189
ag190
ag191
ag192
ag193
ag194
ag195
ag196
ag197
ag198
ag199
ag200
ag201
ag202
ag203
ag204
ag205
ag206
ag207
ag208
ag209
ag210
ag211
ag212
ag213
ag214
ag215
ag216
ag217
ag218
ag219
ag220
ag221
ag222
ag223
ag224
ag225
ag226
ag227
ag228
ag229
ag230
ag231
ag232
ag233
ag234
ag235
ag236
ag237
ag238
ag239
ag240
ag241
ag242
ag243
ag244
ag245
ag246
ag247
ag248
ag249
ag250
ag251
ag252
ag253
ag254
ag255
ag256
ag257
ag258
ag259
ag260
ag261
ag262
ag263
ag264
ag265
ag266
ag267
ag268
ag269
ag270
ag271
ag272
ag273
ag274
ag275
ag276
ag277
ag278
ag279
ag280
ag281
ag282
ag283
ag284
ag285
ag286
ag287
ag288
ag289
ag290
ag291
ag292
ag293
ag294
ag295
ag296
ag297
ag298
ag299
ag300
ag301
ag302
ag303
ag304
ag305
ag306
ag307
ag308
ag309
ag310
ag311
ag42
ag43
ag44
ag45
ag46
ag47
ag48
ag49
ag50
ag51
ag52
ag53
ag54
ag55
ag56
ag57
ag58
ag59
ag60
ag61
ag62
ag63
ag64
ag65
ag66
ag67
ag68
ag69
ag70
ag71
ag72
ag73
ag74
ag75
ag76
ag77
ag78
ag79
ag80
ag81
ag82
ag83
aa(lp514
g176
ag175
ag174
ag173
ag172
ag171
ag170
ag169
ag168
ag167
ag166
ag165
ag164
ag163
ag162
ag161
ag160
ag159
ag158
ag157
ag156
ag155
ag154
ag153
ag152
ag151
ag150
ag149
ag148
ag147
ag146
ag145
ag144
ag143
ag142
ag141
ag140
ag139
ag138
ag137
ag136
ag135
ag134
ag133
ag132
ag131
ag130
ag129
ag128
ag127
ag126
ag125
ag124
ag123
ag122
ag121
ag120
ag119
ag118
ag117
ag116
ag115
ag114
ag113
ag112
ag111
ag110
ag109
ag108
ag107
ag106
ag105
ag104
ag103
ag102
ag101
ag100
ag99
ag98
ag97
ag96
ag95
ag94
ag93
ag92
ag91
ag90
ag89
ag88
ag87
ag86
ag85
ag84
ag83
aa(lp515
asS'pin_scores'
p516
(lp517
g2
(g6
S'\x00\x00\x00\x00\x00\x00M\xc0'
p518
tp519
Rp520
ag2
(g6
S'\x00\x00\x00\x00\x00\x80O\xc0'
p521
tp522
Rp523
ag2
(g6
S'\x00\x00\x00\x00\x00\x00N\xc0'
p524
tp525
Rp526
ag2
(g6
S'\x00\x00\x00\x00\x00\x00J\xc0'
p527
tp528
Rp529
ag2
(g6
S'\x00\x00\x00\x00\x00\x80P\xc0'
p530
tp531
Rp532
ag2
(g6
S'\x00\x00\x00\x00\x00\x00P\xc0'
p533
tp534
Rp535
ag2
(g6
S'\x00\x00\x00\x00\x00\x80M\xc0'
p536
tp537
Rp538
ag2
(g6
S'\x00\x00\x00\x00\x00\x00N\xc0'
p539
tp540
Rp541
ag2
(g6
S'\x00\x00\x00\x00\x00@S\xc0'
p542
tp543
Rp544
ag2
(g6
S'\x00\x00\x00\x00\x00\x00P\xc0'
p545
tp546
Rp547
ag2
(g6
S'\x00\x00\x00\x00\x00\x00I\xc0'
p548
tp549
Rp550
ag2
(g6
S'\x00\x00\x00\x00\x00@S\xc0'
p551
tp552
Rp553
ag2
(g6
S'\x00\x00\x00\x00\x00\x80N\xc0'
p554
tp555
Rp556
ag2
(g6
S'\x00\x00\x00\x00\x00\x80N\xc0'
p557
tp558
Rp559
ag2
(g6
S'\x00\x00\x00\x00\x00\x00O\xc0'
p560
tp561
Rp562
ag2
(g6
S'\x00\x00\x00\x00\x00\x80K\xc0'
p563
tp564
Rp565
ag2
(g6
S'\x00\x00\x00\x00\x00\x00K\xc0'
p566
tp567
Rp568
ag2
(g6
S'\x00\x00\x00\x00\x00\x80Q\xc0'
p569
tp570
Rp571
ag2
(g6
S'\x00\x00\x00\x00\x00\x00P\xc0'
p572
tp573
Rp574
ag2
(g6
S'\x00\x00\x00\x00\x00\x00P\xc0'
p575
tp576
Rp577
ag2
(g6
S'\x00\x00\x00\x00\x00@P\xc0'
p578
tp579
Rp580
ag2
(g6
S'\x00\x00\x00\x00\x00\x00O\xc0'
p581
tp582
Rp583
ag2
(g6
S'\x00\x00\x00\x00\x00\x00I\xc0'
p584
tp585
Rp586
ag2
(g6
S'\x00\x00\x00\x00\x00\x80Q\xc0'
p587
tp588
Rp589
ag2
(g6
S'\x00\x00\x00\x00\x00\x00U\xc0'
p590
tp591
Rp592
ag2
(g6
S'\x00\x00\x00\x00\x00@P\xc0'
p593
tp594
Rp595
ag2
(g6
S'\x00\x00\x00\x00\x00\x00I\xc0'
p596
tp597
Rp598
ag2
(g6
S'\x00\x00\x00\x00\x00\x00P\xc0'
p599
tp600
Rp601
ag2
(g6
S'\x00\x00\x00\x00\x00\x80Q\xc0'
p602
tp603
Rp604
ag2
(g6
S'\x00\x00\x00\x00\x00\x00L\xc0'
p605
tp606
Rp607
asS'best_score'
p608
g550
s.