(lp0
F0.02387900492484021
aF0.021750716977986397
aF-0.10647209395410398
a.(lp0
F0.0350963957795174
aF0.02391245088430225
aF-0.10918143807444679
a.(lp0
F0.04172677782504678
aF0.024689212421930562
aF-0.11495023373822845
a.(lp0
F0.050085841096334835
aF0.026647186608580047
aF-0.11606200829246217
a.(lp0
F0.05571433562651067
aF0.029182854005163048
aF-0.11336117929409198
a.(lp0
F0.06372293357124854
aF0.030309215857200505
aF-0.11696383464376599
a.(lp0
F0.0700562161437387
aF0.03138663673730575
aF-0.11495643564784266
a.(lp0
F0.07407153073425635
aF0.03277830713563437
aF-0.11553951327145177
a.(lp0
F0.07954037010869305
aF0.03497489061361423
aF-0.1173195989569907
a.(lp0
F0.0863383129270396
aF0.037157161049469305
aF-0.11742846453507721
a.(lp0
F0.09139869961525951
aF0.04177768179664268
aF-0.11770872446526025
a.(lp0
F0.09067362913827565
aF0.04723945508421591
aF-0.11609090493112054
a.(lp0
F0.08755126229361382
aF0.05153480438199308
aF-0.11560490630906087
a.(lp0
F0.07851220299888019
aF0.05207244870686172
aF-0.11468112206365687
a.(lp0
F0.07056233764130863
aF0.05276460634141521
aF-0.11258128245509254
a.(lp0
F0.06493309034249108
aF0.05104650909569595
aF-0.113268760860373
a.(lp0
F0.057736910795993954
aF0.053098865565277265
aF-0.11219602035704397
a.(lp0
F0.05222753184368711
aF0.056741851607487515
aF-0.11103974109626123
a.(lp0
F0.04791254735400788
aF0.05830099407890449
aF-0.1108039134499219
a.(lp0
F0.04183278992578596
aF0.05702242097167222
aF-0.11051581786850269
a.(lp0
F0.03621762627749143
aF0.05791069492204193
aF-0.10901062789760801
a.(lp0
F0.030407328335744464
aF0.05753016955148218
aF-0.10600728673363179
a.(lp0
F0.02714887353799241
aF0.05782746435995657
aF-0.1070870635863043
a.(lp0
F0.021975370200827772
aF0.057944199405464095
aF-0.10883316074454633
a.