(lp0
F0.12333854410308694
aF0.09516866581033168
aF-0.1163936292040183
a.(lp0
F0.024045936856046182
aF0.09199921323355992
aF-0.10995154575958539
a.(lp0
F0.12998376915045146
aF0.02940506664760196
aF-0.13058830561865126
a.(lp0
F0.022293456404222593
aF0.01487282786430013
aF-0.1129541105043181
a.