(dp0
S'worst_score'
p1
cnumpy.core.multiarray
scalar
p2
(cnumpy
dtype
p3
(S'f8'
p4
I0
I1
tp5
Rp6
(I3
S'<'
p7
NNNI-1
I-1
I0
tp8
bS'\x00\x00\x00\x00\x00\x00W\xc0'
p9
tp10
Rp11
sS'totalpts'
p12
I42
sS'trajectory'
p13
(lp14
(lp15
(lp16
F410.0
aF540.0
aa(lp17
F406.12040133779266
aF538.0602006688963
aa(lp18
F402.24080267558526
aF536.1204013377926
aa(lp19
F398.3612040133779
aF534.180602006689
aa(lp20
F394.4816053511706
aF532.2408026755853
aa(lp21
F390.60200668896323
aF530.3010033444816
aa(lp22
F386.72240802675583
aF528.3612040133779
aa(lp23
F382.8428093645485
aF526.4214046822742
aa(lp24
F378.96321070234114
aF524.4816053511705
aa(lp25
F375.0836120401338
aF522.5418060200669
aa(lp26
F371.2040133779264
aF520.6020066889632
aa(lp27
F367.9933110367893
aF518.6622073578595
aa(lp28
F365.0836120401338
aF516.7224080267558
aa(lp29
F362.17391304347825
aF514.7826086956521
aa(lp30
F359.26421404682276
aF512.8428093645485
aa(lp31
F356.3545150501672
aF510.90301003344484
aa(lp32
F353.4448160535117
aF508.96321070234114
aa(lp33
F350.53511705685617
aF507.02341137123744
aa(lp34
F347.6254180602007
aF505.0836120401338
aa(lp35
F344.7157190635452
aF503.1438127090301
aa(lp36
F341.80602006688963
aF501.2040133779264
aa(lp37
F338.5284280936455
aF499.26421404682276
aa(lp38
F334.6488294314381
aF497.32441471571906
aa(lp39
F330.7692307692308
aF495.38461538461536
aa(lp40
F326.88963210702343
aF493.4448160535117
aa(lp41
F323.01003344481603
aF491.505016722408
aa(lp42
F319.1304347826087
aF489.5652173913044
aa(lp43
F315.25083612040135
aF487.6254180602007
aa(lp44
F311.371237458194
aF485.685618729097
aa(lp45
F307.4916387959866
aF483.74581939799333
aa(lp46
F303.61204013377926
aF481.80602006688963
aa(lp47
F299.6655518394649
aF479.933110367893
aa(lp48
F294.8160535117057
aF478.96321070234114
aa(lp49
F289.9665551839465
aF477.9933110367893
aa(lp50
F285.11705685618733
aF477.02341137123744
aa(lp51
F280.26755852842814
aF476.05351170568565
aa(lp52
F275.4180602006689
aF475.0836120401338
aa(lp53
F270.5685618729097
aF474.11371237458195
aa(lp54
F265.7190635451505
aF473.1438127090301
aa(lp55
F260.8695652173913
aF472.17391304347825
aa(lp56
F256.0200668896321
aF471.2040133779264
aa(lp57
F251.1705685618729
aF470.2341137123746
aa(lp58
F245.5852842809365
aF468.5284280936455
aa(lp59
F239.76588628762542
aF466.5886287625418
aa(lp60
F233.9464882943144
aF464.6488294314381
aa(lp61
F228.12709030100336
aF462.7090301003345
aa(lp62
F222.3076923076923
aF460.7692307692308
aa(lp63
F216.48829431438128
aF458.8294314381271
aa(lp64
F210.66889632107024
aF456.88963210702343
aa(lp65
F204.84949832775922
aF454.94983277591973
aa(lp66
F199.03010033444815
aF453.01003344481603
aa(lp67
F193.21070234113716
aF451.0702341137124
aa(lp68
F188.69565217391303
aF449.1304347826087
aa(lp69
F185.7859531772575
aF447.190635451505
aa(lp70
F182.87625418060202
aF445.25083612040135
aa(lp71
F179.9665551839465
aF443.31103678929765
aa(lp72
F177.05685618729098
aF441.371237458194
aa(lp73
F174.14715719063545
aF439.4314381270903
aa(lp74
F171.23745819397993
aF437.4916387959866
aa(lp75
F168.32775919732444
aF435.55183946488296
aa(lp76
F165.4180602006689
aF433.61204013377926
aa(lp77
F162.5083612040134
aF431.6722408026756
aa(lp78
F159.86622073578596
aF429.7324414715719
aa(lp79
F158.89632107023414
aF427.7926421404683
aa(lp80
F157.9264214046823
aF425.8528428093646
aa(lp81
F156.95652173913044
aF423.9130434782609
aa(lp82
F155.98662207357862
aF421.97324414715723
aa(lp83
F155.01672240802677
aF420.03344481605353
aa(lp84
F154.04682274247492
aF418.09364548494983
aa(lp85
F153.0769230769231
aF416.1538461538462
aa(lp86
F152.10702341137124
aF414.2140468227425
aa(lp87
F151.1371237458194
aF412.2742474916388
aa(lp88
F150.16722408026757
aF410.33444816053515
aa(lp89
F150.0
aF408.39464882943145
aa(lp90
F150.0
aF406.45484949832775
aa(lp91
F150.0
aF404.5150501672241
aa(lp92
F150.0
aF402.5752508361204
aa(lp93
F150.0
aF400.6354515050167
aa(lp94
F150.0
aF398.69565217391306
aa(lp95
F150.0
aF396.75585284280936
aa(lp96
F150.0
aF394.8160535117057
aa(lp97
F150.0
aF392.876254180602
aa(lp98
F150.0
aF390.9364548494983
aaa(lp99
(lp100
F370.0
aF50.0
aa(lp101
F369.03010033444815
aF50.969899665551836
aa(lp102
F368.0602006688963
aF51.93979933110367
aa(lp103
F367.0903010033445
aF52.909698996655514
aa(lp104
F366.12040133779266
aF53.87959866220735
aa(lp105
F365.1505016722408
aF54.84949832775922
aa(lp106
F364.18060200668896
aF55.81939799331106
aa(lp107
F363.2107023411371
aF56.78929765886289
aa(lp108
F362.24080267558526
aF57.75919732441473
aa(lp109
F361.2709030100334
aF58.72909698996657
aa(lp110
F360.3010033444816
aF59.69899665551841
aa(lp111
F358.66220735785953
aF61.337792642140485
aa(lp112
F356.7224080267558
aF63.27759197324422
aa(lp113
F354.78260869565213
aF65.21739130434788
aa(lp114
F352.84280936454843
aF67.15719063545156
aa(lp115
F350.9030100334448
aF69.09698996655523
aa(lp116
F348.9632107023411
aF71.03678929765888
aa(lp117
F347.02341137123744
aF72.97658862876256
aa(lp118
F345.0836120401338
aF74.91638795986623
aa(lp119
F343.14381270903004
aF76.85618729096996
aa(lp120
F341.20401337792634
aF78.79598662207363
aa(lp121
F339.2642140468227
aF80.36789297658865
aa(lp122
F337.32441471571906
aF81.33779264214049
aa(lp123
F335.38461538461536
aF82.30769230769232
aa(lp124
F333.4448160535117
aF83.27759197324416
aa(lp125
F331.505016722408
aF84.24749163879598
aa(lp126
F329.5652173913043
aF85.21739130434786
aa(lp127
F327.6254180602006
aF86.18729096989969
aa(lp128
F325.685618729097
aF87.15719063545151
aa(lp129
F323.7458193979933
aF88.12709030100335
aa(lp130
F321.80602006688963
aF89.09698996655518
aa(lp131
F319.7993311036789
aF90.20066889632106
aa(lp132
F316.88963210702343
aF93.11036789297657
aa(lp133
F313.9799331103678
aF96.02006688963218
aa(lp134
F311.07023411371233
aF98.92976588628767
aa(lp135
F308.16053511705684
aF101.83946488294318
aa(lp136
F305.25083612040135
aF104.74916387959867
aa(lp137
F302.34113712374585
aF107.65886287625418
aa(lp138
F299.4314381270903
aF110.56856187290967
aa(lp139
F296.5217391304348
aF113.47826086956518
aa(lp140
F293.6120401337792
aF116.38795986622078
aa(lp141
F290.7023411371237
aF119.29765886287629
aa(lp142
F288.52842809364546
aF120.73578595317727
aa(lp143
F286.5886287625418
aF121.7056856187291
aa(lp144
F284.6488294314381
aF122.67558528428094
aa(lp145
F282.7090301003345
aF123.64548494983278
aa(lp146
F280.7692307692308
aF124.61538461538461
aa(lp147
F278.829431438127
aF125.58528428093649
aa(lp148
F276.8896321070234
aF126.55518394648833
aa(lp149
F274.9498327759197
aF127.52508361204016
aa(lp150
F273.01003344481603
aF128.49498327759198
aa(lp151
F271.07023411371233
aF129.46488294314383
aa(lp152
F268.695652173913
aF130.86956521739134
aa(lp153
F265.7859531772575
aF132.809364548495
aa(lp154
F262.8762541806019
aF134.74916387959874
aa(lp155
F259.9665551839464
aF136.6889632107024
aa(lp156
F257.05685618729086
aF138.62876254180608
aa(lp157
F254.14715719063537
aF140.56856187290975
aa(lp158
F251.23745819397988
aF142.50836120401343
aa(lp159
F248.32775919732438
aF144.44816053511707
aa(lp160
F245.4180602006689
aF146.38795986622074
aa(lp161
F242.50836120401328
aF148.3277591973245
aa(lp162
F239.73244147157186
aF150.13377926421407
aa(lp163
F237.7926421404682
aF151.10367892976592
aa(lp164
F235.85284280936452
aF152.07357859531774
aa(lp165
F233.91304347826085
aF153.0434782608696
aa(lp166
F231.97324414715717
aF154.0133779264214
aa(lp167
F230.0334448160535
aF154.98327759197323
aa(lp168
F228.09364548494977
aF155.9531772575251
aa(lp169
F226.1538461538461
aF156.92307692307693
aa(lp170
F224.21404682274243
aF157.89297658862878
aa(lp171
F222.27424749163876
aF158.8628762541806
aa(lp172
F220.3344481605351
aF159.83277591973246
aa(lp173
F218.39464882943145
aF160.80267558528428
aa(lp174
F216.45484949832777
aF161.77257525083613
aa(lp175
F214.51505016722402
aF162.74247491638798
aa(lp176
F212.57525083612038
aF163.71237458193983
aa(lp177
F210.6354515050167
aF164.68227424749165
aa(lp178
F208.69565217391303
aF165.6521739130435
aa(lp179
F206.75585284280936
aF166.62207357859532
aa(lp180
F204.8160535117057
aF167.59197324414714
aa(lp181
F202.87625418060202
aF168.561872909699
aa(lp182
F200.9364548494983
aF169.53177257525087
aa(lp183
F198.99665551839462
aF170.5016722408027
aa(lp184
F197.05685618729095
aF171.4715719063545
aa(lp185
F195.11705685618728
aF172.44147157190636
aa(lp186
F193.1772575250836
aF173.41137123745818
aa(lp187
F191.23745819397996
aF174.38127090301003
aa(lp188
F189.2976588628762
aF175.35117056856188
aa(lp189
F187.35785953177253
aF176.32107023411373
aa(lp190
F185.4180602006689
aF177.29096989966555
aa(lp191
F183.47826086956522
aF178.2608695652174
aa(lp192
F181.53846153846155
aF179.23076923076923
aa(lp193
F180.0
aF180.40133779264212
aaa(lp194
(lp195
F250.0
aF281.33779264214047
aa(lp196
F250.0
aF285.21739130434787
aa(lp197
F250.0
aF289.0969899665552
aa(lp198
F250.0
aF292.97658862876256
aa(lp199
F250.0
aF296.85618729096996
aa(lp200
F250.0
aF300.7357859531773
aa(lp201
F250.0
aF304.61538461538464
aa(lp202
F250.0
aF308.494983277592
aa(lp203
F250.0
aF312.3745819397994
aa(lp204
F250.0
aF316.2541806020067
aa(lp205
F249.933110367893
aF320.10033444816054
aa(lp206
F247.99331103678927
aF323.0100334448161
aa(lp207
F246.0535117056856
aF325.9197324414716
aa(lp208
F244.11371237458192
aF328.82943143812713
aa(lp209
F242.17391304347825
aF331.7391304347826
aa(lp210
F240.23411371237455
aF334.6488294314382
aa(lp211
F238.29431438127088
aF337.55852842809367
aa(lp212
F236.3545150501672
aF340.46822742474916
aa(lp213
F234.4147157190635
aF343.37792642140477
aa(lp214
F232.47491638795984
aF346.28762541806026
aa(lp215
F230.53511705685617
aF349.19732441471575
aa(lp216
F229.29765886287623
aF350.70234113712377
aa(lp217
F228.32775919732438
aF351.6722408026756
aa(lp218
F227.35785953177256
aF352.6421404682274
aa(lp219
F226.38795986622074
aF353.61204013377926
aa(lp220
F225.4180602006689
aF354.5819397993311
aa(lp221
F224.44816053511704
aF355.55183946488296
aa(lp222
F223.47826086956522
aF356.5217391304348
aa(lp223
F222.50836120401337
aF357.4916387959866
aa(lp224
F221.53846153846152
aF358.46153846153845
aa(lp225
F220.5685618729097
aF359.4314381270903
aa(lp226
F218.79598662207357
aF360.40133779264215
aa(lp227
F215.88628762541802
aF361.371237458194
aa(lp228
F212.97658862876253
aF362.34113712374585
aa(lp229
F210.066889632107
aF363.31103678929765
aa(lp230
F207.1571906354515
aF364.2809364548495
aa(lp231
F204.24749163879596
aF365.25083612040135
aa(lp232
F201.33779264214047
aF366.2207357859532
aa(lp233
F198.42809364548498
aF367.190635451505
aa(lp234
F195.5183946488294
aF368.16053511705684
aa(lp235
F192.6086956521739
aF369.1304347826087
aa(lp236
F189.6989966555184
aF370.10033444816054
aa(lp237
F186.78929765886284
aF371.0702341137124
aa(lp238
F183.87959866220734
aF372.04013377926424
aa(lp239
F180.96989966555185
aF373.01003344481603
aa(lp240
F178.06020066889633
aF373.9799331103679
aa(lp241
F175.15050167224078
aF374.94983277591973
aa(lp242
F172.24080267558526
aF375.9197324414716
aa(lp243
F169.33110367892976
aF376.88963210702343
aa(lp244
F166.4214046822742
aF377.8595317725753
aa(lp245
F163.5117056856187
aF378.82943143812713
aa(lp246
F160.6020066889632
aF379.7993311036789
aa(lp247
F159.23076923076923
aF380.7692307692308
aa(lp248
F158.26086956521738
aF381.7391304347826
aa(lp249
F157.29096989966555
aF382.7090301003345
aa(lp250
F156.3210702341137
aF383.67892976588627
aa(lp251
F155.35117056856186
aF384.6488294314381
aa(lp252
F154.38127090301003
aF385.61872909698997
aa(lp253
F153.41137123745818
aF386.5886287625418
aa(lp254
F152.44147157190636
aF387.55852842809367
aa(lp255
F151.4715719063545
aF388.5284280936455
aa(lp256
F150.50167224080266
aF389.4983277591973
aag98
aa(lp257
g195
a(lp258
F249.3645484949833
aF278.7290969899666
aa(lp259
F248.39464882943145
aF276.7892976588629
aa(lp260
F247.42474916387962
aF274.84949832775925
aa(lp261
F246.45484949832777
aF272.90969899665555
aa(lp262
F245.48494983277592
aF270.96989966555185
aa(lp263
F244.5150501672241
aF269.0301003344482
aa(lp264
F243.54515050167223
aF267.09030100334445
aa(lp265
F242.5752508361204
aF265.1505016722408
aa(lp266
F241.60535117056855
aF263.2107023411371
aa(lp267
F240.6354515050167
aF261.2709030100334
aa(lp268
F239.66555183946488
aF259.66555183946485
aa(lp269
F238.69565217391303
aF258.69565217391306
aa(lp270
F237.7257525083612
aF257.7257525083612
aa(lp271
F236.75585284280936
aF256.75585284280936
aa(lp272
F235.78595317725754
aF255.78595317725754
aa(lp273
F234.8160535117057
aF254.8160535117057
aa(lp274
F233.84615384615387
aF253.84615384615387
aa(lp275
F232.87625418060202
aF252.87625418060202
aa(lp276
F231.90635451505017
aF251.90635451505017
aa(lp277
F230.93645484949832
aF250.93645484949832
aa(lp278
F229.933110367893
aF249.9665551839465
aa(lp279
F227.99331103678932
aF248.99665551839465
aa(lp280
F226.05351170568565
aF248.02675585284283
aa(lp281
F224.11371237458198
aF247.05685618729098
aa(lp282
F222.1739130434783
aF246.08695652173915
aa(lp283
F220.23411371237458
aF245.11705685618728
aa(lp284
F218.2943143812709
aF244.14715719063545
aa(lp285
F216.35451505016724
aF243.17725752508363
aa(lp286
F214.41471571906357
aF242.20735785953178
aa(lp287
F212.4749163879599
aF241.23745819397996
aa(lp288
F210.53511705685622
aF240.2675585284281
aa(lp289
F208.59531772575258
aF238.59531772575258
aa(lp290
F206.65551839464882
aF236.65551839464882
aa(lp291
F204.71571906354515
aF234.71571906354515
aa(lp292
F202.7759197324415
aF232.7759197324415
aa(lp293
F200.83612040133784
aF230.83612040133784
aa(lp294
F198.89632107023417
aF228.89632107023417
aa(lp295
F196.9565217391305
aF226.9565217391305
aa(lp296
F195.01672240802682
aF225.01672240802682
aa(lp297
F193.0769230769231
aF223.0769230769231
aa(lp298
F191.13712374581942
aF221.13712374581942
aa(lp299
F189.59866220735788
aF219.19732441471575
aa(lp300
F188.62876254180603
aF217.25752508361208
aa(lp301
F187.6588628762542
aF215.3177257525084
aa(lp302
F186.68896321070235
aF213.37792642140474
aa(lp303
F185.71906354515053
aF211.43812709030107
aa(lp304
F184.74916387959865
aF209.4983277591973
aa(lp305
F183.7792642140468
aF207.55852842809364
aa(lp306
F182.80936454849498
aF205.61872909698997
aa(lp307
F181.83946488294313
aF203.6789297658863
aa(lp308
F180.8695652173913
aF201.73913043478262
aa(lp309
F180.0
aF199.79933110367895
aa(lp310
F180.0
aF197.85953177257528
aa(lp311
F180.0
aF195.91973244147152
aa(lp312
F180.0
aF193.97993311036788
aa(lp313
F180.0
aF192.0401337792642
aa(lp314
F180.0
aF190.10033444816054
aa(lp315
F180.0
aF188.16053511705687
aa(lp316
F180.0
aF186.2207357859532
aa(lp317
F180.0
aF184.28093645484952
aa(lp318
F180.0
aF182.3411371237458
aag193
aasS'best_score'
p319
g2
(g6
S'\x00\x00\x00\x00\x00\x80D\xc0'
p320
tp321
Rp322
sS'old_trajectory'
p323
(lp324
g195
ag196
ag197
ag198
ag199
ag200
ag201
ag202
ag203
ag204
ag205
ag206
ag207
ag208
ag209
ag210
ag211
ag212
ag213
ag214
ag215
ag216
ag217
ag218
ag219
ag220
ag221
ag222
ag223
ag224
ag225
ag226
ag227
ag228
ag229
ag230
ag231
ag232
ag233
ag234
ag235
ag236
ag237
ag238
ag239
ag240
ag241
ag242
ag243
ag244
ag245
ag246
ag247
ag248
ag249
ag250
ag251
ag252
ag253
ag254
ag255
ag256
ag98
ag100
ag101
ag102
ag103
ag104
ag105
ag106
ag107
ag108
ag109
ag110
ag111
ag112
ag113
ag114
ag115
ag116
ag117
ag118
ag119
ag120
ag121
ag122
ag123
ag124
ag125
ag126
ag127
ag128
ag129
ag130
ag131
ag132
ag133
ag134
ag135
ag136
ag137
ag138
ag139
ag140
ag141
ag142
ag143
ag144
ag145
ag146
ag147
ag148
ag149
ag150
ag151
ag152
ag153
ag154
ag155
ag156
ag157
ag158
ag159
ag160
ag161
ag162
ag163
ag164
ag165
ag166
ag167
ag168
ag169
ag170
ag171
ag172
ag173
ag174
ag175
ag176
ag177
ag178
ag179
ag180
ag181
ag182
ag183
ag184
ag185
ag186
ag187
ag188
ag189
ag190
ag191
ag192
ag193
ag16
ag17
ag18
ag19
ag20
ag21
ag22
ag23
ag24
ag25
ag26
ag27
ag28
ag29
ag30
ag31
ag32
ag33
ag34
ag35
ag36
ag37
ag38
ag39
ag40
ag41
ag42
ag43
ag44
ag45
ag46
ag47
ag48
ag49
ag50
ag51
ag52
ag53
ag54
ag55
ag56
ag57
ag58
ag59
ag60
ag61
ag62
ag63
ag64
ag65
ag66
ag67
ag68
ag69
ag70
ag71
ag72
ag73
ag74
ag75
ag76
ag77
ag78
ag79
ag80
ag81
ag82
ag83
ag84
ag85
ag86
ag87
ag88
ag89
ag90
ag91
ag92
ag93
ag94
ag95
ag96
ag97
ag98
ag195
ag258
ag259
ag260
ag261
ag262
ag263
ag264
ag265
ag266
ag267
ag268
ag269
ag270
ag271
ag272
ag273
ag274
ag275
ag276
ag277
ag278
ag279
ag280
ag281
ag282
ag283
ag284
ag285
ag286
ag287
ag288
ag289
ag290
ag291
ag292
ag293
ag294
ag295
ag296
ag297
ag298
ag299
ag300
ag301
ag302
ag303
ag304
ag305
ag306
ag307
ag308
ag309
ag310
ag311
ag312
ag313
ag314
ag315
ag316
ag317
ag318
ag193
asS'indices_of_pts'
p325
(lp326
(lp327
I0
aI1
aI2
aI3
aI4
aI5
aI6
aI7
aI8
aI9
aI10
aI11
aI12
aI13
aI14
aI15
aI16
aI17
aI18
aI19
aI20
aI21
aI22
aI23
aI24
aI25
aI26
aI27
aI28
aI29
aI30
aI31
aI32
aI33
aI34
aI35
aI36
aI37
aI38
aI39
aI40
aI41
aI42
aI43
aI44
aI45
aI46
aI47
aI48
aI49
aI50
aI51
aI52
aI53
aI54
aI55
aI56
aI57
aI58
aI59
aI60
aI61
aI62
aI63
aI64
aI65
aI66
aI67
aI68
aI69
aI70
aI71
aI72
aI73
aI74
aI75
aI76
aI77
aI78
aI79
aI80
aI81
aI82
aa(lp328
I299
aI298
aI297
aI296
aI295
aI294
aI293
aI292
aI291
aI290
aI289
aI288
aI287
aI286
aI285
aI284
aI283
aI282
aI281
aI280
aI279
aI278
aI277
aI276
aI275
aI274
aI273
aI272
aI271
aI270
aI269
aI268
aI267
aI266
aI265
aI264
aI263
aI262
aI261
aI260
aI259
aI258
aI257
aI256
aI255
aI254
aI253
aI252
aI251
aI250
aI249
aI248
aI247
aI246
aI245
aI244
aI243
aI242
aI241
aI240
aI239
aI238
aI237
aI236
aI235
aI234
aI233
aI232
aI231
aI230
aI229
aI228
aI227
aI226
aI225
aI224
aI223
aI222
aI221
aI220
aI219
aI218
aI217
aI216
aI215
aI214
aI213
aI212
aI211
aI210
aI209
aI208
aI207
aI206
aa(lp329
I144
aI143
aI142
aI141
aI140
aI139
aI138
aI137
aI136
aI135
aI134
aI133
aI132
aI131
aI130
aI129
aI128
aI127
aI126
aI125
aI124
aI123
aI122
aI121
aI120
aI119
aI118
aI117
aI116
aI115
aI114
aI113
aI112
aI111
aI110
aI109
aI108
aI107
aI106
aI105
aI104
aI103
aI102
aI101
aI100
aI99
aI98
aI97
aI96
aI95
aI94
aI93
aI92
aI91
aI90
aI89
aI88
aI87
aI86
aI85
aI84
aI83
aI82
aa(lp330
I144
aI145
aI146
aI147
aI148
aI149
aI150
aI151
aI152
aI153
aI154
aI155
aI156
aI157
aI158
aI159
aI160
aI161
aI162
aI163
aI164
aI165
aI166
aI167
aI168
aI169
aI170
aI171
aI172
aI173
aI174
aI175
aI176
aI177
aI178
aI179
aI180
aI181
aI182
aI183
aI184
aI185
aI186
aI187
aI188
aI189
aI190
aI191
aI192
aI193
aI194
aI195
aI196
aI197
aI198
aI199
aI200
aI201
aI202
aI203
aI204
aI205
aI206
aas.