(dp0
S'worst_pin_pt'
p1
(lp2
cnumpy.core.multiarray
scalar
p3
(cnumpy
dtype
p4
(S'i8'
p5
I0
I1
tp6
Rp7
(I3
S'<'
p8
NNNI-1
I-1
I0
tp9
bS'\x0e\x01\x00\x00\x00\x00\x00\x00'
p10
tp11
Rp12
ag3
(g7
S'"\x01\x00\x00\x00\x00\x00\x00'
p13
tp14
Rp15
asS'pin_scores'
p16
(lp17
I45
aI43
aI42
aI40
aI40
aI41
aI42
aI40
aI43
aI40
aI40
aI39
aI41
aI41
aI41
aI40
aI41
aI41
aI43
aI42
aI41
aI42
aI42
aI39
aI40
aI43
aI41
aI40
aI41
aI41
asS'best_score'
p18
I45
sS'init_score'
p19
I0
sS'worst_score'
p20
I33
sS'totalpts'
p21
I54
sS'pin_pts'
p22
(lp23
(lp24
g3
(g7
S'\xd2\x00\x00\x00\x00\x00\x00\x00'
p25
tp26
Rp27
ag3
(g7
S'<\x00\x00\x00\x00\x00\x00\x00'
p28
tp29
Rp30
aa(lp31
g3
(g7
S'\xaa\x00\x00\x00\x00\x00\x00\x00'
p32
tp33
Rp34
ag3
(g7
S'2\x00\x00\x00\x00\x00\x00\x00'
p35
tp36
Rp37
aa(lp38
g3
(g7
S'\xa0\x00\x00\x00\x00\x00\x00\x00'
p39
tp40
Rp41
ag3
(g7
S'\xaa\x00\x00\x00\x00\x00\x00\x00'
p42
tp43
Rp44
aa(lp45
g3
(g7
S'P\x00\x00\x00\x00\x00\x00\x00'
p46
tp47
Rp48
ag3
(g7
S'P\x00\x00\x00\x00\x00\x00\x00'
p49
tp50
Rp51
aa(lp52
g3
(g7
S'\xaa\x00\x00\x00\x00\x00\x00\x00'
p53
tp54
Rp55
ag3
(g7
S'\x0e\x01\x00\x00\x00\x00\x00\x00'
p56
tp57
Rp58
aa(lp59
g3
(g7
S'\xfa\x00\x00\x00\x00\x00\x00\x00'
p60
tp61
Rp62
ag3
(g7
S'\x0e\x01\x00\x00\x00\x00\x00\x00'
p63
tp64
Rp65
aa(lp66
g3
(g7
S'\xa0\x00\x00\x00\x00\x00\x00\x00'
p67
tp68
Rp69
ag3
(g7
S'F\x00\x00\x00\x00\x00\x00\x00'
p70
tp71
Rp72
aa(lp73
g3
(g7
S'P\x00\x00\x00\x00\x00\x00\x00'
p74
tp75
Rp76
ag3
(g7
S'\x04\x01\x00\x00\x00\x00\x00\x00'
p77
tp78
Rp79
aa(lp80
g3
(g7
S'\x04\x01\x00\x00\x00\x00\x00\x00'
p81
tp82
Rp83
ag3
(g7
S'n\x00\x00\x00\x00\x00\x00\x00'
p84
tp85
Rp86
aa(lp87
g3
(g7
S'P\x00\x00\x00\x00\x00\x00\x00'
p88
tp89
Rp90
ag3
(g7
S'\x0e\x01\x00\x00\x00\x00\x00\x00'
p91
tp92
Rp93
aag2
a(lp94
g3
(g7
S'P\x00\x00\x00\x00\x00\x00\x00'
p95
tp96
Rp97
ag3
(g7
S'"\x01\x00\x00\x00\x00\x00\x00'
p98
tp99
Rp100
aa(lp101
g3
(g7
S'2\x00\x00\x00\x00\x00\x00\x00'
p102
tp103
Rp104
ag3
(g7
S'\x8c\x00\x00\x00\x00\x00\x00\x00'
p105
tp106
Rp107
aa(lp108
g3
(g7
S'\xdc\x00\x00\x00\x00\x00\x00\x00'
p109
tp110
Rp111
ag3
(g7
S'F\x00\x00\x00\x00\x00\x00\x00'
p112
tp113
Rp114
aa(lp115
g3
(g7
S'x\x00\x00\x00\x00\x00\x00\x00'
p116
tp117
Rp118
ag3
(g7
S'F\x00\x00\x00\x00\x00\x00\x00'
p119
tp120
Rp121
aa(lp122
g3
(g7
S'n\x00\x00\x00\x00\x00\x00\x00'
p123
tp124
Rp125
ag3
(g7
S'P\x00\x00\x00\x00\x00\x00\x00'
p126
tp127
Rp128
aa(lp129
g3
(g7
S'2\x00\x00\x00\x00\x00\x00\x00'
p130
tp131
Rp132
ag3
(g7
S'P\x00\x00\x00\x00\x00\x00\x00'
p133
tp134
Rp135
aa(lp136
g3
(g7
S'2\x00\x00\x00\x00\x00\x00\x00'
p137
tp138
Rp139
ag3
(g7
S'<\x00\x00\x00\x00\x00\x00\x00'
p140
tp141
Rp142
aa(lp143
g3
(g7
S'\xb4\x00\x00\x00\x00\x00\x00\x00'
p144
tp145
Rp146
ag3
(g7
S'\x0e\x01\x00\x00\x00\x00\x00\x00'
p147
tp148
Rp149
aa(lp150
g3
(g7
S'\xbe\x00\x00\x00\x00\x00\x00\x00'
p151
tp152
Rp153
ag3
(g7
S'P\x00\x00\x00\x00\x00\x00\x00'
p154
tp155
Rp156
aa(lp157
g3
(g7
S'\xfa\x00\x00\x00\x00\x00\x00\x00'
p158
tp159
Rp160
ag3
(g7
S'\x04\x01\x00\x00\x00\x00\x00\x00'
p161
tp162
Rp163
aa(lp164
g3
(g7
S'\x04\x01\x00\x00\x00\x00\x00\x00'
p165
tp166
Rp167
ag3
(g7
S'"\x01\x00\x00\x00\x00\x00\x00'
p168
tp169
Rp170
aa(lp171
g3
(g7
S'\x04\x01\x00\x00\x00\x00\x00\x00'
p172
tp173
Rp174
ag3
(g7
S'\x04\x01\x00\x00\x00\x00\x00\x00'
p175
tp176
Rp177
aa(lp178
g3
(g7
S'F\x00\x00\x00\x00\x00\x00\x00'
p179
tp180
Rp181
ag3
(g7
S'\x0e\x01\x00\x00\x00\x00\x00\x00'
p182
tp183
Rp184
aa(lp185
g3
(g7
S'2\x00\x00\x00\x00\x00\x00\x00'
p186
tp187
Rp188
ag3
(g7
S'\x0e\x01\x00\x00\x00\x00\x00\x00'
p189
tp190
Rp191
aa(lp192
g3
(g7
S'\xfa\x00\x00\x00\x00\x00\x00\x00'
p193
tp194
Rp195
ag3
(g7
S'd\x00\x00\x00\x00\x00\x00\x00'
p196
tp197
Rp198
aa(lp199
g3
(g7
S'\xfa\x00\x00\x00\x00\x00\x00\x00'
p200
tp201
Rp202
ag3
(g7
S'F\x00\x00\x00\x00\x00\x00\x00'
p203
tp204
Rp205
aa(lp206
g3
(g7
S'<\x00\x00\x00\x00\x00\x00\x00'
p207
tp208
Rp209
ag3
(g7
S'"\x01\x00\x00\x00\x00\x00\x00'
p210
tp211
Rp212
aa(lp213
g3
(g7
S'F\x00\x00\x00\x00\x00\x00\x00'
p214
tp215
Rp216
ag3
(g7
S'd\x00\x00\x00\x00\x00\x00\x00'
p217
tp218
Rp219
aa(lp220
g3
(g7
S'P\x00\x00\x00\x00\x00\x00\x00'
p221
tp222
Rp223
ag3
(g7
S'Z\x00\x00\x00\x00\x00\x00\x00'
p224
tp225
Rp226
aasS'trajectory'
p227
(lp228
(lp229
(lp230
F430.0
aF222.37991266375542
aa(lp231
F430.0
aF218.7772925764192
aa(lp232
F430.0
aF215.17467248908298
aa(lp233
F430.0
aF211.5720524017467
aa(lp234
F430.0
aF207.96943231441048
aa(lp235
F430.0
aF204.36681222707426
aa(lp236
F430.0
aF200.764192139738
aa(lp237
F430.0
aF197.16157205240177
aa(lp238
F430.0
aF193.55895196506555
aa(lp239
F430.0
aF189.95633187772924
aa(lp240
F429.3886462882096
aF185.58951965065506
aa(lp241
F427.46724890829694
aF179.585152838428
aa(lp242
F425.54585152838433
aF173.58078602620097
aa(lp243
F423.6244541484716
aF167.5764192139738
aa(lp244
F421.70305676855895
aF161.57205240174676
aa(lp245
F419.7816593886463
aF155.56768558951973
aa(lp246
F417.8602620087336
aF149.56331877729258
aa(lp247
F415.93886462882097
aF143.55895196506552
aa(lp248
F414.0174672489083
aF137.55458515283848
aa(lp249
F412.09606986899564
aF131.55021834061134
aa(lp250
F410.174672489083
aF125.54585152838429
aa(lp251
F403.8864628820961
aF121.72489082969435
aa(lp252
F397.1615720524017
aF118.12227074235805
aa(lp253
F390.4366812227074
aF114.51965065502182
aa(lp254
F383.71179039301313
aF110.9170305676856
aa(lp255
F376.98689956331884
aF107.31441048034938
aa(lp256
F370.26200873362444
aF103.71179039301308
aa(lp257
F363.53711790393015
aF100.10917030567686
aa(lp258
F356.81222707423586
aF96.50655021834064
aa(lp259
F350.08733624454146
aF92.90393013100434
aa(lp260
F343.3624454148472
aF89.30131004366811
aa(lp261
F337.11790393013104
aF88.7008733624454
aa(lp262
F331.353711790393
aF91.10262008733626
aa(lp263
F325.589519650655
aF93.50436681222708
aa(lp264
F319.8253275109171
aF95.90611353711789
aa(lp265
F314.0611353711791
aF98.3078602620087
aa(lp266
F308.29694323144105
aF100.70960698689956
aa(lp267
F302.5327510917031
aF103.11135371179037
aa(lp268
F296.76855895196513
aF105.51310043668119
aa(lp269
F291.0043668122271
aF107.91484716157204
aa(lp270
F285.24017467248916
aF110.31659388646285
aa(lp271
F279.4759825327512
aF112.93668122270734
aa(lp272
F273.71179039301313
aF117.74017467248906
aa(lp273
F267.94759825327515
aF122.5436681222707
aa(lp274
F262.1834061135372
aF127.34716157205233
aa(lp275
F256.4192139737991
aF132.15065502183404
aa(lp276
F250.65502183406116
aF136.9541484716157
aa(lp277
F244.8908296943232
aF141.75764192139732
aa(lp278
F239.12663755458524
aF146.56113537117898
aa(lp279
F233.36244541484717
aF151.3646288209607
aa(lp280
F227.59825327510922
aF156.16812227074232
aa(lp281
F221.83406113537126
aF160.97161572052394
aa(lp282
F218.0349344978166
aF165.77510917030568
aa(lp283
F215.15283842794761
aF170.5786026200873
aa(lp284
F212.27074235807862
aF175.38209606986894
aa(lp285
F209.3886462882096
aF180.18558951965068
aa(lp286
F206.5065502183406
aF184.9890829694323
aa(lp287
F203.62445414847164
aF189.79257641921393
aa(lp288
F200.74235807860265
aF194.59606986899558
aa(lp289
F197.86026200873363
aF199.3995633187773
aa(lp290
F194.97816593886463
aF204.20305676855892
aa(lp291
F192.09606986899567
aF209.00655021834058
aa(lp292
F189.73799126637553
aF214.46506550218345
aa(lp293
F188.77729257641923
aF221.6703056768559
aa(lp294
F187.8165938864629
aF228.87554585152833
aa(lp295
F186.85589519650654
aF236.0807860262009
aa(lp296
F185.8951965065502
aF243.28602620087338
aa(lp297
F184.9344978165939
aF250.49126637554582
aa(lp298
F183.97379912663754
aF257.6965065502184
aa(lp299
F183.0131004366812
aF264.90174672489087
aa(lp300
F182.05240174672488
aF272.1069868995633
aa(lp301
F181.09170305676855
aF279.3122270742358
aa(lp302
F180.13100436681222
aF286.51746724890836
aaa(lp303
a(lp304
(lp305
F390.0
aF462.5
aa(lp306
F389.03930131004364
aF464.9017467248908
aa(lp307
F388.07860262008734
aF467.3034934497817
aa(lp308
F387.117903930131
aF469.7052401746725
aa(lp309
F386.1572052401747
aF472.1069868995633
aa(lp310
F385.1965065502183
aF474.5087336244541
aa(lp311
F384.235807860262
aF476.910480349345
aa(lp312
F383.27510917030565
aF479.3122270742358
aa(lp313
F382.31441048034935
aF481.7139737991266
aa(lp314
F381.353711790393
aF484.1157205240175
aa(lp315
F380.3930131004367
aF486.5174672489083
aa(lp316
F377.7292576419214
aF488.2096069868996
aa(lp317
F373.88646288209605
aF489.410480349345
aa(lp318
F370.04366812227073
aF490.6113537117904
aa(lp319
F366.2008733624454
aF491.8122270742358
aa(lp320
F362.3580786026201
aF493.0131004366812
aa(lp321
F358.51528384279476
aF494.2139737991266
aa(lp322
F354.67248908296943
aF495.414847161572
aa(lp323
F350.8296943231441
aF496.6157205240175
aa(lp324
F346.9868995633188
aF497.8165938864629
aa(lp325
F343.14410480349346
aF499.0174672489083
aa(lp326
F339.47598253275106
aF500.0
aa(lp327
F336.5938864628821
aF500.0
aa(lp328
F333.7117903930131
aF500.0
aa(lp329
F330.8296943231441
aF500.0
aa(lp330
F327.9475982532751
aF500.0
aa(lp331
F325.0655021834061
aF500.0
aa(lp332
F322.1834061135371
aF500.0
aa(lp333
F319.30131004366814
aF500.0
aa(lp334
F316.4192139737991
aF500.0
aa(lp335
F313.53711790393015
aF500.0
aa(lp336
F310.65502183406113
aF500.0
aa(lp337
F307.7729257641921
aF499.0720524017467
aa(lp338
F304.89082969432314
aF497.8711790393013
aa(lp339
F302.0087336244542
aF496.6703056768559
aa(lp340
F299.12663755458516
aF495.4694323144105
aa(lp341
F296.24454148471614
aF494.2685589519651
aa(lp342
F293.3624454148472
aF493.06768558951967
aa(lp343
F290.48034934497815
aF491.86681222707426
aa(lp344
F287.5982532751092
aF490.6659388646288
aa(lp345
F284.71615720524017
aF489.4650655021834
aa(lp346
F281.8340611353712
aF488.264192139738
aa(lp347
F277.90393013100436
aF485.31659388646284
aa(lp348
F272.1397379912664
aF479.3122270742358
aa(lp349
F266.3755458515284
aF473.3078602620087
aa(lp350
F260.6113537117904
aF467.3034934497817
aa(lp351
F254.84716157205239
aF461.2991266375546
aa(lp352
F249.08296943231437
aF455.29475982532745
aa(lp353
F243.3187772925764
aF449.2903930131004
aa(lp354
F237.5545851528384
aF443.2860262008733
aa(lp355
F231.79039301310044
aF437.2816593886463
aa(lp356
F226.02620087336243
aF431.2772925764192
aa(lp357
F220.2620087336244
aF425.2729257641921
aa(lp358
F217.24890829694323
aF418.12227074235807
aa(lp359
F214.3668122270742
aF410.9170305676856
aa(lp360
F211.4847161572052
aF403.711790393013
aa(lp361
F208.60262008733625
aF396.5065502183406
aa(lp362
F205.72052401746723
aF389.3013100436681
aa(lp363
F202.83842794759826
aF382.09606986899564
aa(lp364
F199.95633187772924
aF374.89082969432314
aa(lp365
F197.07423580786025
aF367.6855895196506
aa(lp366
F194.19213973799125
aF360.48034934497815
aa(lp367
F191.31004366812226
aF353.27510917030565
aa(lp368
F189.4759825327511
aF346.72489082969435
aa(lp369
F188.51528384279476
aF340.72052401746726
aa(lp370
F187.55458515283843
aF334.71615720524017
aa(lp371
F186.5938864628821
aF328.71179039301313
aa(lp372
F185.63318777292577
aF322.70742358078604
aa(lp373
F184.67248908296943
aF316.703056768559
aa(lp374
F183.7117903930131
aF310.6986899563319
aa(lp375
F182.75109170305677
aF304.69432314410477
aa(lp376
F181.79039301310044
aF298.68995633187774
aa(lp377
F180.8296943231441
aF292.68558951965065
aag302
ag301
ag300
ag299
ag298
ag297
ag296
ag295
ag294
ag293
ag292
ag291
ag290
ag289
ag288
ag287
ag286
ag285
ag284
ag283
ag282
ag281
ag280
ag279
ag278
ag277
ag276
ag275
ag274
ag273
ag272
ag271
ag270
ag269
ag268
ag267
ag266
ag265
ag264
ag263
ag262
ag261
ag260
ag259
ag258
ag257
ag256
ag255
ag254
ag253
ag252
ag251
ag250
ag249
ag248
ag247
ag246
ag245
ag244
ag243
ag242
ag241
ag240
ag239
ag238
ag237
ag236
ag235
ag234
ag233
ag232
ag231
ag230
a(lp378
F429.4759825327511
aF225.98253275109164
aa(lp379
F427.55458515283846
aF229.58515283842794
aa(lp380
F425.6331877729258
aF233.18777292576416
aa(lp381
F423.71179039301313
aF236.79039301310038
aa(lp382
F421.7903930131004
aF240.3930131004367
aa(lp383
F419.86899563318775
aF243.9956331877729
aa(lp384
F417.94759825327515
aF247.59825327510913
aa(lp385
F416.0262008733624
aF251.20087336244544
aa(lp386
F414.10480349344977
aF254.80349344978166
aa(lp387
F412.1834061135371
aF258.4061135371179
aa(lp388
F410.26200873362444
aF262.0087336244542
aa(lp389
F407.51091703056767
aF263.53711790393015
aa(lp390
F404.6288209606987
aF264.73799126637556
aa(lp391
F401.74672489082974
aF265.93886462882097
aa(lp392
F398.8646288209607
aF267.1397379912664
aa(lp393
F395.98253275109164
aF268.34061135371184
aa(lp394
F393.1004366812227
aF269.54148471615724
aa(lp395
F390.2183406113537
aF270.74235807860265
aa(lp396
F387.3362445414847
aF271.94323144104806
aa(lp397
F384.4541484716157
aF273.14410480349346
aa(lp398
F381.57205240174676
aF274.34497816593887
aa(lp399
F378.68995633187774
aF276.09170305676855
aa(lp400
F375.80786026200866
aF278.4934497816594
aa(lp401
F372.9257641921397
aF280.89519650655023
aa(lp402
F370.04366812227073
aF283.29694323144105
aa(lp403
F367.16157205240177
aF285.69868995633186
aa(lp404
F364.2794759825328
aF288.1004366812227
aa(lp405
F361.3973799126638
aF290.5021834061135
aa(lp406
F358.5152838427947
aF292.9039301310044
aa(lp407
F355.63318777292574
aF295.30567685589523
aa(lp408
F352.7510917030568
aF297.70742358078604
aa(lp409
F350.0
aF300.21834061135365
aa(lp410
F350.0
aF305.02183406113534
aa(lp411
F350.0
aF309.82532751091696
aa(lp412
F350.0
aF314.6288209606986
aa(lp413
F350.0
aF319.43231441048044
aa(lp414
F350.0
aF324.23580786026207
aa(lp415
F350.0
aF329.0393013100437
aa(lp416
F350.0
aF333.8427947598253
aa(lp417
F350.0
aF338.646288209607
aa(lp418
F350.0
aF343.44978165938863
aa(lp419
F350.0
aF348.25327510917026
aa(lp420
F350.6113537117904
aF353.05676855895206
aa(lp421
F351.57205240174676
aF357.8602620087337
aa(lp422
F352.53275109170306
aF362.6637554585153
aa(lp423
F353.49344978165936
aF367.46724890829694
aa(lp424
F354.4541484716157
aF372.27074235807856
aa(lp425
F355.414847161572
aF377.0742358078602
aa(lp426
F356.3755458515284
aF381.87772925764205
aa(lp427
F357.33624454148475
aF386.6812227074237
aa(lp428
F358.29694323144105
aF391.4847161572053
aa(lp429
F359.2576419213974
aF396.2882096069869
aa(lp430
F360.4366812227074
aF400.5458515283843
aa(lp431
F362.3580786026201
aF402.9475982532751
aa(lp432
F364.27947598253274
aF405.3493449781659
aa(lp433
F366.20087336244546
aF407.75109170305683
aa(lp434
F368.1222707423581
aF410.15283842794764
aa(lp435
F370.0436681222708
aF412.55458515283846
aa(lp436
F371.96506550218345
aF414.95633187772927
aa(lp437
F373.8864628820961
aF417.3580786026201
aa(lp438
F375.8078602620087
aF419.75982532751095
aa(lp439
F377.7292576419215
aF422.1615720524018
aa(lp440
F379.65065502183415
aF424.56331877729264
aa(lp441
F380.7860262008734
aF425.98253275109175
aa(lp442
F381.74672489082974
aF427.18340611353716
aa(lp443
F382.70742358078604
aF428.38427947598257
aa(lp444
F383.66812227074234
aF429.585152838428
aa(lp445
F384.6288209606987
aF430.7860262008734
aa(lp446
F385.58951965065506
aF431.9868995633188
aa(lp447
F386.55021834061137
aF433.1877729257642
aa(lp448
F387.5109170305677
aF434.3886462882096
aa(lp449
F388.471615720524
aF435.589519650655
aa(lp450
F389.43231441048033
aF436.7903930131004
aa(lp451
F390.0
aF438.4825327510917
aa(lp452
F390.0
aF440.88427947598257
aa(lp453
F390.0
aF443.2860262008734
aa(lp454
F390.0
aF445.6877729257642
aa(lp455
F390.0
aF448.089519650655
aa(lp456
F390.0
aF450.4912663755458
aa(lp457
F390.0
aF452.89301310043663
aa(lp458
F390.0
aF455.29475982532745
aa(lp459
F390.0
aF457.6965065502184
aa(lp460
F390.0
aF460.0982532751092
aa(lp461
F390.0
aF462.5
aag305
ag306
ag307
ag308
ag309
ag310
ag311
ag312
ag313
ag314
ag315
ag316
ag317
ag318
ag319
ag320
ag321
ag322
ag323
ag324
ag325
ag326
ag327
ag328
ag329
ag330
ag331
ag332
ag333
ag334
ag335
ag336
ag337
ag338
ag339
ag340
ag341
ag342
ag343
ag344
ag345
ag346
ag347
ag348
ag349
ag350
ag351
ag352
ag353
ag354
ag355
ag356
ag357
ag358
ag359
ag360
ag361
ag362
ag363
ag364
ag365
ag366
ag367
ag368
ag369
ag370
ag371
ag372
ag373
ag374
ag375
ag376
ag377
ag302
aa(lp462
g230
ag378
ag379
ag380
ag381
ag382
ag383
ag384
ag385
ag386
ag387
ag388
ag389
ag390
ag391
ag392
ag393
ag394
ag395
ag396
ag397
ag398
ag399
ag400
ag401
ag402
ag403
ag404
ag405
ag406
ag407
ag408
ag409
ag410
ag411
ag412
ag413
ag414
ag415
ag416
ag417
ag418
ag419
aasS'best_pin_pt'
p463
g24
sS'old_trajectory'
p464
(lp465
g305
ag306
ag307
ag308
ag309
ag310
ag311
ag312
ag313
ag314
ag315
ag316
ag317
ag318
ag319
ag320
ag321
ag322
ag323
ag324
ag325
ag326
ag327
ag328
ag329
ag330
ag331
ag332
ag333
ag334
ag335
ag336
ag337
ag338
ag339
ag340
ag341
ag342
ag343
ag344
ag345
ag346
ag347
ag348
ag349
ag350
ag351
ag352
ag353
ag354
ag355
ag356
ag357
ag358
ag359
ag360
ag361
ag362
ag363
ag364
ag365
ag366
ag367
ag368
ag369
ag370
ag371
ag372
ag373
ag374
ag375
ag376
ag377
ag302
ag301
ag300
ag299
ag298
ag297
ag296
ag295
ag294
ag293
ag292
ag291
ag290
ag289
ag288
ag287
ag286
ag285
ag284
ag283
ag282
ag281
ag280
ag279
ag278
ag277
ag276
ag275
ag274
ag273
ag272
ag271
ag270
ag269
ag268
ag267
ag266
ag265
ag264
ag263
ag262
ag261
ag260
ag259
ag258
ag257
ag256
ag255
ag254
ag253
ag252
ag251
ag250
ag249
ag248
ag247
ag246
ag245
ag244
ag243
ag242
ag241
ag240
ag239
ag238
ag237
ag236
ag235
ag234
ag233
ag232
ag231
ag230
ag378
ag379
ag380
ag381
ag382
ag383
ag384
ag385
ag386
ag387
ag388
ag389
ag390
ag391
ag392
ag393
ag394
ag395
ag396
ag397
ag398
ag399
ag400
ag401
ag402
ag403
ag404
ag405
ag406
ag407
ag408
ag409
ag410
ag411
ag412
ag413
ag414
ag415
ag416
ag417
ag418
ag419
ag420
ag421
ag422
ag423
ag424
ag425
ag426
ag427
ag428
ag429
ag430
ag431
ag432
ag433
ag434
ag435
ag436
ag437
ag438
ag439
ag440
ag441
ag442
ag443
ag444
ag445
ag446
ag447
ag448
ag449
ag450
ag451
ag452
ag453
ag454
ag455
ag456
ag457
ag458
ag459
ag460
ag461
ag305
ag306
ag307
ag308
ag309
ag310
ag311
ag312
ag313
ag314
ag315
ag316
ag317
ag318
ag319
ag320
ag321
ag322
ag323
ag324
ag325
ag326
ag327
ag328
ag329
ag330
ag331
ag332
ag333
ag334
ag335
ag336
ag337
ag338
ag339
ag340
ag341
ag342
ag343
ag344
ag345
ag346
ag347
ag348
ag349
ag350
ag351
ag352
ag353
ag354
ag355
ag356
ag357
ag358
ag359
ag360
ag361
ag362
ag363
ag364
ag365
ag366
ag367
ag368
ag369
ag370
ag371
ag372
ag373
ag374
ag375
ag376
ag377
ag302
ag230
ag378
ag379
ag380
ag381
ag382
ag383
ag384
ag385
ag386
ag387
ag388
ag389
ag390
ag391
ag392
ag393
ag394
ag395
ag396
ag397
ag398
ag399
ag400
ag401
ag402
ag403
ag404
ag405
ag406
ag407
ag408
ag409
ag410
ag411
ag412
ag413
ag414
ag415
ag416
ag417
ag418
ag419
ag230
ag231
ag232
ag233
ag234
ag235
ag236
ag237
ag238
ag239
ag240
ag241
ag242
ag243
ag244
ag245
ag246
ag247
ag248
ag249
ag250
ag251
ag252
ag253
ag254
ag255
ag256
ag257
ag258
ag259
ag260
ag261
ag262
ag263
ag264
ag265
ag266
ag267
ag268
ag269
ag270
ag271
ag272
ag273
ag274
ag275
ag276
ag277
ag278
ag279
ag280
ag281
ag282
ag283
ag284
ag285
ag286
ag287
ag288
ag289
ag290
ag291
ag292
ag293
ag294
ag295
ag296
ag297
ag298
ag299
ag300
ag301
ag302
asS'indices_of_pts'
p466
(lp467
(lp468
I145
aI144
aI143
aI142
aI141
aI140
aI139
aI138
aI137
aI136
aI135
aI134
aI133
aI132
aI131
aI130
aI129
aI128
aI127
aI126
aI125
aI124
aI123
aI122
aI121
aI120
aI119
aI118
aI117
aI116
aI115
aI114
aI113
aI112
aI111
aI110
aI109
aI108
aI107
aI106
aI105
aI104
aI103
aI102
aI101
aI100
aI99
aI98
aI97
aI96
aI95
aI94
aI93
aI92
aI91
aI90
aI89
aI88
aI87
aI86
aI85
aI84
aI83
aI82
aI81
aI80
aI79
aI78
aI77
aI76
aI75
aI74
aI73
aa(lp469
a(lp470
I0
aI1
aI2
aI3
aI4
aI5
aI6
aI7
aI8
aI9
aI10
aI11
aI12
aI13
aI14
aI15
aI16
aI17
aI18
aI19
aI20
aI21
aI22
aI23
aI24
aI25
aI26
aI27
aI28
aI29
aI30
aI31
aI32
aI33
aI34
aI35
aI36
aI37
aI38
aI39
aI40
aI41
aI42
aI43
aI44
aI45
aI46
aI47
aI48
aI49
aI50
aI51
aI52
aI53
aI54
aI55
aI56
aI57
aI58
aI59
aI60
aI61
aI62
aI63
aI64
aI65
aI66
aI67
aI68
aI69
aI70
aI71
aI72
aI73
aI74
aI75
aI76
aI77
aI78
aI79
aI80
aI81
aI82
aI83
aI84
aI85
aI86
aI87
aI88
aI89
aI90
aI91
aI92
aI93
aI94
aI95
aI96
aI97
aI98
aI99
aI100
aI101
aI102
aI103
aI104
aI105
aI106
aI107
aI108
aI109
aI110
aI111
aI112
aI113
aI114
aI115
aI116
aI117
aI118
aI119
aI120
aI121
aI122
aI123
aI124
aI125
aI126
aI127
aI128
aI129
aI130
aI131
aI132
aI133
aI134
aI135
aI136
aI137
aI138
aI139
aI140
aI141
aI142
aI143
aI144
aI145
aI146
aI147
aI148
aI149
aI150
aI151
aI152
aI153
aI154
aI155
aI156
aI157
aI158
aI159
aI160
aI161
aI162
aI163
aI164
aI165
aI166
aI167
aI168
aI169
aI170
aI171
aI172
aI173
aI174
aI175
aI176
aI177
aI178
aI179
aI180
aI181
aI182
aI183
aI184
aI185
aI186
aI187
aI188
aI189
aI190
aI191
aI192
aI193
aI194
aI195
aI196
aI197
aI198
aI199
aI200
aI201
aI202
aI203
aI204
aI205
aI206
aI207
aI208
aI209
aI210
aI211
aI212
aI213
aI214
aI215
aI216
aI217
aI218
aI219
aI220
aI221
aI222
aI223
aI224
aI225
aI226
aI227
aI228
aI229
aI0
aI1
aI2
aI3
aI4
aI5
aI6
aI7
aI8
aI9
aI10
aI11
aI12
aI13
aI14
aI15
aI16
aI17
aI18
aI19
aI20
aI21
aI22
aI23
aI24
aI25
aI26
aI27
aI28
aI29
aI30
aI31
aI32
aI33
aI34
aI35
aI36
aI37
aI38
aI39
aI40
aI41
aI42
aI43
aI44
aI45
aI46
aI47
aI48
aI49
aI50
aI51
aI52
aI53
aI54
aI55
aI56
aI57
aI58
aI59
aI60
aI61
aI62
aI63
aI64
aI65
aI66
aI67
aI68
aI69
aI70
aI71
aI72
aI73
aa(lp471
I145
aI146
aI147
aI148
aI149
aI150
aI151
aI152
aI153
aI154
aI155
aI156
aI157
aI158
aI159
aI160
aI161
aI162
aI163
aI164
aI165
aI166
aI167
aI168
aI169
aI170
aI171
aI172
aI173
aI174
aI175
aI176
aI177
aI178
aI179
aI180
aI181
aI182
aI183
aI184
aI185
aI186
aI187
aas.