(dp0
S'worst_score'
p1
cnumpy.core.multiarray
scalar
p2
(cnumpy
dtype
p3
(S'f8'
p4
I0
I1
tp5
Rp6
(I3
S'<'
p7
NNNI-1
I-1
I0
tp8
bS'\x00\x00\x00\x00\x00\x00T\xc0'
p9
tp10
Rp11
sS'totalpts'
p12
I48
sS'trajectory'
p13
(lp14
(lp15
(lp16
F389.63855421686753
aF418.91566265060254
aa(lp17
F389.39759036144574
aF421.2048192771085
aa(lp18
F388.433734939759
aF423.132530120482
aa(lp19
F387.4698795180723
aF425.06024096385545
aa(lp20
F386.50602409638554
aF426.98795180722897
aa(lp21
F385.54216867469876
aF428.9156626506024
aa(lp22
F384.578313253012
aF430.8433734939759
aa(lp23
F383.6144578313253
aF432.77108433734946
aa(lp24
F382.6506024096385
aF434.6987951807229
aa(lp25
F381.6867469879518
aF436.62650602409644
aa(lp26
F380.72289156626505
aF438.5542168674699
aa(lp27
F379.2771084337349
aF440.2409638554217
aa(lp28
F376.3855421686747
aF441.2048192771084
aa(lp29
F373.49397590361446
aF442.1686746987952
aa(lp30
F370.60240963855415
aF443.13253012048193
aa(lp31
F367.7108433734939
aF444.0963855421687
aa(lp32
F364.8192771084337
aF445.06024096385545
aa(lp33
F361.92771084337346
aF446.0240963855422
aa(lp34
F359.03614457831327
aF446.9879518072289
aa(lp35
F356.144578313253
aF447.95180722891564
aa(lp36
F353.25301204819283
aF448.91566265060237
aa(lp37
F350.36144578313247
aF449.87951807228916
aa(lp38
F346.62650602409633
aF449.1566265060241
aa(lp39
F342.77108433734935
aF448.1927710843373
aa(lp40
F338.91566265060237
aF447.2289156626506
aa(lp41
F335.0602409638554
aF446.26506024096386
aa(lp42
F331.2048192771084
aF445.30120481927713
aa(lp43
F327.3493975903613
aF444.33734939759034
aa(lp44
F323.49397590361434
aF443.3734939759036
aa(lp45
F319.63855421686736
aF442.4096385542168
aa(lp46
F315.7831325301204
aF441.4457831325301
aa(lp47
F311.9277108433734
aF440.48192771084337
aa(lp48
F308.0722891566264
aF439.0361445783132
aa(lp49
F304.2168674698795
aF437.10843373493975
aa(lp50
F300.3614457831324
aF435.1807228915662
aa(lp51
F296.50602409638543
aF433.2530120481927
aa(lp52
F292.65060240963845
aF431.32530120481925
aa(lp53
F288.7951807228915
aF429.39759036144574
aa(lp54
F284.93975903614455
aF427.4698795180723
aa(lp55
F281.0843373493976
aF425.54216867469876
aa(lp56
F277.2289156626506
aF423.6144578313253
aa(lp57
F273.3734939759035
aF421.6867469879518
aa(lp58
F269.5180722891565
aF419.6385542168674
aa(lp59
F265.6626506024096
aF416.74698795180717
aa(lp60
F261.8072289156626
aF413.855421686747
aa(lp61
F257.95180722891564
aF410.96385542168673
aa(lp62
F254.0963855421687
aF408.07228915662654
aa(lp63
F250.2409638554216
aF405.1807228915662
aa(lp64
F246.38554216867462
aF402.289156626506
aa(lp65
F242.53012048192767
aF399.39759036144574
aa(lp66
F238.6746987951807
aF396.50602409638554
aa(lp67
F234.81927710843374
aF393.6144578313253
aa(lp68
F230.9638554216868
aF390.7228915662651
aa(lp69
F228.5542168674699
aF386.38554216867476
aa(lp70
F226.62650602409633
aF381.5662650602409
aa(lp71
F224.69879518072287
aF376.7469879518071
aa(lp72
F222.77108433734938
aF371.9277108433734
aa(lp73
F220.8433734939759
aF367.1084337349397
aa(lp74
F218.9156626506024
aF362.289156626506
aa(lp75
F216.9879518072289
aF357.4698795180723
aa(lp76
F215.06024096385542
aF352.6506024096385
aa(lp77
F213.13253012048185
aF347.83132530120463
aa(lp78
F211.20481927710836
aF343.0120481927709
aa(lp79
F209.63855421686745
aF337.4698795180721
aa(lp80
F208.6746987951807
aF330.72289156626493
aa(lp81
F207.71084337349396
aF323.9759036144577
aa(lp82
F206.74698795180723
aF317.22891566265054
aa(lp83
F205.78313253012047
aF310.48192771084337
aa(lp84
F204.8192771084337
aF303.7349397590359
aa(lp85
F203.85542168674695
aF296.98795180722874
aa(lp86
F202.89156626506022
aF290.24096385542157
aa(lp87
F201.9277108433735
aF283.49397590361434
aa(lp88
F200.96385542168673
aF276.74698795180717
aa(lp89
F200.0
aF270.0
aaa(lp90
(lp91
F390.0
aF161.08433734939757
aa(lp92
F389.3975903614458
aF158.19277108433735
aa(lp93
F388.43373493975906
aF155.30120481927713
aa(lp94
F387.4698795180723
aF152.4096385542169
aa(lp95
F386.50602409638554
aF149.51807228915663
aa(lp96
F385.5421686746988
aF146.62650602409641
aa(lp97
F384.5783132530121
aF143.7349397590362
aa(lp98
F383.6144578313253
aF140.84337349397592
aa(lp99
F382.65060240963857
aF137.9518072289157
aa(lp100
F381.68674698795184
aF135.06024096385545
aa(lp101
F380.72289156626505
aF132.1686746987952
aa(lp102
F379.51807228915663
aF129.75903614457832
aa(lp103
F377.5903614457832
aF128.7951807228916
aa(lp104
F375.66265060240966
aF127.83132530120484
aa(lp105
F373.73493975903614
aF126.86746987951808
aa(lp106
F371.8072289156627
aF125.90361445783134
aa(lp107
F369.8795180722892
aF124.9397590361446
aa(lp108
F367.95180722891564
aF123.97590361445783
aa(lp109
F366.0240963855422
aF123.01204819277109
aa(lp110
F364.0963855421687
aF122.04819277108435
aa(lp111
F362.1686746987952
aF121.08433734939759
aa(lp112
F360.2409638554217
aF120.12048192771084
aa(lp113
F355.7831325301205
aF119.15662650602411
aa(lp114
F350.9638554216868
aF118.19277108433737
aa(lp115
F346.144578313253
aF117.2289156626506
aa(lp116
F341.3253012048193
aF116.26506024096386
aa(lp117
F336.5060240963856
aF115.30120481927712
aa(lp118
F331.6867469879518
aF114.33734939759036
aa(lp119
F326.86746987951807
aF113.37349397590361
aa(lp120
F322.04819277108436
aF112.40963855421687
aa(lp121
F317.2289156626506
aF111.44578313253011
aa(lp122
F312.4096385542168
aF110.48192771084337
aa(lp123
F308.07228915662654
aF110.0
aa(lp124
F304.21686746987956
aF110.0
aa(lp125
F300.3614457831325
aF110.0
aa(lp126
F296.50602409638554
aF110.0
aa(lp127
F292.6506024096386
aF110.0
aa(lp128
F288.7951807228916
aF110.0
aa(lp129
F284.9397590361446
aF110.0
aa(lp130
F281.08433734939763
aF110.0
aa(lp131
F277.2289156626507
aF110.0
aa(lp132
F273.37349397590367
aF110.0
aa(lp133
F269.63855421686753
aF110.48192771084332
aa(lp134
F266.7469879518073
aF114.33734939759029
aa(lp135
F263.855421686747
aF118.19277108433732
aa(lp136
F260.9638554216868
aF122.0481927710843
aa(lp137
F258.07228915662654
aF125.90361445783127
aa(lp138
F255.18072289156626
aF129.75903614457832
aa(lp139
F252.28915662650604
aF133.61445783132527
aa(lp140
F249.39759036144582
aF137.46987951807225
aa(lp141
F246.5060240963856
aF141.32530120481923
aa(lp142
F243.6144578313253
aF145.18072289156626
aa(lp143
F240.72289156626508
aF149.0361445783132
aa(lp144
F237.83132530120486
aF154.3373493975903
aa(lp145
F234.93975903614458
aF160.12048192771084
aa(lp146
F232.04819277108436
aF165.90361445783128
aa(lp147
F229.15662650602414
aF171.68674698795172
aa(lp148
F226.26506024096386
aF177.46987951807228
aa(lp149
F223.37349397590364
aF183.25301204819272
aa(lp150
F220.48192771084342
aF189.03614457831316
aa(lp151
F217.5903614457832
aF194.8192771084336
aa(lp152
F214.69879518072293
aF200.60240963855415
aa(lp153
F211.8072289156627
aF206.3855421686746
aa(lp154
F209.6385542168675
aF212.16867469879503
aa(lp155
F208.67469879518075
aF217.9518072289156
aa(lp156
F207.710843373494
aF223.73493975903605
aa(lp157
F206.74698795180726
aF229.51807228915652
aa(lp158
F205.7831325301205
aF235.30120481927707
aa(lp159
F204.81927710843374
aF241.08433734939752
aa(lp160
F203.855421686747
aF246.86746987951798
aa(lp161
F202.89156626506025
aF252.65060240963842
aa(lp162
F201.92771084337352
aF258.4337349397589
aa(lp163
F200.9638554216868
aF264.21686746987933
aag89
aa(lp164
g16
a(lp165
F388.67469879518075
aF416.0240963855422
aa(lp166
F387.710843373494
aF413.132530120482
aa(lp167
F386.7469879518072
aF410.24096385542174
aa(lp168
F385.7831325301205
aF407.3493975903615
aa(lp169
F384.81927710843377
aF404.45783132530124
aa(lp170
F383.85542168674704
aF401.56626506024105
aa(lp171
F382.89156626506025
aF398.6746987951807
aa(lp172
F381.92771084337346
aF395.78313253012044
aa(lp173
F380.96385542168673
aF392.89156626506025
aa(lp174
F380.0
aF390.0
aa(lp175
F380.0
aF390.0
aa(lp176
F379.03614457831327
aF388.0722891566265
aa(lp177
F378.0722891566265
aF386.144578313253
aa(lp178
F377.10843373493975
aF384.2168674698795
aa(lp179
F376.144578313253
aF382.28915662650604
aa(lp180
F375.1807228915663
aF380.3614457831325
aa(lp181
F374.2168674698795
aF378.43373493975906
aa(lp182
F373.2530120481928
aF376.50602409638554
aa(lp183
F372.28915662650604
aF374.578313253012
aa(lp184
F371.32530120481925
aF372.65060240963857
aa(lp185
F370.3614457831325
aF370.72289156626505
aa(lp186
F369.3975903614458
aF368.1927710843374
aa(lp187
F368.43373493975906
aF365.30120481927713
aa(lp188
F367.4698795180723
aF362.4096385542169
aa(lp189
F366.50602409638554
aF359.51807228915663
aa(lp190
F365.5421686746988
aF356.6265060240964
aa(lp191
F364.578313253012
aF353.73493975903614
aa(lp192
F363.6144578313253
aF350.8433734939759
aa(lp193
F362.65060240963857
aF347.95180722891564
aa(lp194
F361.68674698795184
aF345.06024096385545
aa(lp195
F360.72289156626505
aF342.1686746987952
aa(lp196
F359.7590361445783
aF339.27710843373495
aa(lp197
F358.7951807228916
aF336.3855421686747
aa(lp198
F357.8313253012048
aF333.49397590361446
aa(lp199
F356.86746987951807
aF330.6024096385542
aa(lp200
F355.90361445783134
aF327.71084337349396
aa(lp201
F354.93975903614455
aF324.8192771084337
aa(lp202
F353.9759036144578
aF321.9277108433735
aa(lp203
F353.0120481927711
aF319.03614457831327
aa(lp204
F352.04819277108436
aF316.144578313253
aa(lp205
F351.0843373493976
aF313.2530120481928
aa(lp206
F350.12048192771084
aF310.3614457831325
aa(lp207
F350.0
aF307.4698795180723
aa(lp208
F350.0
aF304.578313253012
aa(lp209
F350.0
aF301.68674698795184
aa(lp210
F350.0
aF298.7951807228916
aa(lp211
F350.0
aF295.90361445783134
aa(lp212
F350.0
aF293.0120481927711
aa(lp213
F350.0
aF290.12048192771084
aa(lp214
F350.0
aF287.2289156626506
aa(lp215
F350.0
aF284.33734939759034
aa(lp216
F350.0
aF281.44578313253015
aaa(lp217
g91
a(lp218
F390.0
aF163.97590361445785
aa(lp219
F390.0
aF166.86746987951807
aa(lp220
F390.0
aF169.75903614457832
aa(lp221
F390.0
aF172.6506024096386
aa(lp222
F390.0
aF175.54216867469881
aa(lp223
F390.0
aF178.43373493975903
aa(lp224
F390.0
aF181.32530120481925
aa(lp225
F390.0
aF184.21686746987956
aa(lp226
F390.0
aF187.10843373493978
aa(lp227
F390.0
aF190.0
aa(lp228
F389.03614457831327
aF192.89156626506028
aa(lp229
F388.0722891566265
aF195.7831325301205
aa(lp230
F387.10843373493975
aF198.67469879518072
aa(lp231
F386.144578313253
aF201.56626506024097
aa(lp232
F385.18072289156623
aF204.45783132530124
aa(lp233
F384.2168674698795
aF207.34939759036146
aa(lp234
F383.2530120481928
aF210.2409638554217
aa(lp235
F382.28915662650604
aF213.13253012048193
aa(lp236
F381.32530120481925
aF216.02409638554218
aa(lp237
F380.3614457831325
aF218.91566265060243
aa(lp238
F379.3975903614458
aF221.20481927710844
aa(lp239
F378.433734939759
aF223.13253012048193
aa(lp240
F377.4698795180723
aF225.06024096385542
aa(lp241
F376.50602409638554
aF226.9879518072289
aa(lp242
F375.5421686746988
aF228.91566265060243
aa(lp243
F374.578313253012
aF230.8433734939759
aa(lp244
F373.6144578313253
aF232.7710843373494
aa(lp245
F372.65060240963857
aF234.6987951807229
aa(lp246
F371.6867469879518
aF236.6265060240964
aa(lp247
F370.72289156626505
aF238.55421686746988
aa(lp248
F369.7590361445783
aF240.24096385542168
aa(lp249
F368.7951807228916
aF241.20481927710844
aa(lp250
F367.8313253012048
aF242.16867469879517
aa(lp251
F366.86746987951807
aF243.13253012048193
aa(lp252
F365.90361445783134
aF244.0963855421687
aa(lp253
F364.93975903614455
aF245.06024096385542
aa(lp254
F363.9759036144578
aF246.02409638554218
aa(lp255
F363.0120481927711
aF246.9879518072289
aa(lp256
F362.04819277108436
aF247.95180722891567
aa(lp257
F361.0843373493976
aF248.91566265060243
aa(lp258
F360.12048192771084
aF249.87951807228916
aa(lp259
F359.1566265060241
aF252.53012048192772
aa(lp260
F358.1927710843373
aF255.42168674698797
aa(lp261
F357.2289156626506
aF258.3132530120482
aa(lp262
F356.26506024096386
aF261.20481927710847
aa(lp263
F355.30120481927713
aF264.09638554216866
aa(lp264
F354.33734939759034
aF266.9879518072289
aa(lp265
F353.3734939759036
aF269.87951807228916
aa(lp266
F352.4096385542169
aF272.7710843373494
aa(lp267
F351.4457831325301
aF275.66265060240966
aa(lp268
F350.48192771084337
aF278.5542168674699
aag216
aasS'best_score'
p269
g2
(g6
S'\x00\x00\x00\x00\x00\x00F\xc0'
p270
tp271
Rp272
sS'old_trajectory'
p273
(lp274
g16
ag165
ag166
ag167
ag168
ag169
ag170
ag171
ag172
ag173
ag174
ag175
ag176
ag177
ag178
ag179
ag180
ag181
ag182
ag183
ag184
ag185
ag186
ag187
ag188
ag189
ag190
ag191
ag192
ag193
ag194
ag195
ag196
ag197
ag198
ag199
ag200
ag201
ag202
ag203
ag204
ag205
ag206
ag207
ag208
ag209
ag210
ag211
ag212
ag213
ag214
ag215
ag216
ag91
ag92
ag93
ag94
ag95
ag96
ag97
ag98
ag99
ag100
ag101
ag102
ag103
ag104
ag105
ag106
ag107
ag108
ag109
ag110
ag111
ag112
ag113
ag114
ag115
ag116
ag117
ag118
ag119
ag120
ag121
ag122
ag123
ag124
ag125
ag126
ag127
ag128
ag129
ag130
ag131
ag132
ag133
ag134
ag135
ag136
ag137
ag138
ag139
ag140
ag141
ag142
ag143
ag144
ag145
ag146
ag147
ag148
ag149
ag150
ag151
ag152
ag153
ag154
ag155
ag156
ag157
ag158
ag159
ag160
ag161
ag162
ag163
ag89
ag91
ag218
ag219
ag220
ag221
ag222
ag223
ag224
ag225
ag226
ag227
ag228
ag229
ag230
ag231
ag232
ag233
ag234
ag235
ag236
ag237
ag238
ag239
ag240
ag241
ag242
ag243
ag244
ag245
ag246
ag247
ag248
ag249
ag250
ag251
ag252
ag253
ag254
ag255
ag256
ag257
ag258
ag259
ag260
ag261
ag262
ag263
ag264
ag265
ag266
ag267
ag268
ag216
ag16
ag17
ag18
ag19
ag20
ag21
ag22
ag23
ag24
ag25
ag26
ag27
ag28
ag29
ag30
ag31
ag32
ag33
ag34
ag35
ag36
ag37
ag38
ag39
ag40
ag41
ag42
ag43
ag44
ag45
ag46
ag47
ag48
ag49
ag50
ag51
ag52
ag53
ag54
ag55
ag56
ag57
ag58
ag59
ag60
ag61
ag62
ag63
ag64
ag65
ag66
ag67
ag68
ag69
ag70
ag71
ag72
ag73
ag74
ag75
ag76
ag77
ag78
ag79
ag80
ag81
ag82
ag83
ag84
ag85
ag86
ag87
ag88
ag89
asS'indices_of_pts'
p275
(lp276
(lp277
I239
aI238
aI237
aI236
aI235
aI234
aI233
aI232
aI231
aI230
aI229
aI228
aI227
aI226
aI225
aI224
aI223
aI222
aI221
aI220
aI219
aI218
aI217
aI216
aI215
aI214
aI213
aI212
aI211
aI210
aI209
aI208
aI207
aI206
aI205
aI204
aI203
aI202
aI201
aI200
aI199
aI198
aI197
aI196
aI195
aI194
aI193
aI192
aI191
aI190
aI189
aI188
aI187
aI186
aI185
aI184
aI183
aI182
aI181
aI180
aI179
aI178
aI177
aI176
aI175
aI174
aI173
aI172
aI171
aI170
aI169
aI168
aI167
aI166
aa(lp278
I93
aI94
aI95
aI96
aI97
aI98
aI99
aI100
aI101
aI102
aI103
aI104
aI105
aI106
aI107
aI108
aI109
aI110
aI111
aI112
aI113
aI114
aI115
aI116
aI117
aI118
aI119
aI120
aI121
aI122
aI123
aI124
aI125
aI126
aI127
aI128
aI129
aI130
aI131
aI132
aI133
aI134
aI135
aI136
aI137
aI138
aI139
aI140
aI141
aI142
aI143
aI144
aI145
aI146
aI147
aI148
aI149
aI150
aI151
aI152
aI153
aI154
aI155
aI156
aI157
aI158
aI159
aI160
aI161
aI162
aI163
aI164
aI165
aI166
aa(lp279
I239
aI240
aI241
aI242
aI243
aI244
aI245
aI246
aI247
aI248
aI249
aI0
aI1
aI2
aI3
aI4
aI5
aI6
aI7
aI8
aI9
aI10
aI11
aI12
aI13
aI14
aI15
aI16
aI17
aI18
aI19
aI20
aI21
aI22
aI23
aI24
aI25
aI26
aI27
aI28
aI29
aI30
aI31
aI32
aI33
aI34
aI35
aI36
aI37
aI38
aI39
aI40
aI41
aa(lp280
I93
aI92
aI91
aI90
aI89
aI88
aI87
aI86
aI85
aI84
aI83
aI82
aI81
aI80
aI79
aI78
aI77
aI76
aI75
aI74
aI73
aI72
aI71
aI70
aI69
aI68
aI67
aI66
aI65
aI64
aI63
aI62
aI61
aI60
aI59
aI58
aI57
aI56
aI55
aI54
aI53
aI52
aI51
aI50
aI49
aI48
aI47
aI46
aI45
aI44
aI43
aI42
aI41
aas.