(lp0
F0.035744666913491784
aF0.04814605491033305
aF-0.11364022039332478
a.(lp0
F0.04725654299588975
aF0.04945676298399066
aF-0.11291391482287891
a.(lp0
F0.051748079676773334
aF0.05118482409775154
aF-0.11267343750838617
a.(lp0
F0.05648127772126867
aF0.05098792100717298
aF-0.11241474237537878
a.(lp0
F0.06086766655641727
aF0.05287866894915062
aF-0.1137247724609558
a.(lp0
F0.06501962981310802
aF0.05360661479456042
aF-0.11262379250549781
a.(lp0
F0.06892960942509146
aF0.05462739590646879
aF-0.1139456807581067
a.(lp0
F0.07310926312953069
aF0.055239729227008656
aF-0.1136127111014783
a.(lp0
F0.07767720127064645
aF0.056996641365432095
aF-0.11393667102934409
a.(lp0
F0.080376551206715
aF0.0603515376569803
aF-0.11433060098499945
a.(lp0
F0.08251158896536195
aF0.06299865525918957
aF-0.11591732802088812
a.(lp0
F0.08258913103991944
aF0.06950640467861503
aF-0.11560374244781364
a.(lp0
F0.08099800846027103
aF0.07251277050593935
aF-0.11465226907275793
a.(lp0
F0.07959822657111776
aF0.07865919467432758
aF-0.11276265299834173
a.(lp0
F0.0731480372800545
aF0.08277728660347665
aF-0.11329183515611348
a.(lp0
F0.06892533540125938
aF0.08352895358724147
aF-0.11504535339994032
a.(lp0
F0.06423755734244327
aF0.08418156285188227
aF-0.11451952165707645
a.(lp0
F0.05981474407110902
aF0.08375238505894228
aF-0.11402679740669182
a.(lp0
F0.05497600649162014
aF0.08270200438222983
aF-0.1136903464282617
a.(lp0
F0.050412695856598876
aF0.08145090721831373
aF-0.11308681124449993
a.(lp0
F0.04506205132247595
aF0.08073166071571657
aF-0.11141750331318118
a.(lp0
F0.039379564543604424
aF0.08053410545534982
aF-0.1119309828316107
a.(lp0
F0.03517722217765897
aF0.0791599215544991
aF-0.11102283400686273
a.