(dp0
S'worst_score'
p1
I33
sS'totalpts'
p2
I109
sS'trajectory'
p3
(lp4
(lp5
(lp6
F449.96282527881044
aF162.59293680297392
aa(lp7
F448.1412639405204
aF159.01486988847577
aa(lp8
F446.2081784386617
aF155.3903345724907
aa(lp9
F444.275092936803
aF151.7657992565056
aa(lp10
F442.3420074349442
aF148.14126394052036
aa(lp11
F440.4089219330855
aF144.5167286245353
aa(lp12
F438.47583643122675
aF140.8921933085502
aa(lp13
F436.542750929368
aF137.2676579925651
aa(lp14
F434.60966542750924
aF133.64312267657988
aa(lp15
F432.67657992565057
aF130.01858736059478
aa(lp16
F430.74349442379184
aF126.3940520446097
aa(lp17
F426.43122676579935
aF124.2565055762082
aa(lp18
F420.63197026022294
aF123.04832713754645
aa(lp19
F414.8327137546468
aF121.84014869888475
aa(lp20
F409.03345724907064
aF120.63197026022306
aa(lp21
F403.23420074349445
aF119.42379182156135
aa(lp22
F397.4349442379181
aF118.2156133828996
aa(lp23
F391.6356877323419
aF117.0074349442379
aa(lp24
F385.83643122676574
aF115.7992565055762
aa(lp25
F380.0371747211896
aF114.5910780669145
aa(lp26
F374.2379182156132
aF113.38289962825276
aa(lp27
F368.17843866170995
aF112.82527881040895
aa(lp28
F361.4126394052044
aF114.03345724907064
aa(lp29
F354.6468401486989
aF115.24163568773234
aa(lp30
F347.88104089219314
aF116.44981412639407
aa(lp31
F341.11524163568765
aF117.65799256505578
aa(lp32
F334.34944237918216
aF118.86617100371747
aa(lp33
F327.5836431226766
aF120.07434944237917
aa(lp34
F320.8178438661709
aF121.2825278810409
aa(lp35
F314.0520446096654
aF122.49070631970261
aa(lp36
F307.28624535315987
aF123.6988847583643
aa(lp37
F300.5204460966544
aF124.907063197026
aa(lp38
F295.539033457249
aF126.11524163568775
aa(lp39
F290.70631970260223
aF127.32342007434944
aa(lp40
F285.8736059479554
aF128.53159851301115
aa(lp41
F281.0408921933086
aF129.73977695167287
aa(lp42
F276.2081784386616
aF130.94795539033458
aa(lp43
F271.3754646840148
aF132.1561338289963
aa(lp44
F266.542750929368
aF133.364312267658
aa(lp45
F261.7100371747212
aF134.5724907063197
aa(lp46
F256.8773234200742
aF135.78066914498143
aa(lp47
F252.0446096654274
aF136.98884758364315
aa(lp48
F247.7695167286245
aF138.19702602230484
aa(lp49
F243.90334572490707
aF139.40520446096653
aa(lp50
F240.0371747211895
aF140.61338289962828
aa(lp51
F236.17100371747205
aF141.82156133828997
aa(lp52
F232.30483271375462
aF143.0297397769517
aa(lp53
F228.43866171003705
aF144.2379182156134
aa(lp54
F224.57249070631963
aF145.44609665427512
aa(lp55
F220.7063197026022
aF146.6542750929368
aa(lp56
F216.84014869888478
aF147.8624535315985
aa(lp57
F212.9739776951672
aF149.07063197026025
aa(lp58
F209.55390334572488
aF151.1152416356878
aa(lp59
F207.62081784386618
aF155.94795539033458
aa(lp60
F205.68773234200745
aF160.7806691449814
aa(lp61
F203.75464684014864
aF165.6133828996284
aa(lp62
F201.82156133828994
aF170.44609665427518
aa(lp63
F199.8884758364312
aF175.278810408922
aa(lp64
F197.95539033457248
aF180.1115241635688
aa(lp65
F196.0223048327137
aF184.94423791821578
aa(lp66
F194.08921933085497
aF189.77695167286257
aa(lp67
F192.15613382899625
aF194.60966542750938
aa(lp68
F190.22304832713752
aF199.4423791821562
aa(lp69
F189.14498141263937
aF202.13754646840158
aa(lp70
F188.17843866171
aF204.55390334572496
aa(lp71
F187.21189591078064
aF206.97026022304837
aa(lp72
F186.2453531598513
aF209.38661710037175
aa(lp73
F185.2788104089219
aF211.80297397769525
aa(lp74
F184.31226765799255
aF214.21933085501863
aa(lp75
F183.3457249070632
aF216.63568773234203
aa(lp76
F182.37918215613382
aF219.05204460966542
aa(lp77
F181.41263940520443
aF221.4684014869889
aa(lp78
F180.44609665427507
aF223.8847583643123
aa(lp79
F180.0
aF228.9033457249071
aaa(lp80
(lp81
F470.0
aF398.2342007434944
aa(lp82
F469.73977695167287
aF400.97583643122675
aa(lp83
F468.7732342007435
aF404.6003717472119
aa(lp84
F467.80669144981414
aF408.224907063197
aa(lp85
F466.8401486988848
aF411.84944237918216
aa(lp86
F465.8736059479554
aF415.47397769516726
aa(lp87
F464.90706319702605
aF419.0985130111524
aa(lp88
F463.9405204460967
aF422.7230483271375
aa(lp89
F462.97397769516726
aF426.3475836431227
aa(lp90
F462.0074349442379
aF429.9721189591078
aa(lp91
F461.04089219330854
aF433.59665427509293
aa(lp92
F460.0743494423792
aF437.22118959107803
aa(lp93
F458.2156133828996
aF438.6152416356877
aa(lp94
F456.2825278810409
aF439.82342007434943
aa(lp95
F454.34944237918216
aF441.03159851301115
aa(lp96
F452.41635687732344
aF442.23977695167287
aa(lp97
F450.4832713754647
aF443.4479553903346
aa(lp98
F448.550185873606
aF444.65613382899625
aa(lp99
F446.6171003717472
aF445.86431226765797
aa(lp100
F444.6840148698885
aF447.0724907063197
aa(lp101
F442.75092936802974
aF448.2806691449814
aa(lp102
F440.817843866171
aF449.4888475836431
aa(lp103
F438.3271375464684
aF450.69702602230484
aa(lp104
F435.4275092936803
aF451.90520446096656
aa(lp105
F432.5278810408922
aF453.1133828996282
aa(lp106
F429.62825278810413
aF454.32156133828994
aa(lp107
F426.728624535316
aF455.52973977695166
aa(lp108
F423.8289962825279
aF456.7379182156134
aa(lp109
F420.9293680297398
aF457.9460966542751
aa(lp110
F418.02973977695166
aF459.1542750929368
aa(lp111
F415.13011152416357
aF460.3624535315985
aa(lp112
F412.2304832713755
aF461.57063197026025
aa(lp113
F408.8847583643123
aF462.5
aa(lp114
F404.0520446096654
aF462.5
aa(lp115
F399.2193308550186
aF462.5
aa(lp116
F394.3866171003717
aF462.5
aa(lp117
F389.55390334572496
aF462.5
aa(lp118
F384.72118959107803
aF462.5
aa(lp119
F379.88847583643127
aF462.5
aa(lp120
F375.0557620817844
aF462.5
aa(lp121
F370.2230483271376
aF462.5
aa(lp122
F365.3903345724907
aF462.5
aa(lp123
F360.5576208178439
aF462.5
aa(lp124
F356.5799256505576
aF461.43122676579924
aa(lp125
F352.7137546468402
aF460.2230483271376
aa(lp126
F348.8475836431227
aF459.01486988847586
aa(lp127
F344.9814126394052
aF457.80669144981414
aa(lp128
F341.1152416356877
aF456.5985130111524
aa(lp129
F337.24907063197026
aF455.3903345724907
aa(lp130
F333.38289962825274
aF454.182156133829
aa(lp131
F329.51672862453535
aF452.9739776951673
aa(lp132
F325.65055762081784
aF451.76579925650555
aa(lp133
F321.7843866171004
aF450.5576208178439
aa(lp134
F317.3977695167286
aF448.69888475836433
aa(lp135
F312.5650557620818
aF446.2825278810409
aa(lp136
F307.7323420074349
aF443.86617100371745
aa(lp137
F302.89962825278815
aF441.4498141263941
aa(lp138
F298.0669144981413
aF439.03345724907064
aa(lp139
F293.23420074349445
aF436.6171003717472
aa(lp140
F288.4014869888476
aF434.20074349442376
aa(lp141
F283.56877323420076
aF431.7843866171004
aa(lp142
F278.7360594795539
aF429.36802973977694
aa(lp143
F273.90334572490707
aF426.95167286245356
aa(lp144
F269.25650557620816
aF424.5353159851301
aa(lp145
F265.39033457249076
aF422.1189591078067
aa(lp146
F261.52416356877325
aF419.70260223048325
aa(lp147
F257.6579925650558
aF417.28624535315987
aa(lp148
F253.7918215613383
aF414.86988847583643
aa(lp149
F249.92565055762088
aF412.45353159851305
aa(lp150
F246.05947955390337
aF410.0371747211896
aa(lp151
F242.19330855018595
aF407.62081784386623
aa(lp152
F238.32713754646844
aF405.2044609665428
aa(lp153
F234.460966542751
aF402.78810408921936
aa(lp154
F230.5947955390335
aF400.3717472118959
aa(lp155
F228.36431226765802
aF397.95539033457254
aa(lp156
F226.4312267657993
aF395.5390334572491
aa(lp157
F224.49814126394057
aF393.1226765799257
aa(lp158
F222.5650557620818
aF390.7063197026023
aa(lp159
F220.63197026022306
aF388.28996282527885
aa(lp160
F218.69888475836433
aF385.8736059479554
aa(lp161
F216.76579925650557
aF383.457249070632
aa(lp162
F214.83271375464687
aF381.0408921933086
aa(lp163
F212.89962825278812
aF378.62453531598516
aa(lp164
F210.9665427509294
aF376.2081784386617
aa(lp165
F209.03345724907064
aF373.18773234200745
aa(lp166
F207.1003717472119
aF369.56319702602235
aa(lp167
F205.16728624535318
aF365.9386617100372
aa(lp168
F203.23420074349445
aF362.3141263940521
aa(lp169
F201.3011152416357
aF358.68959107806694
aa(lp170
F199.36802973977697
aF355.06505576208184
aa(lp171
F197.43494423791822
aF351.4405204460967
aa(lp172
F195.5018587360595
aF347.8159851301116
aa(lp173
F193.56877323420076
aF344.19144981412643
aa(lp174
F191.63568773234203
aF340.56691449814133
aa(lp175
F189.85130111524163
aF336.9423791821562
aa(lp176
F188.8847583643123
aF333.3178438661711
aa(lp177
F187.9182156133829
aF329.69330855018586
aa(lp178
F186.95167286245353
aF326.06877323420076
aa(lp179
F185.98513011152417
aF322.4442379182156
aa(lp180
F185.0185873605948
aF318.8197026022305
aa(lp181
F184.05204460966544
aF315.19516728624535
aa(lp182
F183.08550185873608
aF311.57063197026025
aa(lp183
F182.1189591078067
aF307.9460966542751
aa(lp184
F181.15241635687732
aF304.32156133829
aa(lp185
F180.18587360594796
aF300.69702602230484
aa(lp186
F180.0
aF294.1449814126395
aa(lp187
F180.0
aF286.89591078066917
aa(lp188
F180.0
aF279.64684014869897
aa(lp189
F180.0
aF272.39776951672866
aa(lp190
F180.0
aF265.14869888475835
aa(lp191
F180.0
aF257.89962825278815
aa(lp192
F180.0
aF250.65055762081795
aa(lp193
F180.0
aF243.40148698884775
aa(lp194
F180.0
aF236.1524163568773
aag79
aa(lp195
g6
a(lp196
F448.996282527881
aF165.0092936802974
aa(lp197
F448.02973977695166
aF167.4256505576208
aa(lp198
F447.06319702602235
aF169.84200743494418
aa(lp199
F446.096654275093
aF172.2583643122676
aa(lp200
F445.13011152416357
aF174.67472118959105
aa(lp201
F444.1635687732342
aF177.09107806691446
aa(lp202
F443.19702602230484
aF179.50743494423784
aa(lp203
F442.23048327137553
aF181.92379182156122
aa(lp204
F441.2639405204461
aF184.34014869888472
aa(lp205
F440.29739776951675
aF186.75650557620813
aa(lp206
F437.99256505576216
aF188.33643122676577
aa(lp207
F435.0929368029741
aF189.54460966542746
aa(lp208
F432.1933085501859
aF190.7527881040892
aa(lp209
F429.2936802973978
aF191.9609665427509
aa(lp210
F426.39405204460974
aF193.16914498141261
aa(lp211
F423.49442379182165
aF194.3773234200743
aa(lp212
F420.5947955390335
aF195.58550185873605
aa(lp213
F417.6951672862454
aF196.79368029739774
aa(lp214
F414.7955390334573
aF198.00185873605946
aa(lp215
F411.8959107806691
aF199.2100371747212
aa(lp216
F408.996282527881
aF200.0
aa(lp217
F406.09665427509293
aF200.0
aa(lp218
F403.1970260223049
aF200.0
aa(lp219
F400.2973977695167
aF200.0
aa(lp220
F397.3977695167286
aF200.0
aa(lp221
F394.4981412639405
aF200.0
aa(lp222
F391.5985130111524
aF200.0
aa(lp223
F388.6988847583643
aF200.0
aa(lp224
F385.7992565055762
aF200.0
aa(lp225
F382.8996282527881
aF200.0
aa(lp226
F380.0
aF200.0
aaa(lp227
g81
a(lp228
F470.0
aF395.817843866171
aa(lp229
F470.0
aF393.4014869888476
aa(lp230
F470.0
aF390.98513011152414
aa(lp231
F470.0
aF388.56877323420076
aa(lp232
F470.0
aF386.1524163568773
aa(lp233
F470.0
aF383.7360594795539
aa(lp234
F470.0
aF381.3197026022305
aa(lp235
F470.0
aF378.90334572490707
aa(lp236
F470.0
aF376.48698884758363
aa(lp237
F469.25650557620816
aF374.07063197026025
aa(lp238
F467.32342007434943
aF371.6542750929368
aa(lp239
F465.3903345724907
aF369.2379182156134
aa(lp240
F463.457249070632
aF366.82156133828994
aa(lp241
F461.52416356877325
aF364.40520446096656
aa(lp242
F459.5910780669145
aF361.9888475836431
aa(lp243
F457.65799256505574
aF359.5724907063197
aa(lp244
F455.724907063197
aF357.15613382899625
aa(lp245
F453.7918215613383
aF354.73977695167287
aa(lp246
F451.85873605947955
aF352.32342007434943
aa(lp247
F449.8884758364312
aF349.953531598513
aa(lp248
F446.9888475836431
aF348.7453531598513
aa(lp249
F444.08921933085503
aF347.53717472118956
aa(lp250
F441.1895910780669
aF346.3289962825279
aa(lp251
F438.2899628252788
aF345.1208178438662
aa(lp252
F435.3903345724907
aF343.91263940520446
aa(lp253
F432.4907063197026
aF342.70446096654274
aa(lp254
F429.5910780669145
aF341.496282527881
aa(lp255
F426.6914498141264
aF340.2881040892193
aa(lp256
F423.7918215613383
aF339.07992565055764
aa(lp257
F420.8921933085502
aF337.8717472118959
aa(lp258
F417.32342007434943
aF335.8271375464684
aa(lp259
F413.457249070632
aF333.41078066914497
aa(lp260
F409.5910780669145
aF330.99442379182153
aa(lp261
F405.724907063197
aF328.57806691449815
aa(lp262
F401.85873605947955
aF326.1617100371747
aa(lp263
F397.9925650557621
aF323.7453531598513
aa(lp264
F394.1263940520446
aF321.3289962825279
aa(lp265
F390.26022304832713
aF318.91263940520446
aa(lp266
F386.3940520446097
aF316.496282527881
aa(lp267
F382.52788104089217
aF314.07992565055764
aa(lp268
F378.996282527881
aF312.5
aa(lp269
F376.09665427509293
aF312.5
aa(lp270
F373.19702602230484
aF312.5
aa(lp271
F370.29739776951675
aF312.5
aa(lp272
F367.3977695167286
aF312.5
aa(lp273
F364.4981412639405
aF312.5
aa(lp274
F361.5985130111524
aF312.5
aa(lp275
F358.69888475836433
aF312.5
aa(lp276
F355.7992565055762
aF312.5
aa(lp277
F352.8996282527881
aF312.5
aa(lp278
F350.0
aF312.5
aaasS'best_score'
p279
I42
sS'init_score'
p280
I0
sS'old_trajectory'
p281
(lp282
g81
ag228
ag229
ag230
ag231
ag232
ag233
ag234
ag235
ag236
ag237
ag238
ag239
ag240
ag241
ag242
ag243
ag244
ag245
ag246
ag247
ag248
ag249
ag250
ag251
ag252
ag253
ag254
ag255
ag256
ag257
ag258
ag259
ag260
ag261
ag262
ag263
ag264
ag265
ag266
ag267
ag268
ag269
ag270
ag271
ag272
ag273
ag274
ag275
ag276
ag277
ag278
ag6
ag7
ag8
ag9
ag10
ag11
ag12
ag13
ag14
ag15
ag16
ag17
ag18
ag19
ag20
ag21
ag22
ag23
ag24
ag25
ag26
ag27
ag28
ag29
ag30
ag31
ag32
ag33
ag34
ag35
ag36
ag37
ag38
ag39
ag40
ag41
ag42
ag43
ag44
ag45
ag46
ag47
ag48
ag49
ag50
ag51
ag52
ag53
ag54
ag55
ag56
ag57
ag58
ag59
ag60
ag61
ag62
ag63
ag64
ag65
ag66
ag67
ag68
ag69
ag70
ag71
ag72
ag73
ag74
ag75
ag76
ag77
ag78
ag79
ag81
ag82
ag83
ag84
ag85
ag86
ag87
ag88
ag89
ag90
ag91
ag92
ag93
ag94
ag95
ag96
ag97
ag98
ag99
ag100
ag101
ag102
ag103
ag104
ag105
ag106
ag107
ag108
ag109
ag110
ag111
ag112
ag113
ag114
ag115
ag116
ag117
ag118
ag119
ag120
ag121
ag122
ag123
ag124
ag125
ag126
ag127
ag128
ag129
ag130
ag131
ag132
ag133
ag134
ag135
ag136
ag137
ag138
ag139
ag140
ag141
ag142
ag143
ag144
ag145
ag146
ag147
ag148
ag149
ag150
ag151
ag152
ag153
ag154
ag155
ag156
ag157
ag158
ag159
ag160
ag161
ag162
ag163
ag164
ag165
ag166
ag167
ag168
ag169
ag170
ag171
ag172
ag173
ag174
ag175
ag176
ag177
ag178
ag179
ag180
ag181
ag182
ag183
ag184
ag185
ag186
ag187
ag188
ag189
ag190
ag191
ag192
ag193
ag194
ag79
ag6
ag196
ag197
ag198
ag199
ag200
ag201
ag202
ag203
ag204
ag205
ag206
ag207
ag208
ag209
ag210
ag211
ag212
ag213
ag214
ag215
ag216
ag217
ag218
ag219
ag220
ag221
ag222
ag223
ag224
ag225
ag226
asS'indices_of_pts'
p283
(lp284
(lp285
I238
aI237
aI236
aI235
aI234
aI233
aI232
aI231
aI230
aI229
aI228
aI227
aI226
aI225
aI224
aI223
aI222
aI221
aI220
aI219
aI218
aI217
aI216
aI215
aI214
aI213
aI212
aI211
aI210
aI209
aI208
aI207
aI206
aI205
aI204
aI203
aI202
aI201
aI200
aI199
aI198
aI197
aI196
aI195
aI194
aI193
aI192
aI191
aI190
aI189
aI188
aI187
aI186
aI185
aI184
aI183
aI182
aI181
aI180
aI179
aI178
aI177
aI176
aI175
aI174
aI173
aI172
aI171
aI170
aI169
aI168
aI167
aI166
aI165
aa(lp286
I51
aI52
aI53
aI54
aI55
aI56
aI57
aI58
aI59
aI60
aI61
aI62
aI63
aI64
aI65
aI66
aI67
aI68
aI69
aI70
aI71
aI72
aI73
aI74
aI75
aI76
aI77
aI78
aI79
aI80
aI81
aI82
aI83
aI84
aI85
aI86
aI87
aI88
aI89
aI90
aI91
aI92
aI93
aI94
aI95
aI96
aI97
aI98
aI99
aI100
aI101
aI102
aI103
aI104
aI105
aI106
aI107
aI108
aI109
aI110
aI111
aI112
aI113
aI114
aI115
aI116
aI117
aI118
aI119
aI120
aI121
aI122
aI123
aI124
aI125
aI126
aI127
aI128
aI129
aI130
aI131
aI132
aI133
aI134
aI135
aI136
aI137
aI138
aI139
aI140
aI141
aI142
aI143
aI144
aI145
aI146
aI147
aI148
aI149
aI150
aI151
aI152
aI153
aI154
aI155
aI156
aI157
aI158
aI159
aI160
aI161
aI162
aI163
aI164
aI165
aa(lp287
I238
aI239
aI240
aI241
aI242
aI243
aI244
aI245
aI246
aI247
aI248
aI249
aI250
aI251
aI252
aI253
aI254
aI255
aI256
aI257
aI258
aI259
aI260
aI261
aI262
aI263
aI264
aI265
aI266
aI267
aI268
aI269
aa(lp288
I51
aI50
aI49
aI48
aI47
aI46
aI45
aI44
aI43
aI42
aI41
aI40
aI39
aI38
aI37
aI36
aI35
aI34
aI33
aI32
aI31
aI30
aI29
aI28
aI27
aI26
aI25
aI24
aI23
aI22
aI21
aI20
aI19
aI18
aI17
aI16
aI15
aI14
aI13
aI12
aI11
aI10
aI9
aI8
aI7
aI6
aI5
aI4
aI3
aI2
aI1
aI0
aas.