(dp0
S'worst_pin_pt'
p1
(lp2
cnumpy.core.multiarray
scalar
p3
(cnumpy
dtype
p4
(S'i8'
p5
I0
I1
tp6
Rp7
(I3
S'<'
p8
NNNI-1
I-1
I0
tp9
bS'2\x00\x00\x00\x00\x00\x00\x00'
p10
tp11
Rp12
ag3
(g7
S'2\x00\x00\x00\x00\x00\x00\x00'
p13
tp14
Rp15
asS'pin_scores'
p16
(lp17
I17
aI17
aI18
aI17
aI17
aI17
aI17
aI17
aI17
aI17
aI17
aI17
aI17
aI17
asS'best_score'
p18
I17
sS'init_score'
p19
I0
sS'worst_score'
p20
I17
sS'totalpts'
p21
I62
sS'pin_pts'
p22
(lp23
g2
a(lp24
g3
(g7
S'2\x00\x00\x00\x00\x00\x00\x00'
p25
tp26
Rp27
ag3
(g7
S'\xfa\x00\x00\x00\x00\x00\x00\x00'
p28
tp29
Rp30
aa(lp31
g3
(g7
S'<\x00\x00\x00\x00\x00\x00\x00'
p32
tp33
Rp34
ag3
(g7
S'\xc8\x00\x00\x00\x00\x00\x00\x00'
p35
tp36
Rp37
aa(lp38
g3
(g7
S'F\x00\x00\x00\x00\x00\x00\x00'
p39
tp40
Rp41
ag3
(g7
S'\x96\x00\x00\x00\x00\x00\x00\x00'
p42
tp43
Rp44
aa(lp45
g3
(g7
S'P\x00\x00\x00\x00\x00\x00\x00'
p46
tp47
Rp48
ag3
(g7
S'd\x00\x00\x00\x00\x00\x00\x00'
p49
tp50
Rp51
aa(lp52
g3
(g7
S'd\x00\x00\x00\x00\x00\x00\x00'
p53
tp54
Rp55
ag3
(g7
S'd\x00\x00\x00\x00\x00\x00\x00'
p56
tp57
Rp58
aa(lp59
g3
(g7
S'x\x00\x00\x00\x00\x00\x00\x00'
p60
tp61
Rp62
ag3
(g7
S'd\x00\x00\x00\x00\x00\x00\x00'
p63
tp64
Rp65
aa(lp66
g3
(g7
S'\x8c\x00\x00\x00\x00\x00\x00\x00'
p67
tp68
Rp69
ag3
(g7
S'd\x00\x00\x00\x00\x00\x00\x00'
p70
tp71
Rp72
aa(lp73
g3
(g7
S'\xa0\x00\x00\x00\x00\x00\x00\x00'
p74
tp75
Rp76
ag3
(g7
S'<\x00\x00\x00\x00\x00\x00\x00'
p77
tp78
Rp79
aa(lp80
g3
(g7
S'\xaa\x00\x00\x00\x00\x00\x00\x00'
p81
tp82
Rp83
ag3
(g7
S'\x82\x00\x00\x00\x00\x00\x00\x00'
p84
tp85
Rp86
aa(lp87
g3
(g7
S'\xc8\x00\x00\x00\x00\x00\x00\x00'
p88
tp89
Rp90
ag3
(g7
S'Z\x00\x00\x00\x00\x00\x00\x00'
p91
tp92
Rp93
aa(lp94
g3
(g7
S'\xe6\x00\x00\x00\x00\x00\x00\x00'
p95
tp96
Rp97
ag3
(g7
S'P\x00\x00\x00\x00\x00\x00\x00'
p98
tp99
Rp100
aa(lp101
g3
(g7
S'\x04\x01\x00\x00\x00\x00\x00\x00'
p102
tp103
Rp104
ag3
(g7
S'F\x00\x00\x00\x00\x00\x00\x00'
p105
tp106
Rp107
aa(lp108
g3
(g7
S'"\x01\x00\x00\x00\x00\x00\x00'
p109
tp110
Rp111
ag3
(g7
S'<\x00\x00\x00\x00\x00\x00\x00'
p112
tp113
Rp114
aasS'trajectory'
p115
(lp116
(lp117
(lp118
F390.0
aF329.4378698224852
aa(lp119
F389.76331360946745
aF323.5207100591716
aa(lp120
F388.8165680473373
aF317.603550295858
aa(lp121
F387.86982248520707
aF311.68639053254435
aa(lp122
F386.9230769230769
aF305.7692307692308
aa(lp123
F385.97633136094674
aF299.85207100591714
aa(lp124
F385.0295857988166
aF293.93491124260356
aa(lp125
F384.08284023668637
aF288.0177514792899
aa(lp126
F383.1360946745562
aF282.1005917159763
aa(lp127
F382.18934911242604
aF276.1834319526627
aa(lp128
F381.2426035502958
aF270.2662721893491
aa(lp129
F380.29585798816566
aF264.3491124260355
aa(lp130
F378.698224852071
aF260.0591715976331
aa(lp131
F376.8047337278107
aF256.508875739645
aa(lp132
F374.9112426035503
aF252.95857988165682
aa(lp133
F373.0177514792899
aF249.4082840236686
aa(lp134
F371.1242603550296
aF245.8579881656805
aa(lp135
F369.2307692307692
aF242.3076923076923
aa(lp136
F367.3372781065089
aF238.75739644970417
aa(lp137
F365.4437869822485
aF235.20710059171597
aa(lp138
F363.55029585798815
aF231.65680473372777
aa(lp139
F361.6568047337278
aF228.10650887573965
aa(lp140
F359.64497041420117
aF224.4082840236686
aa(lp141
F356.8047337278107
aF219.67455621301778
aa(lp142
F353.9644970414201
aF214.94082840236686
aa(lp143
F351.1242603550296
aF210.20710059171603
aa(lp144
F348.28402366863907
aF205.47337278106508
aa(lp145
F345.4437869822485
aF200.73964497041416
aa(lp146
F342.603550295858
aF196.00591715976333
aa(lp147
F339.76331360946745
aF191.2721893491124
aa(lp148
F336.92307692307696
aF186.53846153846158
aa(lp149
F334.08284023668637
aF181.80473372781063
aa(lp150
F331.2426035502958
aF177.0710059171597
aa(lp151
F327.8698224852071
aF173.66863905325445
aa(lp152
F324.08284023668637
aF171.301775147929
aa(lp153
F320.2958579881656
aF168.93491124260353
aa(lp154
F316.508875739645
aF166.56804733727813
aa(lp155
F312.7218934911243
aF164.20118343195267
aa(lp156
F308.93491124260356
aF161.8343195266272
aa(lp157
F305.1479289940828
aF159.46745562130175
aa(lp158
F301.3609467455621
aF157.1005917159763
aa(lp159
F297.57396449704146
aF154.73372781065092
aa(lp160
F293.78698224852076
aF152.36686390532546
aa(lp161
F290.0
aF150.0
aaa(lp162
(lp163
F310.0
aF337.5
aa(lp164
F307.15976331360946
aF337.5
aa(lp165
F304.3195266272189
aF337.5
aa(lp166
F301.4792899408284
aF337.5
aa(lp167
F298.6390532544379
aF337.5
aa(lp168
F295.79881656804736
aF337.5
aa(lp169
F292.9585798816568
aF337.5
aa(lp170
F290.1183431952663
aF337.5
aa(lp171
F287.27810650887574
aF337.5
aa(lp172
F284.4378698224852
aF337.5
aa(lp173
F281.59763313609466
aF337.5
aa(lp174
F278.7573964497041
aF338.5355029585799
aa(lp175
F275.91715976331363
aF340.90236686390534
aa(lp176
F273.0769230769231
aF343.2692307692308
aa(lp177
F270.23668639053255
aF345.6360946745562
aa(lp178
F267.396449704142
aF348.00295857988164
aa(lp179
F264.5562130177515
aF350.3698224852071
aa(lp180
F261.71597633136093
aF352.73668639053255
aa(lp181
F258.8757396449704
aF355.103550295858
aa(lp182
F256.03550295857985
aF357.4704142011834
aa(lp183
F253.19526627218934
aF359.8372781065089
aa(lp184
F250.35502958579883
aF362.20414201183434
aa(lp185
F249.1715976331361
aF364.57100591715977
aa(lp186
F248.22485207100593
aF366.9378698224852
aa(lp187
F247.27810650887574
aF369.3047337278106
aa(lp188
F246.33136094674555
aF371.6715976331361
aa(lp189
F245.3846153846154
aF374.03846153846155
aa(lp190
F244.4378698224852
aF376.405325443787
aa(lp191
F243.49112426035504
aF378.7721893491124
aa(lp192
F242.54437869822485
aF381.1390532544379
aa(lp193
F241.5976331360947
aF383.5059171597633
aa(lp194
F240.6508875739645
aF385.87278106508876
aa(lp195
F239.7041420118343
aF388.6094674556213
aa(lp196
F238.75739644970415
aF392.15976331360946
aa(lp197
F237.81065088757396
aF395.71005917159766
aa(lp198
F236.8639053254438
aF399.2603550295858
aa(lp199
F235.9171597633136
aF402.81065088757396
aa(lp200
F234.97041420118342
aF406.36094674556216
aa(lp201
F234.02366863905326
aF409.9112426035503
aa(lp202
F233.07692307692307
aF413.46153846153845
aa(lp203
F232.1301775147929
aF417.01183431952666
aa(lp204
F231.18343195266272
aF420.5621301775148
aa(lp205
F230.23668639053255
aF424.11242603550295
aaasS'best_pin_pt'
p206
g31
sS'old_trajectory'
p207
(lp208
g163
ag164
ag165
ag166
ag167
ag168
ag169
ag170
ag171
ag172
ag173
ag174
ag175
ag176
ag177
ag178
ag179
ag180
ag181
ag182
ag183
ag184
ag185
ag186
ag187
ag188
ag189
ag190
ag191
ag192
ag193
ag194
ag195
ag196
ag197
ag198
ag199
ag200
ag201
ag202
ag203
ag204
ag205
ag118
ag119
ag120
ag121
ag122
ag123
ag124
ag125
ag126
ag127
ag128
ag129
ag130
ag131
ag132
ag133
ag134
ag135
ag136
ag137
ag138
ag139
ag140
ag141
ag142
ag143
ag144
ag145
ag146
ag147
ag148
ag149
ag150
ag151
ag152
ag153
ag154
ag155
ag156
ag157
ag158
ag159
ag160
ag161
asS'indices_of_pts'
p209
(lp210
(lp211
I126
aI127
aI128
aI129
aI130
aI131
aI132
aI133
aI134
aI135
aI136
aI137
aI138
aI139
aI140
aI141
aI142
aI143
aI144
aI145
aI146
aI147
aI148
aI149
aI150
aI151
aI152
aI153
aI154
aI155
aI156
aI157
aI158
aI159
aI160
aI161
aI162
aI163
aI164
aI165
aI166
aI167
aI168
aI169
aa(lp212
I0
aI1
aI2
aI3
aI4
aI5
aI6
aI7
aI8
aI9
aI10
aI11
aI12
aI13
aI14
aI15
aI16
aI17
aI18
aI19
aI20
aI21
aI22
aI23
aI24
aI25
aI26
aI27
aI28
aI29
aI30
aI31
aI32
aI33
aI34
aI35
aI36
aI37
aI38
aI39
aI40
aI41
aI42
aas.