(dp0
S'worst_score'
p1
cnumpy.core.multiarray
scalar
p2
(cnumpy
dtype
p3
(S'f8'
p4
I0
I1
tp5
Rp6
(I3
S'<'
p7
NNNI-1
I-1
I0
tp8
bS'\x00\x00\x00\x00\x00@Q\xc0'
p9
tp10
Rp11
sS'best_pin_pt'
p12
(lp13
g2
(g3
(S'i8'
p14
I0
I1
tp15
Rp16
(I3
S'<'
p17
NNNI-1
I-1
I0
tp18
bS'\x18\x01\x00\x00\x00\x00\x00\x00'
p19
tp20
Rp21
ag2
(g16
S'\x8c\x00\x00\x00\x00\x00\x00\x00'
p22
tp23
Rp24
asS'worst_pin_pt'
p25
(lp26
g2
(g16
S'\xa0\x00\x00\x00\x00\x00\x00\x00'
p27
tp28
Rp29
ag2
(g16
S'\x18\x01\x00\x00\x00\x00\x00\x00'
p30
tp31
Rp32
asS'totalpts'
p33
I48
sS'indices_of_pts'
p34
(lp35
(lp36
I0
aI1
aI2
aI3
aI4
aI5
aI6
aI7
aI8
aI9
aI10
aI11
aI12
aI13
aI14
aI15
aI16
aI17
aI18
aI19
aI20
aI21
aI22
aI23
aI24
aI25
aI26
aI27
aI28
aI29
aI30
aI31
aI32
aI33
aI34
aI35
aI36
aI37
aI38
aI39
aI40
aI41
aI42
aI43
aI44
aI45
aI46
aI47
aI48
aI49
aI50
aI51
aI52
aI53
aI54
aI55
aI56
aI57
aI58
aI59
aI60
aI61
aI62
aI63
aI64
aI65
aI66
aI67
aI68
aI69
aI70
aI71
aI72
aI73
aI74
aI75
aI76
aI77
aI78
aI79
aI80
aI81
aI82
aI83
aI84
aI85
aI86
aI87
aI88
aI89
aI90
aI91
aI92
aI93
aI94
aI95
aI96
aI97
aI98
aI99
aI100
aI101
aI102
aI103
aI104
aI105
aI106
aI107
aI108
aI109
aI110
aI111
aI112
aI113
aI114
aI115
aI116
aI117
aI118
aI119
aI120
aI121
aI122
aI123
aI124
aI125
aI126
aI127
aI128
aI129
aI130
aI131
aI132
aI133
aI134
aI135
aI136
aI137
aI138
aI139
aI140
aI141
aI142
aI143
aI144
aI145
aI146
aI147
aI148
aI149
aI150
aI151
aI152
aI153
aI154
aI155
aI156
aI157
aI158
aI159
aI160
aI161
aI162
aI163
aI164
aI165
aI166
aI167
aI168
aI169
aI170
aI171
aI172
aI173
aI174
aI175
aI176
aa(lp37
I259
aI258
aI257
aI256
aI255
aI254
aI253
aI252
aI251
aI250
aI249
aI248
aI247
aI246
aI245
aI244
aI243
aI242
aI241
aI240
aI239
aI238
aI237
aI236
aI235
aI234
aI233
aI232
aI231
aI230
aI229
aI228
aI227
aI226
aI225
aI224
aI223
aI222
aI221
aI220
aI219
aI218
aI217
aI216
aI215
aI214
aI213
aI212
aI211
aI210
aI209
aI208
aI207
aI206
aI205
aI204
aI203
aI202
aI201
aI200
aI199
aI198
aI197
aI196
aI195
aI194
aI193
aI192
aI191
aI190
aI189
aI188
aI187
aI186
aI185
aI184
aI183
aI182
aI181
aI180
aI179
aI178
aI177
aI176
aasS'old_trajectory'
p38
(lp39
(lp40
F330.0
aF50.0
aa(lp41
F329.034749034749
aF52.89575289575298
aa(lp42
F328.069498069498
aF55.791505791505855
aa(lp43
F327.10424710424707
aF58.68725868725874
aa(lp44
F326.1389961389961
aF61.58301158301162
aa(lp45
F325.17374517374515
aF64.4787644787645
aa(lp46
F324.2084942084942
aF67.37451737451748
aa(lp47
F323.2432432432432
aF70.27027027027036
aa(lp48
F322.27799227799227
aF73.16602316602324
aa(lp49
F321.3127413127413
aF76.06177606177611
aa(lp50
F320.34749034749035
aF78.95752895752901
aa(lp51
F319.3822393822394
aF81.85328185328189
aa(lp52
F318.4169884169884
aF84.74903474903486
aa(lp53
F317.4517374517374
aF87.64478764478774
aa(lp54
F316.48648648648646
aF90.54054054054062
aa(lp55
F315.5212355212355
aF93.4362934362935
aa(lp56
F314.55598455598454
aF96.33204633204637
aa(lp57
F313.5907335907335
aF99.22779922779937
aa(lp58
F312.62548262548256
aF102.12355212355224
aa(lp59
F311.6602316602316
aF105.01930501930512
aa(lp60
F310.69498069498064
aF107.915057915058
aa(lp61
F309.7297297297297
aF110.81081081081088
aa(lp62
F308.7644787644787
aF113.70656370656376
aa(lp63
F307.79922779922776
aF116.60231660231673
aa(lp64
F306.8339768339768
aF119.49806949806961
aa(lp65
F305.86872586872585
aF122.3938223938225
aa(lp66
F304.9034749034749
aF125.28957528957538
aa(lp67
F303.9382239382239
aF128.18532818532827
aa(lp68
F302.97297297297297
aF131.08108108108115
aa(lp69
F302.00772200772195
aF133.97683397683411
aa(lp70
F301.042471042471
aF136.872586872587
aa(lp71
F300.07722007722003
aF139.76833976833987
aa(lp72
F297.3359073359072
aF144.44015444015457
aa(lp73
F294.4401544401544
aF149.26640926640937
aa(lp74
F291.5444015444014
aF154.09266409266434
aa(lp75
F288.64864864864853
aF158.9189189189191
aa(lp76
F285.75289575289565
aF163.74517374517387
aa(lp77
F282.8571428571428
aF168.57142857142867
aa(lp78
F279.96138996138995
aF173.39768339768347
aa(lp79
F277.0656370656371
aF178.22393822393823
aa(lp80
F274.1698841698841
aF183.0501930501932
aa(lp81
F271.2741312741312
aF187.87644787644797
aa(lp82
F269.4594594594594
aF190.54054054054055
aa(lp83
F268.49420849420846
aF191.5057915057915
aa(lp84
F267.5289575289575
aF192.47104247104247
aa(lp85
F266.56370656370655
aF193.43629343629345
aa(lp86
F265.5984555984556
aF194.4015444015444
aa(lp87
F264.6332046332046
aF195.36679536679537
aa(lp88
F263.66795366795367
aF196.33204633204633
aa(lp89
F262.7027027027027
aF197.2972972972973
aa(lp90
F261.73745173745175
aF198.26254826254828
aa(lp91
F260.77220077220073
aF199.22779922779927
aa(lp92
F259.61389961389955
aF200.77220077220088
aa(lp93
F257.68339768339763
aF204.6332046332047
aa(lp94
F255.7528957528957
aF208.49420849420855
aa(lp95
F253.8223938223938
aF212.3552123552124
aa(lp96
F251.89189189189182
aF216.21621621621637
aa(lp97
F249.9613899613899
aF220.0772200772202
aa(lp98
F248.03088803088798
aF223.93822393822404
aa(lp99
F246.10038610038606
aF227.79922779922788
aa(lp100
F244.16988416988414
aF231.66023166023172
aa(lp101
F242.23938223938222
aF235.52123552123555
aa(lp102
F240.30888030888022
aF239.38223938223953
aa(lp103
F238.3783783783783
aF243.24324324324337
aa(lp104
F236.4478764478764
aF247.1042471042472
aa(lp105
F234.5173745173745
aF250.96525096525102
aa(lp106
F232.58687258687257
aF254.82625482625485
aa(lp107
F230.6563706563706
aF258.6872586872588
aa(lp108
F228.72586872586868
aF262.54826254826264
aa(lp109
F226.79536679536676
aF266.4092664092665
aa(lp110
F224.86486486486484
aF270.2702702702703
aa(lp111
F222.93436293436295
aF274.1312741312741
aa(lp112
F221.00386100386103
aF277.99227799227793
aa(lp113
F219.53667953667951
aF282.31660231660237
aa(lp114
F218.57142857142856
aF287.1428571428572
aa(lp115
F217.6061776061776
aF291.96911196911196
aa(lp116
F216.64092664092664
aF296.7953667953668
aa(lp117
F215.67567567567568
aF301.6216216216216
aa(lp118
F214.71042471042472
aF306.4478764478764
aa(lp119
F213.74517374517373
aF311.2741312741314
aa(lp120
F212.77992277992277
aF316.1003861003862
aa(lp121
F211.8146718146718
aF320.92664092664097
aa(lp122
F210.84942084942085
aF325.75289575289577
aa(lp123
F210.0
aF330.57915057915056
aa(lp124
F480.0
aF540.0
aa(lp125
F479.03474903474904
aF533.2432432432432
aa(lp126
F478.0694980694981
aF526.4864864864865
aa(lp127
F477.1042471042471
aF519.7297297297297
aa(lp128
F476.13899613899616
aF512.972972972973
aa(lp129
F475.17374517374515
aF506.2162162162162
aa(lp130
F474.2084942084942
aF499.4594594594595
aa(lp131
F473.2432432432432
aF492.7027027027027
aa(lp132
F472.27799227799227
aF485.94594594594594
aa(lp133
F471.3127413127413
aF479.18918918918916
aa(lp134
F470.34749034749035
aF472.43243243243245
aa(lp135
F469.3822393822394
aF466.2934362934363
aa(lp136
F468.41698841698843
aF460.50193050193053
aa(lp137
F467.4517374517375
aF454.7104247104247
aa(lp138
F466.4864864864865
aF448.9189189189189
aa(lp139
F465.5212355212355
aF443.12741312741315
aa(lp140
F464.55598455598454
aF437.33590733590734
aa(lp141
F463.5907335907336
aF431.5444015444016
aa(lp142
F462.6254826254826
aF425.75289575289577
aa(lp143
F461.66023166023166
aF419.96138996138995
aa(lp144
F460.6949806949807
aF414.1698841698842
aa(lp145
F459.72972972972974
aF408.1081081081081
aa(lp146
F458.7644787644788
aF401.35135135135135
aa(lp147
F457.7992277992278
aF394.5945945945946
aa(lp148
F456.83397683397686
aF387.83783783783787
aa(lp149
F455.86872586872585
aF381.0810810810811
aa(lp150
F454.9034749034749
aF374.3243243243244
aa(lp151
F453.9382239382239
aF367.5675675675676
aa(lp152
F452.97297297297297
aF360.81081081081084
aa(lp153
F452.007722007722
aF354.05405405405406
aa(lp154
F451.04247104247105
aF347.2972972972973
aa(lp155
F450.0772200772201
aF340.5405405405405
aa(lp156
F449.11196911196913
aF334.6718146718147
aa(lp157
F448.1467181467182
aF328.8803088803089
aa(lp158
F447.18146718146716
aF323.0888030888031
aa(lp159
F446.2162162162162
aF317.29729729729735
aa(lp160
F445.25096525096524
aF311.50579150579154
aa(lp161
F444.2857142857143
aF305.7142857142857
aa(lp162
F443.3204633204633
aF299.9227799227799
aa(lp163
F442.35521235521236
aF294.13127413127415
aa(lp164
F441.3899613899614
aF288.33976833976834
aa(lp165
F440.42471042471044
aF282.5482625482626
aa(lp166
F439.4594594594595
aF278.9189189189189
aa(lp167
F438.4942084942085
aF276.988416988417
aa(lp168
F437.5289575289575
aF275.05791505791507
aa(lp169
F436.56370656370655
aF273.12741312741315
aa(lp170
F435.5984555984556
aF271.19691119691123
aa(lp171
F434.6332046332046
aF269.26640926640925
aa(lp172
F433.66795366795367
aF267.33590733590734
aa(lp173
F432.7027027027027
aF265.4054054054054
aa(lp174
F431.73745173745175
aF263.4749034749035
aa(lp175
F430.7722007722008
aF261.5444015444015
aa(lp176
F429.42084942084944
aF260.0
aa(lp177
F426.52509652509656
aF260.0
aa(lp178
F423.6293436293436
aF260.0
aa(lp179
F420.73359073359075
aF260.0
aa(lp180
F417.83783783783787
aF260.0
aa(lp181
F414.94208494208493
aF260.0
aa(lp182
F412.04633204633205
aF260.0
aa(lp183
F409.1505791505792
aF260.0
aa(lp184
F406.2548262548263
aF260.0
aa(lp185
F403.35907335907336
aF260.0
aa(lp186
F400.4633204633205
aF260.0
aa(lp187
F398.3783783783784
aF263.2432432432432
aa(lp188
F396.44787644787647
aF267.10424710424707
aa(lp189
F394.51737451737455
aF270.96525096525096
aa(lp190
F392.58687258687263
aF274.8262548262548
aa(lp191
F390.65637065637065
aF278.68725868725863
aa(lp192
F388.72586872586874
aF282.5482625482625
aa(lp193
F386.7953667953668
aF286.4092664092664
aa(lp194
F384.8648648648649
aF290.27027027027026
aa(lp195
F382.9343629343629
aF294.1312741312741
aa(lp196
F381.003861003861
aF297.992277992278
aa(lp197
F379.53667953667957
aF301.8532818532818
aa(lp198
F378.57142857142856
aF305.71428571428567
aa(lp199
F377.6061776061776
aF309.57528957528956
aa(lp200
F376.64092664092664
aF313.4362934362934
aa(lp201
F375.6756756756757
aF317.29729729729723
aa(lp202
F374.7104247104247
aF321.15830115830113
aa(lp203
F373.74517374517376
aF325.019305019305
aa(lp204
F372.7799227799228
aF328.88030888030886
aa(lp205
F371.81467181467184
aF332.7413127413127
aa(lp206
F370.8494208494209
aF336.60231660231653
aa(lp207
F369.88416988416986
aF340.2316602316602
aa(lp208
F368.9189189189189
aF342.16216216216213
aa(lp209
F367.95366795366795
aF344.0926640926641
aa(lp210
F366.988416988417
aF346.023166023166
aa(lp211
F366.023166023166
aF347.95366795366795
aa(lp212
F365.05791505791507
aF349.88416988416986
aa(lp213
F364.0926640926641
aF351.8146718146718
aa(lp214
F363.12741312741315
aF353.7451737451737
aa(lp215
F362.16216216216213
aF355.6756756756757
aa(lp216
F361.1969111969112
aF357.6061776061776
aa(lp217
F360.2316602316602
aF359.5366795366795
aa(lp218
F358.5328185328185
aF362.9343629343629
aa(lp219
F356.6023166023166
aF366.79536679536676
aa(lp220
F354.6718146718147
aF370.6563706563706
aa(lp221
F352.74131274131275
aF374.5173745173745
aa(lp222
F350.81081081081084
aF378.37837837837833
aa(lp223
F348.88030888030886
aF382.2393822393822
aa(lp224
F346.94980694980694
aF386.10038610038606
aa(lp225
F345.019305019305
aF389.9613899613899
aa(lp226
F343.0888030888031
aF393.8223938223938
aa(lp227
F341.1583011583012
aF397.68339768339763
aa(lp228
F339.22779922779927
aF401.15830115830113
aa(lp229
F337.2972972972973
aF404.05405405405406
aa(lp230
F335.3667953667954
aF406.9498069498069
aa(lp231
F333.43629343629345
aF409.84555984555976
aa(lp232
F331.50579150579154
aF412.7413127413127
aa(lp233
F329.5752895752896
aF415.6370656370656
aa(lp234
F327.64478764478764
aF418.5328185328185
aa(lp235
F325.7142857142857
aF421.4285714285714
aa(lp236
F323.7837837837838
aF424.32432432432427
aa(lp237
F321.8532818532819
aF427.2200772200772
aa(lp238
F319.8841698841699
aF430.07722007722003
aa(lp239
F316.98841698841704
aF432.00772200772195
aa(lp240
F314.0926640926641
aF433.9382239382239
aa(lp241
F311.19691119691123
aF435.86872586872585
aa(lp242
F308.30115830115835
aF437.79922779922776
aa(lp243
F305.4054054054054
aF439.7297297297297
aa(lp244
F302.50965250965254
aF441.6602316602316
aa(lp245
F299.61389961389966
aF443.5907335907335
aa(lp246
F296.7181467181467
aF445.5212355212355
aa(lp247
F293.82239382239385
aF447.4517374517374
aa(lp248
F290.9266409266409
aF449.3822393822394
aa(lp249
F288.6872586872587
aF450.0
aa(lp250
F286.7567567567568
aF450.0
aa(lp251
F284.82625482625485
aF450.0
aa(lp252
F282.89575289575293
aF450.0
aa(lp253
F280.965250965251
aF450.0
aa(lp254
F279.03474903474904
aF450.0
aa(lp255
F277.1042471042471
aF450.0
aa(lp256
F275.1737451737452
aF450.0
aa(lp257
F273.2432432432432
aF450.0
aa(lp258
F271.3127413127413
aF450.0
aa(lp259
F269.0733590733591
aF449.6911196911197
aa(lp260
F266.1776061776062
aF448.72586872586874
aa(lp261
F263.28185328185333
aF447.7606177606178
aa(lp262
F260.3861003861004
aF446.7953667953668
aa(lp263
F257.4903474903475
aF445.83011583011586
aa(lp264
F254.59459459459464
aF444.8648648648649
aa(lp265
F251.6988416988417
aF443.8996138996139
aa(lp266
F248.80308880308883
aF442.9343629343629
aa(lp267
F245.90733590733595
aF441.96911196911196
aa(lp268
F243.01158301158304
aF441.003861003861
aa(lp269
F240.11583011583016
aF440.03861003861005
aa(lp270
F238.1467181467182
aF437.2200772200773
aa(lp271
F236.21621621621625
aF434.3243243243244
aa(lp272
F234.28571428571433
aF431.4285714285715
aa(lp273
F232.3552123552124
aF428.53281853281857
aa(lp274
F230.42471042471047
aF425.6370656370657
aa(lp275
F228.49420849420855
aF422.7413127413128
aa(lp276
F226.5637065637066
aF419.8455598455599
aa(lp277
F224.63320463320468
aF416.949806949807
aa(lp278
F222.70270270270277
aF414.0540540540541
aa(lp279
F220.77220077220082
aF411.1583011583012
aa(lp280
F219.42084942084944
aF408.2625482625483
aa(lp281
F218.45559845559848
aF405.36679536679543
aa(lp282
F217.49034749034752
aF402.47104247104255
aa(lp283
F216.52509652509656
aF399.5752895752896
aa(lp284
F215.55984555984557
aF396.67953667953674
aa(lp285
F214.5945945945946
aF393.78378378378386
aa(lp286
F213.62934362934365
aF390.8880308880309
aa(lp287
F212.6640926640927
aF387.99227799227805
aa(lp288
F211.69884169884173
aF385.09652509652517
aa(lp289
F210.73359073359075
aF382.20077220077224
aa(lp290
F210.0
aF378.84169884169887
aa(lp291
F210.0
aF374.0154440154441
aa(lp292
F210.0
aF369.1891891891893
aa(lp293
F210.0
aF364.3629343629345
aa(lp294
F210.0
aF359.5366795366795
aa(lp295
F210.0
aF354.7104247104247
aa(lp296
F210.0
aF349.8841698841699
aa(lp297
F210.0
aF345.0579150579151
aa(lp298
F210.0
aF340.2316602316603
aa(lp299
F210.0
aF335.40540540540553
aag123
asS'pin_pts'
p300
(lp301
(lp302
g2
(g16
S'\xaa\x00\x00\x00\x00\x00\x00\x00'
p303
tp304
Rp305
ag2
(g16
S'\xb4\x00\x00\x00\x00\x00\x00\x00'
p306
tp307
Rp308
aa(lp309
g2
(g16
S'\xdc\x00\x00\x00\x00\x00\x00\x00'
p310
tp311
Rp312
ag2
(g16
S'P\x00\x00\x00\x00\x00\x00\x00'
p313
tp314
Rp315
aa(lp316
g2
(g16
S'2\x00\x00\x00\x00\x00\x00\x00'
p317
tp318
Rp319
ag2
(g16
S'2\x00\x00\x00\x00\x00\x00\x00'
p320
tp321
Rp322
aa(lp323
g2
(g16
S'x\x00\x00\x00\x00\x00\x00\x00'
p324
tp325
Rp326
ag2
(g16
S'n\x00\x00\x00\x00\x00\x00\x00'
p327
tp328
Rp329
aa(lp330
g2
(g16
S'\xb4\x00\x00\x00\x00\x00\x00\x00'
p331
tp332
Rp333
ag2
(g16
S'2\x00\x00\x00\x00\x00\x00\x00'
p334
tp335
Rp336
aa(lp337
g2
(g16
S'Z\x00\x00\x00\x00\x00\x00\x00'
p338
tp339
Rp340
ag2
(g16
S'\xd2\x00\x00\x00\x00\x00\x00\x00'
p341
tp342
Rp343
aa(lp344
g2
(g16
S'd\x00\x00\x00\x00\x00\x00\x00'
p345
tp346
Rp347
ag2
(g16
S'<\x00\x00\x00\x00\x00\x00\x00'
p348
tp349
Rp350
aa(lp351
g2
(g16
S'\x96\x00\x00\x00\x00\x00\x00\x00'
p352
tp353
Rp354
ag2
(g16
S'\xbe\x00\x00\x00\x00\x00\x00\x00'
p355
tp356
Rp357
aa(lp358
g2
(g16
S'\x04\x01\x00\x00\x00\x00\x00\x00'
p359
tp360
Rp361
ag2
(g16
S'\xe6\x00\x00\x00\x00\x00\x00\x00'
p362
tp363
Rp364
aa(lp365
g2
(g16
S'\xd2\x00\x00\x00\x00\x00\x00\x00'
p366
tp367
Rp368
ag2
(g16
S'Z\x00\x00\x00\x00\x00\x00\x00'
p369
tp370
Rp371
aa(lp372
g2
(g16
S'\x0e\x01\x00\x00\x00\x00\x00\x00'
p373
tp374
Rp375
ag2
(g16
S'"\x01\x00\x00\x00\x00\x00\x00'
p376
tp377
Rp378
aa(lp379
g2
(g16
S'\xbe\x00\x00\x00\x00\x00\x00\x00'
p380
tp381
Rp382
ag2
(g16
S'F\x00\x00\x00\x00\x00\x00\x00'
p383
tp384
Rp385
aa(lp386
g2
(g16
S'\xf0\x00\x00\x00\x00\x00\x00\x00'
p387
tp388
Rp389
ag2
(g16
S'P\x00\x00\x00\x00\x00\x00\x00'
p390
tp391
Rp392
aa(lp393
g2
(g16
S'Z\x00\x00\x00\x00\x00\x00\x00'
p394
tp395
Rp396
ag2
(g16
S'<\x00\x00\x00\x00\x00\x00\x00'
p397
tp398
Rp399
aa(lp400
g2
(g16
S'\xbe\x00\x00\x00\x00\x00\x00\x00'
p401
tp402
Rp403
ag2
(g16
S'\xaa\x00\x00\x00\x00\x00\x00\x00'
p404
tp405
Rp406
aa(lp407
g2
(g16
S'n\x00\x00\x00\x00\x00\x00\x00'
p408
tp409
Rp410
ag2
(g16
S'\x04\x01\x00\x00\x00\x00\x00\x00'
p411
tp412
Rp413
aa(lp414
g2
(g16
S'<\x00\x00\x00\x00\x00\x00\x00'
p415
tp416
Rp417
ag2
(g16
S'd\x00\x00\x00\x00\x00\x00\x00'
p418
tp419
Rp420
aa(lp421
g2
(g16
S'\xb4\x00\x00\x00\x00\x00\x00\x00'
p422
tp423
Rp424
ag2
(g16
S'Z\x00\x00\x00\x00\x00\x00\x00'
p425
tp426
Rp427
aag26
a(lp428
g2
(g16
S'x\x00\x00\x00\x00\x00\x00\x00'
p429
tp430
Rp431
ag2
(g16
S'\xe6\x00\x00\x00\x00\x00\x00\x00'
p432
tp433
Rp434
aag13
a(lp435
g2
(g16
S'\xe6\x00\x00\x00\x00\x00\x00\x00'
p436
tp437
Rp438
ag2
(g16
S'P\x00\x00\x00\x00\x00\x00\x00'
p439
tp440
Rp441
aa(lp442
g2
(g16
S'\xbe\x00\x00\x00\x00\x00\x00\x00'
p443
tp444
Rp445
ag2
(g16
S'<\x00\x00\x00\x00\x00\x00\x00'
p446
tp447
Rp448
aa(lp449
g2
(g16
S'<\x00\x00\x00\x00\x00\x00\x00'
p450
tp451
Rp452
ag2
(g16
S'\xf0\x00\x00\x00\x00\x00\x00\x00'
p453
tp454
Rp455
aa(lp456
g2
(g16
S'2\x00\x00\x00\x00\x00\x00\x00'
p457
tp458
Rp459
ag2
(g16
S'\x96\x00\x00\x00\x00\x00\x00\x00'
p460
tp461
Rp462
aa(lp463
g2
(g16
S'P\x00\x00\x00\x00\x00\x00\x00'
p464
tp465
Rp466
ag2
(g16
S'"\x01\x00\x00\x00\x00\x00\x00'
p467
tp468
Rp469
aa(lp470
g2
(g16
S'<\x00\x00\x00\x00\x00\x00\x00'
p471
tp472
Rp473
ag2
(g16
S'\xdc\x00\x00\x00\x00\x00\x00\x00'
p474
tp475
Rp476
aa(lp477
g2
(g16
S'\x8c\x00\x00\x00\x00\x00\x00\x00'
p478
tp479
Rp480
ag2
(g16
S'<\x00\x00\x00\x00\x00\x00\x00'
p481
tp482
Rp483
aa(lp484
g2
(g16
S'\x0e\x01\x00\x00\x00\x00\x00\x00'
p485
tp486
Rp487
ag2
(g16
S'\xdc\x00\x00\x00\x00\x00\x00\x00'
p488
tp489
Rp490
aa(lp491
g2
(g16
S'\x18\x01\x00\x00\x00\x00\x00\x00'
p492
tp493
Rp494
ag2
(g16
S'n\x00\x00\x00\x00\x00\x00\x00'
p495
tp496
Rp497
aasS'trajectory'
p498
(lp499
(lp500
g124
ag125
ag126
ag127
ag128
ag129
ag130
ag131
ag132
ag133
ag134
ag135
ag136
ag137
ag138
ag139
ag140
ag141
ag142
ag143
ag144
ag145
ag146
ag147
ag148
ag149
ag150
ag151
ag152
ag153
ag154
ag155
ag156
ag157
ag158
ag159
ag160
ag161
ag162
ag163
ag164
ag165
ag166
ag167
ag168
ag169
ag170
ag171
ag172
ag173
ag174
ag175
ag176
ag177
ag178
ag179
ag180
ag181
ag182
ag183
ag184
ag185
ag186
ag187
ag188
ag189
ag190
ag191
ag192
ag193
ag194
ag195
ag196
ag197
ag198
ag199
ag200
ag201
ag202
ag203
ag204
ag205
ag206
ag207
ag208
ag209
ag210
ag211
ag212
ag213
ag214
ag215
ag216
ag217
ag218
ag219
ag220
ag221
ag222
ag223
ag224
ag225
ag226
ag227
ag228
ag229
ag230
ag231
ag232
ag233
ag234
ag235
ag236
ag237
ag238
ag239
ag240
ag241
ag242
ag243
ag244
ag245
ag246
ag247
ag248
ag249
ag250
ag251
ag252
ag253
ag254
ag255
ag256
ag257
ag258
ag259
ag260
ag261
ag262
ag263
ag264
ag265
ag266
ag267
ag268
ag269
ag270
ag271
ag272
ag273
ag274
ag275
ag276
ag277
ag278
ag279
ag280
ag281
ag282
ag283
ag284
ag285
ag286
ag287
ag288
ag289
ag290
ag291
ag292
ag293
ag294
ag295
ag296
ag297
ag298
ag299
ag123
aa(lp501
g40
ag41
ag42
ag43
ag44
ag45
ag46
ag47
ag48
ag49
ag50
ag51
ag52
ag53
ag54
ag55
ag56
ag57
ag58
ag59
ag60
ag61
ag62
ag63
ag64
ag65
ag66
ag67
ag68
ag69
ag70
ag71
ag72
ag73
ag74
ag75
ag76
ag77
ag78
ag79
ag80
ag81
ag82
ag83
ag84
ag85
ag86
ag87
ag88
ag89
ag90
ag91
ag92
ag93
ag94
ag95
ag96
ag97
ag98
ag99
ag100
ag101
ag102
ag103
ag104
ag105
ag106
ag107
ag108
ag109
ag110
ag111
ag112
ag113
ag114
ag115
ag116
ag117
ag118
ag119
ag120
ag121
ag122
ag123
aasS'pin_scores'
p502
(lp503
g2
(g6
S'\x00\x00\x00\x00\x00\x00;\xc0'
p504
tp505
Rp506
ag2
(g6
S'\x00\x00\x00\x00\x00\x80I\xc0'
p507
tp508
Rp509
ag2
(g6
S'\x00\x00\x00\x00\x00\x80I\xc0'
p510
tp511
Rp512
ag2
(g6
S'\x00\x00\x00\x00\x00\x00J\xc0'
p513
tp514
Rp515
ag2
(g6
S'\x00\x00\x00\x00\x00\x006\xc0'
p516
tp517
Rp518
ag2
(g6
S'\x00\x00\x00\x00\x00\x00M\xc0'
p519
tp520
Rp521
ag2
(g6
S'\x00\x00\x00\x00\x00\x80I\xc0'
p522
tp523
Rp524
ag2
(g6
S'\x00\x00\x00\x00\x00\x00=\xc0'
p525
tp526
Rp527
ag2
(g6
S'\x00\x00\x00\x00\x00\x00:\xc0'
p528
tp529
Rp530
ag2
(g6
S'\x00\x00\x00\x00\x00\x008\xc0'
p531
tp532
Rp533
ag2
(g6
S'\x00\x00\x00\x00\x00\x008\xc0'
p534
tp535
Rp536
ag2
(g6
S'\x00\x00\x00\x00\x00\x80I\xc0'
p537
tp538
Rp539
ag2
(g6
S'\x00\x00\x00\x00\x00\x80I\xc0'
p540
tp541
Rp542
ag2
(g6
S'\x00\x00\x00\x00\x00\x80I\xc0'
p543
tp544
Rp545
ag2
(g6
S'\x00\x00\x00\x00\x00\x00;\xc0'
p546
tp547
Rp548
ag2
(g6
S'\x00\x00\x00\x00\x00\x00L\xc0'
p549
tp550
Rp551
ag2
(g6
S'\x00\x00\x00\x00\x00\x80I\xc0'
p552
tp553
Rp554
ag2
(g6
S'\x00\x00\x00\x00\x00\x00<\xc0'
p555
tp556
Rp557
ag2
(g6
S'\x00\x00\x00\x00\x00\x00L\xc0'
p558
tp559
Rp560
ag2
(g6
S'\x00\x00\x00\x00\x00\x80M\xc0'
p561
tp562
Rp563
ag2
(g6
S'\x00\x00\x00\x00\x00\x00,\xc0'
p564
tp565
Rp566
ag2
(g6
S'\x00\x00\x00\x00\x00\x80I\xc0'
p567
tp568
Rp569
ag2
(g6
S'\x00\x00\x00\x00\x00\x80I\xc0'
p570
tp571
Rp572
ag2
(g6
S'\x00\x00\x00\x00\x00\x80K\xc0'
p573
tp574
Rp575
ag2
(g6
S'\x00\x00\x00\x00\x00\x00;\xc0'
p576
tp577
Rp578
ag2
(g6
S'\x00\x00\x00\x00\x00\x80K\xc0'
p579
tp580
Rp581
ag2
(g6
S'\x00\x00\x00\x00\x00\x80K\xc0'
p582
tp583
Rp584
ag2
(g6
S'\x00\x00\x00\x00\x00\x00J\xc0'
p585
tp586
Rp587
ag2
(g6
S'\x00\x00\x00\x00\x00\x00@\xc0'
p588
tp589
Rp590
ag2
(g6
S'\x00\x00\x00\x00\x00\x000\xc0'
p591
tp592
Rp593
asS'best_score'
p594
g566
s.