(dp0
S'worst_pin_pt'
p1
(lp2
cnumpy.core.multiarray
scalar
p3
(cnumpy
dtype
p4
(S'i8'
p5
I0
I1
tp6
Rp7
(I3
S'<'
p8
NNNI-1
I-1
I0
tp9
bS'P\x00\x00\x00\x00\x00\x00\x00'
p10
tp11
Rp12
ag3
(g7
S'd\x00\x00\x00\x00\x00\x00\x00'
p13
tp14
Rp15
asS'pin_scores'
p16
(lp17
I29
aI31
aI32
aI30
aI32
aI33
aI30
aI30
aI31
aI27
aI31
aI27
aI30
aI32
asS'best_score'
p18
I32
sS'init_score'
p19
I0
sS'worst_score'
p20
I23
sS'totalpts'
p21
I72
sS'pin_pts'
p22
(lp23
(lp24
g3
(g7
S'2\x00\x00\x00\x00\x00\x00\x00'
p25
tp26
Rp27
ag3
(g7
S'2\x00\x00\x00\x00\x00\x00\x00'
p28
tp29
Rp30
aa(lp31
g3
(g7
S'2\x00\x00\x00\x00\x00\x00\x00'
p32
tp33
Rp34
ag3
(g7
S'\xfa\x00\x00\x00\x00\x00\x00\x00'
p35
tp36
Rp37
aa(lp38
g3
(g7
S'<\x00\x00\x00\x00\x00\x00\x00'
p39
tp40
Rp41
ag3
(g7
S'\xc8\x00\x00\x00\x00\x00\x00\x00'
p42
tp43
Rp44
aa(lp45
g3
(g7
S'F\x00\x00\x00\x00\x00\x00\x00'
p46
tp47
Rp48
ag3
(g7
S'\x96\x00\x00\x00\x00\x00\x00\x00'
p49
tp50
Rp51
aag2
a(lp52
g3
(g7
S'Z\x00\x00\x00\x00\x00\x00\x00'
p53
tp54
Rp55
ag3
(g7
S'2\x00\x00\x00\x00\x00\x00\x00'
p56
tp57
Rp58
aa(lp59
g3
(g7
S'd\x00\x00\x00\x00\x00\x00\x00'
p60
tp61
Rp62
ag3
(g7
S'<\x00\x00\x00\x00\x00\x00\x00'
p63
tp64
Rp65
aa(lp66
g3
(g7
S'x\x00\x00\x00\x00\x00\x00\x00'
p67
tp68
Rp69
ag3
(g7
S'<\x00\x00\x00\x00\x00\x00\x00'
p70
tp71
Rp72
aa(lp73
g3
(g7
S'\xb4\x00\x00\x00\x00\x00\x00\x00'
p74
tp75
Rp76
ag3
(g7
S'F\x00\x00\x00\x00\x00\x00\x00'
p77
tp78
Rp79
aa(lp80
g3
(g7
S'\xfa\x00\x00\x00\x00\x00\x00\x00'
p81
tp82
Rp83
ag3
(g7
S'<\x00\x00\x00\x00\x00\x00\x00'
p84
tp85
Rp86
aa(lp87
g3
(g7
S'\x0e\x01\x00\x00\x00\x00\x00\x00'
p88
tp89
Rp90
ag3
(g7
S'\xaa\x00\x00\x00\x00\x00\x00\x00'
p91
tp92
Rp93
aa(lp94
g3
(g7
S'\x18\x01\x00\x00\x00\x00\x00\x00'
p95
tp96
Rp97
ag3
(g7
S'x\x00\x00\x00\x00\x00\x00\x00'
p98
tp99
Rp100
aa(lp101
g3
(g7
S'"\x01\x00\x00\x00\x00\x00\x00'
p102
tp103
Rp104
ag3
(g7
S'F\x00\x00\x00\x00\x00\x00\x00'
p105
tp106
Rp107
aa(lp108
g3
(g7
S'"\x01\x00\x00\x00\x00\x00\x00'
p109
tp110
Rp111
ag3
(g7
S'\x0e\x01\x00\x00\x00\x00\x00\x00'
p112
tp113
Rp114
aasS'trajectory'
p115
(lp116
(lp117
(lp118
F400.0
aF373.97260273972597
aa(lp119
F400.0
aF370.376712328767
aa(lp120
F400.0
aF366.78082191780817
aa(lp121
F400.0
aF363.1849315068493
aa(lp122
F400.0
aF359.58904109589037
aa(lp123
F400.0
aF355.9931506849315
aa(lp124
F400.0
aF352.3972602739725
aa(lp125
F400.0
aF348.8013698630137
aa(lp126
F400.0
aF345.2054794520547
aa(lp127
F400.0
aF341.6095890410959
aa(lp128
F400.0
aF338.0136986301369
aa(lp129
F399.1780821917808
aF335.44520547945206
aa(lp130
F398.2191780821918
aF333.0479452054794
aa(lp131
F397.2602739726027
aF330.6506849315068
aa(lp132
F396.3013698630137
aF328.2534246575342
aa(lp133
F395.3424657534246
aF325.8561643835616
aa(lp134
F394.3835616438356
aF323.45890410958896
aa(lp135
F393.42465753424653
aF321.0616438356164
aa(lp136
F392.4657534246575
aF318.6643835616438
aa(lp137
F391.50684931506845
aF316.2671232876712
aa(lp138
F390.54794520547944
aF313.8698630136986
aa(lp139
F388.3561643835616
aF311.986301369863
aa(lp140
F384.5205479452054
aF310.7876712328767
aa(lp141
F380.68493150684924
aF309.58904109589037
aa(lp142
F376.84931506849307
aF308.39041095890406
aa(lp143
F373.0136986301369
aF307.19178082191775
aa(lp144
F369.1780821917808
aF305.9931506849315
aa(lp145
F365.3424657534246
aF304.7945205479452
aa(lp146
F361.50684931506845
aF303.5958904109589
aa(lp147
F357.6712328767123
aF302.39726027397256
aa(lp148
F353.8356164383561
aF301.19863013698625
aa(lp149
F349.99999999999994
aF300.0
aa(lp150
F347.12328767123284
aF298.8013698630137
aa(lp151
F344.2465753424657
aF297.6027397260274
aa(lp152
F341.3698630136986
aF296.40410958904107
aa(lp153
F338.49315068493144
aF295.20547945205476
aa(lp154
F335.61643835616434
aF294.00684931506845
aa(lp155
F332.7397260273972
aF292.80821917808214
aa(lp156
F329.8630136986301
aF291.6095890410959
aa(lp157
F326.98630136986293
aF290.4109589041096
aa(lp158
F324.10958904109583
aF289.21232876712327
aa(lp159
F321.23287671232873
aF288.01369863013696
aa(lp160
F318.90410958904107
aF286.81506849315065
aa(lp161
F316.986301369863
aF285.6164383561644
aa(lp162
F315.0684931506849
aF284.4178082191781
aa(lp163
F313.1506849315068
aF283.2191780821918
aa(lp164
F311.23287671232873
aF282.02054794520546
aa(lp165
F309.31506849315065
aF280.82191780821915
aa(lp166
F307.39726027397256
aF279.62328767123284
aa(lp167
F305.4794520547945
aF278.42465753424653
aa(lp168
F303.5616438356164
aF277.2260273972602
aa(lp169
F301.6438356164383
aF276.027397260274
aa(lp170
F299.7260273972602
aF274.48630136986293
aa(lp171
F297.80821917808214
aF270.890410958904
aa(lp172
F295.89041095890406
aF267.2945205479451
aa(lp173
F293.97260273972597
aF263.6986301369862
aa(lp174
F292.0547945205479
aF260.1027397260273
aa(lp175
F290.1369863013698
aF256.5068493150684
aa(lp176
F288.2191780821918
aF252.91095890410958
aa(lp177
F286.3013698630137
aF249.31506849315068
aa(lp178
F284.3835616438356
aF245.71917808219177
aa(lp179
F282.4657534246575
aF242.12328767123287
aa(lp180
F280.54794520547944
aF238.52739726027397
aa(lp181
F278.63013698630135
aF235.7876712328767
aa(lp182
F276.71232876712327
aF233.3904109589041
aa(lp183
F274.7945205479452
aF230.9931506849315
aa(lp184
F272.8767123287671
aF228.59589041095887
aa(lp185
F270.958904109589
aF226.19863013698628
aa(lp186
F269.04109589041093
aF223.8013698630137
aa(lp187
F267.12328767123284
aF221.40410958904107
aa(lp188
F265.20547945205476
aF219.00684931506845
aa(lp189
F263.2876712328767
aF216.60958904109586
aa(lp190
F261.3698630136986
aF214.21232876712327
aa(lp191
F258.6301369863014
aF212.5
aa(lp192
F253.83561643835617
aF212.5
aa(lp193
F249.04109589041096
aF212.5
aa(lp194
F244.24657534246575
aF212.5
aa(lp195
F239.45205479452054
aF212.5
aa(lp196
F234.65753424657532
aF212.5
aa(lp197
F229.8630136986301
aF212.5
aa(lp198
F225.0684931506849
aF212.5
aa(lp199
F220.2739726027397
aF212.5
aa(lp200
F215.47945205479448
aF212.5
aa(lp201
F210.68493150684927
aF212.5
aa(lp202
F206.71232876712324
aF214.55479452054797
aa(lp203
F202.87671232876707
aF216.95205479452056
aa(lp204
F199.0410958904109
aF219.34931506849318
aa(lp205
F195.20547945205473
aF221.7465753424658
aa(lp206
F191.36986301369856
aF224.1438356164384
aa(lp207
F187.5342465753424
aF226.541095890411
aa(lp208
F183.6986301369863
aF228.93835616438355
aa(lp209
F179.86301369863014
aF231.33561643835617
aa(lp210
F176.02739726027397
aF233.7328767123288
aa(lp211
F172.1917808219178
aF236.13013698630138
aa(lp212
F169.5890410958904
aF239.041095890411
aa(lp213
F168.63013698630135
aF242.6369863013699
aa(lp214
F167.6712328767123
aF246.2328767123288
aa(lp215
F166.71232876712327
aF249.8287671232877
aa(lp216
F165.75342465753423
aF253.42465753424662
aa(lp217
F164.79452054794518
aF257.0205479452055
aa(lp218
F163.83561643835614
aF260.61643835616445
aa(lp219
F162.8767123287671
aF264.2123287671233
aa(lp220
F161.91780821917808
aF267.8082191780822
aa(lp221
F160.95890410958904
aF271.4041095890411
aa(lp222
F160.0
aF275.0
aaa(lp223
g118
a(lp224
F398.6301369863014
aF375.85616438356163
aa(lp225
F396.7123287671233
aF377.05479452054794
aa(lp226
F394.79452054794524
aF378.2534246575342
aa(lp227
F392.87671232876716
aF379.45205479452056
aa(lp228
F390.95890410958907
aF380.6506849315068
aa(lp229
F389.041095890411
aF381.8493150684931
aa(lp230
F387.1232876712329
aF383.04794520547944
aa(lp231
F385.2054794520548
aF384.24657534246575
aa(lp232
F383.28767123287673
aF385.44520547945206
aa(lp233
F381.36986301369865
aF386.64383561643837
aa(lp234
F379.1780821917809
aF387.8424657534246
aa(lp235
F376.3013698630137
aF389.04109589041093
aa(lp236
F373.42465753424665
aF390.23972602739724
aa(lp237
F370.54794520547944
aF391.43835616438355
aa(lp238
F367.6712328767124
aF392.63698630136986
aa(lp239
F364.7945205479453
aF393.8356164383561
aa(lp240
F361.91780821917814
aF395.0342465753424
aa(lp241
F359.04109589041104
aF396.23287671232873
aa(lp242
F356.1643835616439
aF397.43150684931504
aa(lp243
F353.2876712328768
aF398.63013698630135
aa(lp244
F350.41095890410963
aF399.82876712328766
aa(lp245
F347.53424657534254
aF400.0
aa(lp246
F344.6575342465754
aF400.0
aa(lp247
F341.7808219178083
aF400.0
aa(lp248
F338.9041095890411
aF400.0
aa(lp249
F336.02739726027403
aF400.0
aa(lp250
F333.1506849315069
aF400.0
aa(lp251
F330.2739726027398
aF400.0
aa(lp252
F327.3972602739726
aF400.0
aa(lp253
F324.5205479452055
aF400.0
aa(lp254
F321.64383561643837
aF400.0
aa(lp255
F318.3561643835617
aF400.0
aa(lp256
F314.5205479452056
aF400.0
aa(lp257
F310.68493150684935
aF400.0
aa(lp258
F306.84931506849324
aF400.0
aa(lp259
F303.013698630137
aF400.0
aa(lp260
F299.1780821917809
aF400.0
aa(lp261
F295.3424657534247
aF400.0
aa(lp262
F291.50684931506856
aF400.0
aa(lp263
F287.67123287671234
aF400.0
aa(lp264
F283.8356164383562
aF400.0
aa(lp265
F280.0
aF400.0
aa(lp266
F280.0
aF400.0
aa(lp267
F278.0821917808219
aF401.1986301369863
aa(lp268
F276.16438356164383
aF402.3972602739726
aa(lp269
F274.24657534246575
aF403.59589041095893
aa(lp270
F272.32876712328766
aF404.7945205479452
aa(lp271
F270.4109589041096
aF405.9931506849315
aa(lp272
F268.4931506849315
aF407.1917808219178
aa(lp273
F266.5753424657534
aF408.3904109589041
aa(lp274
F264.6575342465753
aF409.5890410958904
aa(lp275
F262.73972602739724
aF410.78767123287673
aa(lp276
F260.82191780821915
aF411.986301369863
aa(lp277
F257.8082191780822
aF413.1849315068493
aa(lp278
F253.97260273972603
aF414.3835616438356
aa(lp279
F250.13698630136986
aF415.5821917808219
aa(lp280
F246.3013698630137
aF416.7808219178082
aa(lp281
F242.46575342465755
aF417.97945205479454
aa(lp282
F238.63013698630138
aF419.17808219178085
aa(lp283
F234.7945205479452
aF420.3767123287671
aa(lp284
F230.95890410958904
aF421.5753424657534
aa(lp285
F227.1232876712329
aF422.7739726027397
aa(lp286
F223.28767123287673
aF423.972602739726
aa(lp287
F219.58904109589042
aF424.82876712328766
aa(lp288
F216.7123287671233
aF423.63013698630135
aa(lp289
F213.83561643835617
aF422.4315068493151
aa(lp290
F210.95890410958904
aF421.2328767123288
aa(lp291
F208.08219178082192
aF420.0342465753425
aa(lp292
F205.2054794520548
aF418.83561643835617
aa(lp293
F202.3287671232877
aF417.63698630136986
aa(lp294
F199.45205479452056
aF416.43835616438355
aa(lp295
F196.57534246575344
aF415.23972602739724
aa(lp296
F193.6986301369863
aF414.041095890411
aa(lp297
F190.8219178082192
aF412.8424657534247
aa(lp298
F188.63013698630138
aF410.78767123287673
aa(lp299
F186.7123287671233
aF408.3904109589041
aa(lp300
F184.7945205479452
aF405.9931506849315
aa(lp301
F182.87671232876713
aF403.59589041095893
aa(lp302
F180.95890410958904
aF401.1986301369863
aa(lp303
F179.04109589041096
aF398.8013698630137
aa(lp304
F177.1232876712329
aF396.4041095890411
aa(lp305
F175.20547945205482
aF394.0068493150685
aa(lp306
F173.28767123287673
aF391.6095890410959
aa(lp307
F171.36986301369865
aF389.21232876712327
aa(lp308
F169.72602739726028
aF386.8150684931507
aa(lp309
F168.76712328767124
aF384.4178082191781
aa(lp310
F167.8082191780822
aF382.0205479452055
aa(lp311
F166.84931506849315
aF379.6232876712329
aa(lp312
F165.8904109589041
aF377.2260273972603
aa(lp313
F164.93150684931507
aF374.82876712328766
aa(lp314
F163.97260273972603
aF372.4315068493151
aa(lp315
F163.013698630137
aF370.0342465753425
aa(lp316
F162.05479452054794
aF367.63698630136986
aa(lp317
F161.0958904109589
aF365.23972602739724
aa(lp318
F160.13698630136986
aF362.8424657534247
aa(lp319
F160.0
aF358.39041095890417
aa(lp320
F160.0
aF353.59589041095893
aa(lp321
F160.0
aF348.80136986301375
aa(lp322
F160.0
aF344.0068493150685
aa(lp323
F160.0
aF339.2123287671233
aa(lp324
F160.0
aF334.4178082191781
aa(lp325
F160.0
aF329.6232876712329
aa(lp326
F160.0
aF324.8287671232877
aa(lp327
F160.0
aF320.03424657534254
aa(lp328
F160.0
aF315.2397260273973
aa(lp329
F160.0
aF310.95890410958907
aa(lp330
F160.0
aF307.3630136986302
aa(lp331
F160.0
aF303.76712328767127
aa(lp332
F160.0
aF300.17123287671234
aa(lp333
F160.0
aF296.57534246575347
aa(lp334
F160.0
aF292.97945205479454
aa(lp335
F160.0
aF289.38356164383566
aa(lp336
F160.0
aF285.78767123287673
aa(lp337
F160.0
aF282.19178082191786
aa(lp338
F160.0
aF278.59589041095893
aag222
aasS'best_pin_pt'
p339
g52
sS'old_trajectory'
p340
(lp341
g118
ag224
ag225
ag226
ag227
ag228
ag229
ag230
ag231
ag232
ag233
ag234
ag235
ag236
ag237
ag238
ag239
ag240
ag241
ag242
ag243
ag244
ag245
ag246
ag247
ag248
ag249
ag250
ag251
ag252
ag253
ag254
ag255
ag256
ag257
ag258
ag259
ag260
ag261
ag262
ag263
ag264
ag265
ag266
ag267
ag268
ag269
ag270
ag271
ag272
ag273
ag274
ag275
ag276
ag277
ag278
ag279
ag280
ag281
ag282
ag283
ag284
ag285
ag286
ag287
ag288
ag289
ag290
ag291
ag292
ag293
ag294
ag295
ag296
ag297
ag298
ag299
ag300
ag301
ag302
ag303
ag304
ag305
ag306
ag307
ag308
ag309
ag310
ag311
ag312
ag313
ag314
ag315
ag316
ag317
ag318
ag319
ag320
ag321
ag322
ag323
ag324
ag325
ag326
ag327
ag328
ag329
ag330
ag331
ag332
ag333
ag334
ag335
ag336
ag337
ag338
ag222
ag118
ag119
ag120
ag121
ag122
ag123
ag124
ag125
ag126
ag127
ag128
ag129
ag130
ag131
ag132
ag133
ag134
ag135
ag136
ag137
ag138
ag139
ag140
ag141
ag142
ag143
ag144
ag145
ag146
ag147
ag148
ag149
ag150
ag151
ag152
ag153
ag154
ag155
ag156
ag157
ag158
ag159
ag160
ag161
ag162
ag163
ag164
ag165
ag166
ag167
ag168
ag169
ag170
ag171
ag172
ag173
ag174
ag175
ag176
ag177
ag178
ag179
ag180
ag181
ag182
ag183
ag184
ag185
ag186
ag187
ag188
ag189
ag190
ag191
ag192
ag193
ag194
ag195
ag196
ag197
ag198
ag199
ag200
ag201
ag202
ag203
ag204
ag205
ag206
ag207
ag208
ag209
ag210
ag211
ag212
ag213
ag214
ag215
ag216
ag217
ag218
ag219
ag220
ag221
ag222
asS'indices_of_pts'
p342
(lp343
(lp344
I177
aI176
aI175
aI174
aI173
aI172
aI171
aI170
aI169
aI168
aI167
aI166
aI165
aI164
aI163
aI162
aI161
aI160
aI159
aI158
aI157
aI156
aI155
aI154
aI153
aI152
aI151
aI150
aI149
aI148
aI147
aI146
aI145
aI144
aI143
aI142
aI141
aI140
aI139
aI138
aI137
aI136
aI135
aI134
aI133
aI132
aI131
aI130
aI129
aI128
aI127
aI126
aI125
aI124
aI123
aI122
aI121
aI120
aI119
aI118
aI117
aI116
aI115
aI114
aI113
aI112
aI111
aI110
aI109
aI108
aI107
aI106
aI105
aI104
aI103
aI102
aI101
aI100
aI99
aI98
aI97
aI96
aI95
aI94
aI93
aI92
aI91
aI90
aI89
aI88
aI87
aI86
aI85
aI84
aI83
aI82
aI81
aI80
aI79
aI78
aI77
aI76
aI75
aI74
aI73
aa(lp345
I177
aI178
aI179
aI180
aI181
aI182
aI183
aI184
aI185
aI186
aI187
aI188
aI189
aI190
aI191
aI192
aI193
aI194
aI195
aI196
aI197
aI198
aI199
aI200
aI201
aI202
aI203
aI204
aI205
aI206
aI207
aI208
aI209
aI210
aI211
aI212
aI213
aI214
aI215
aI216
aI217
aI218
aI219
aI0
aI1
aI2
aI3
aI4
aI5
aI6
aI7
aI8
aI9
aI10
aI11
aI12
aI13
aI14
aI15
aI16
aI17
aI18
aI19
aI20
aI21
aI22
aI23
aI24
aI25
aI26
aI27
aI28
aI29
aI30
aI31
aI32
aI33
aI34
aI35
aI36
aI37
aI38
aI39
aI40
aI41
aI42
aI43
aI44
aI45
aI46
aI47
aI48
aI49
aI50
aI51
aI52
aI53
aI54
aI55
aI56
aI57
aI58
aI59
aI60
aI61
aI62
aI63
aI64
aI65
aI66
aI67
aI68
aI69
aI70
aI71
aI72
aI73
aas.