(dp0
S'worst_pin_pt'
p1
(lp2
cnumpy.core.multiarray
scalar
p3
(cnumpy
dtype
p4
(S'i8'
p5
I0
I1
tp6
Rp7
(I3
S'<'
p8
NNNI-1
I-1
I0
tp9
bS'\xb4\x00\x00\x00\x00\x00\x00\x00'
p10
tp11
Rp12
ag3
(g7
S'<\x00\x00\x00\x00\x00\x00\x00'
p13
tp14
Rp15
asS'pin_scores'
p16
(lp17
I32
aI32
aI34
aI32
aI32
aI34
aI32
aI33
aI33
aI33
aI32
aI32
aI33
asS'best_score'
p18
I34
sS'init_score'
p19
I0
sS'worst_score'
p20
I30
sS'totalpts'
p21
I79
sS'pin_pts'
p22
(lp23
(lp24
g3
(g7
S'2\x00\x00\x00\x00\x00\x00\x00'
p25
tp26
Rp27
ag3
(g7
S'2\x00\x00\x00\x00\x00\x00\x00'
p28
tp29
Rp30
aa(lp31
g3
(g7
S'2\x00\x00\x00\x00\x00\x00\x00'
p32
tp33
Rp34
ag3
(g7
S'\xfa\x00\x00\x00\x00\x00\x00\x00'
p35
tp36
Rp37
aa(lp38
g3
(g7
S'<\x00\x00\x00\x00\x00\x00\x00'
p39
tp40
Rp41
ag3
(g7
S'\xc8\x00\x00\x00\x00\x00\x00\x00'
p42
tp43
Rp44
aa(lp45
g3
(g7
S'F\x00\x00\x00\x00\x00\x00\x00'
p46
tp47
Rp48
ag3
(g7
S'\x96\x00\x00\x00\x00\x00\x00\x00'
p49
tp50
Rp51
aa(lp52
g3
(g7
S'P\x00\x00\x00\x00\x00\x00\x00'
p53
tp54
Rp55
ag3
(g7
S'd\x00\x00\x00\x00\x00\x00\x00'
p56
tp57
Rp58
aa(lp59
g3
(g7
S'Z\x00\x00\x00\x00\x00\x00\x00'
p60
tp61
Rp62
ag3
(g7
S'2\x00\x00\x00\x00\x00\x00\x00'
p63
tp64
Rp65
aa(lp66
g3
(g7
S'n\x00\x00\x00\x00\x00\x00\x00'
p67
tp68
Rp69
ag3
(g7
S'Z\x00\x00\x00\x00\x00\x00\x00'
p70
tp71
Rp72
aa(lp73
g3
(g7
S'\x8c\x00\x00\x00\x00\x00\x00\x00'
p74
tp75
Rp76
ag3
(g7
S'd\x00\x00\x00\x00\x00\x00\x00'
p77
tp78
Rp79
aag2
a(lp80
g3
(g7
S'\xd2\x00\x00\x00\x00\x00\x00\x00'
p81
tp82
Rp83
ag3
(g7
S'P\x00\x00\x00\x00\x00\x00\x00'
p84
tp85
Rp86
aa(lp87
g3
(g7
S'\xf0\x00\x00\x00\x00\x00\x00\x00'
p88
tp89
Rp90
ag3
(g7
S'<\x00\x00\x00\x00\x00\x00\x00'
p91
tp92
Rp93
aa(lp94
g3
(g7
S'\x04\x01\x00\x00\x00\x00\x00\x00'
p95
tp96
Rp97
ag3
(g7
S'P\x00\x00\x00\x00\x00\x00\x00'
p98
tp99
Rp100
aa(lp101
g3
(g7
S'\x18\x01\x00\x00\x00\x00\x00\x00'
p102
tp103
Rp104
ag3
(g7
S'd\x00\x00\x00\x00\x00\x00\x00'
p105
tp106
Rp107
aasS'trajectory'
p108
(lp109
(lp110
(lp111
F420.0
aF262.5
aa(lp112
F420.0
aF262.5
aa(lp113
F419.03345724907064
aF258.8754646840149
aa(lp114
F418.0669144981413
aF255.2509293680298
aa(lp115
F417.1003717472119
aF251.6263940520447
aa(lp116
F416.13382899628255
aF248.00185873605946
aa(lp117
F415.1672862453532
aF244.37732342007436
aa(lp118
F414.2007434944238
aF240.75278810408923
aa(lp119
F413.23420074349445
aF237.12825278810413
aa(lp120
F412.26765799256503
aF233.50371747211892
aa(lp121
F411.30111524163567
aF229.8791821561338
aa(lp122
F410.3345724907063
aF226.2546468401487
aa(lp123
F409.36802973977694
aF224.2100371747212
aa(lp124
F408.4014869888476
aF223.00185873605946
aa(lp125
F407.4349442379182
aF221.79368029739774
aa(lp126
F406.46840148698885
aF220.58550185873605
aa(lp127
F405.50185873605943
aF219.3773234200743
aa(lp128
F404.53531598513007
aF218.16914498141261
aa(lp129
F403.5687732342007
aF216.9609665427509
aa(lp130
F402.60223048327134
aF215.7527881040892
aa(lp131
F401.635687732342
aF214.54460966542746
aa(lp132
F400.6691449814126
aF213.33643122676577
aa(lp133
F399.10780669144975
aF212.12825278810405
aa(lp134
F396.20817843866166
aF210.92007434944236
aa(lp135
F393.3085501858735
aF209.7118959107806
aa(lp136
F390.4089219330854
aF208.50371747211892
aa(lp137
F387.50929368029733
aF207.29553903345723
aa(lp138
F384.60966542750924
aF206.08736059479554
aa(lp139
F381.7100371747211
aF204.8791821561338
aa(lp140
F378.810408921933
aF203.6710037174721
aa(lp141
F375.91078066914497
aF202.46282527881039
aa(lp142
F373.0111524163569
aF201.2546468401487
aa(lp143
F370.1115241635687
aF200.04646840148695
aa(lp144
F364.4237918215612
aF198.83828996282526
aa(lp145
F358.6245353159851
aF197.63011152416357
aa(lp146
F352.8252788104089
aF196.42193308550188
aa(lp147
F347.0260223048326
aF195.21375464684013
aa(lp148
F341.22676579925644
aF194.00557620817844
aa(lp149
F335.4275092936803
aF192.79739776951672
aa(lp150
F329.62825278810413
aF191.58921933085503
aa(lp151
F323.8289962825278
aF190.38104089219328
aa(lp152
F318.02973977695166
aF189.1728624535316
aa(lp153
F312.2304832713755
aF187.9646840148699
aa(lp154
F307.62081784386623
aF187.5
aa(lp155
F303.75464684014867
aF187.5
aa(lp156
F299.8884758364312
aF187.5
aa(lp157
F296.02230483271376
aF187.5
aa(lp158
F292.1561338289963
aF187.5
aa(lp159
F288.28996282527874
aF187.5
aa(lp160
F284.4237918215613
aF187.5
aa(lp161
F280.5576208178438
aF187.5
aa(lp162
F276.6914498141264
aF187.5
aa(lp163
F272.8252788104088
aF187.5
aa(lp164
F269.21933085501854
aF187.82527881040895
aa(lp165
F266.31970260223045
aF189.03345724907064
aa(lp166
F263.42007434944236
aF190.24163568773233
aa(lp167
F260.5204460966542
aF191.44981412639407
aa(lp168
F257.6208178438661
aF192.65799256505576
aa(lp169
F254.72118959107806
aF193.86617100371748
aa(lp170
F251.82156133829
aF195.07434944237917
aa(lp171
F248.92193308550182
aF196.28252788104092
aa(lp172
F246.02230483271373
aF197.4907063197026
aa(lp173
F243.12267657992567
aF198.6988847583643
aa(lp174
F240.2230483271376
aF199.907063197026
aa(lp175
F238.21561338289962
aF203.34572490706324
aa(lp176
F236.2825278810409
aF206.97026022304834
aa(lp177
F234.34944237918216
aF210.59479553903344
aa(lp178
F232.41635687732344
aF214.21933085501854
aa(lp179
F230.48327137546465
aF217.84386617100378
aa(lp180
F228.55018587360593
aF221.46840148698888
aa(lp181
F226.6171003717472
aF225.092936802974
aa(lp182
F224.68401486988847
aF228.7174721189591
aa(lp183
F222.7509293680297
aF232.34200743494432
aa(lp184
F220.81784386617096
aF235.96654275092945
aa(lp185
F220.0
aF238.89405204460968
aaa(lp186
g111
a(lp187
F420.0
aF266.12453531598516
aa(lp188
F420.0
aF269.74907063197026
aa(lp189
F420.0
aF273.3736059479554
aa(lp190
F420.0
aF276.9981412639405
aa(lp191
F420.0
aF280.62267657992567
aa(lp192
F420.0
aF284.24721189591077
aa(lp193
F420.0
aF287.8717472118959
aa(lp194
F420.0
aF291.496282527881
aa(lp195
F420.0
aF295.1208178438662
aa(lp196
F420.0
aF298.7453531598513
aa(lp197
F419.36802973977694
aF302.36988847583643
aa(lp198
F418.4014869888476
aF305.9944237918216
aa(lp199
F417.4349442379182
aF309.6189591078067
aa(lp200
F416.46840148698885
aF313.24349442379184
aa(lp201
F415.5018587360595
aF316.86802973977694
aa(lp202
F414.5353159851301
aF320.4925650557621
aa(lp203
F413.56877323420076
aF324.1171003717472
aa(lp204
F412.6022304832714
aF327.74163568773236
aa(lp205
F411.63568773234203
aF331.36617100371745
aa(lp206
F410.6691449814126
aF334.9907063197026
aa(lp207
F409.40520446096656
aF338.24349442379184
aa(lp208
F407.47211895910783
aF340.6598513011152
aa(lp209
F405.53903345724905
aF343.07620817843866
aa(lp210
F403.6059479553903
aF345.4925650557621
aa(lp211
F401.6728624535316
aF347.9089219330855
aa(lp212
F399.73977695167287
aF350.3252788104089
aa(lp213
F397.80669144981414
aF352.74163568773236
aa(lp214
F395.8736059479554
aF355.15799256505574
aa(lp215
F393.9405204460967
aF357.5743494423792
aa(lp216
F392.0074349442379
aF359.9907063197026
aa(lp217
F390.0743494423792
aF362.407063197026
aa(lp218
F388.14126394052045
aF363.6617100371747
aa(lp219
F386.2081784386617
aF364.86988847583643
aa(lp220
F384.275092936803
aF366.07806691449815
aa(lp221
F382.34200743494426
aF367.28624535315987
aa(lp222
F380.4089219330855
aF368.49442379182153
aa(lp223
F378.47583643122675
aF369.70260223048325
aa(lp224
F376.542750929368
aF370.91078066914497
aa(lp225
F374.6096654275093
aF372.1189591078067
aa(lp226
F372.67657992565057
aF373.3271375464684
aa(lp227
F370.74349442379184
aF374.5353159851301
aa(lp228
F368.81040892193306
aF375.0
aa(lp229
F366.87732342007433
aF375.0
aa(lp230
F364.9442379182156
aF375.0
aa(lp231
F363.0111524163569
aF375.0
aa(lp232
F361.07806691449815
aF375.0
aa(lp233
F359.1449814126394
aF375.0
aa(lp234
F357.21189591078064
aF375.0
aa(lp235
F355.2788104089219
aF375.0
aa(lp236
F353.3457249070632
aF375.0
aa(lp237
F351.41263940520446
aF375.0
aa(lp238
F349.73977695167287
aF375.97583643122675
aa(lp239
F348.7732342007435
aF379.6003717472119
aa(lp240
F347.80669144981414
aF383.224907063197
aa(lp241
F346.8401486988848
aF386.84944237918216
aa(lp242
F345.8736059479554
aF390.47397769516726
aa(lp243
F344.90706319702605
aF394.0985130111524
aa(lp244
F343.9405204460967
aF397.7230483271375
aa(lp245
F342.97397769516726
aF401.3475836431227
aa(lp246
F342.0074349442379
aF404.9721189591078
aa(lp247
F341.04089219330854
aF408.59665427509293
aa(lp248
F340.0743494423792
aF412.22118959107803
aa(lp249
F340.0
aF415.8457249070632
aa(lp250
F340.0
aF419.4702602230483
aa(lp251
F340.0
aF423.09479553903344
aa(lp252
F340.0
aF426.71933085501854
aa(lp253
F340.0
aF430.3438661710037
aa(lp254
F340.0
aF433.9684014869888
aa(lp255
F340.0
aF437.59293680297395
aa(lp256
F340.0
aF441.2174721189591
aa(lp257
F340.0
aF444.8420074349442
aa(lp258
F340.0
aF448.46654275092936
aa(lp259
F339.4423791821561
aF450.69702602230484
aa(lp260
F338.47583643122675
aF451.90520446096656
aa(lp261
F337.5092936802974
aF453.1133828996282
aa(lp262
F336.542750929368
aF454.32156133828994
aa(lp263
F335.57620817843866
aF455.52973977695166
aa(lp264
F334.6096654275093
aF456.7379182156134
aa(lp265
F333.64312267657994
aF457.9460966542751
aa(lp266
F332.67657992565057
aF459.1542750929368
aa(lp267
F331.7100371747212
aF460.3624535315985
aa(lp268
F330.74349442379184
aF461.57063197026025
aa(lp269
F329.7769516728625
aF462.7788104089219
aa(lp270
F328.81040892193306
aF463.98698884758363
aa(lp271
F327.8438661710037
aF465.19516728624535
aa(lp272
F326.87732342007433
aF466.40334572490707
aa(lp273
F325.91078066914497
aF467.6115241635688
aa(lp274
F324.9442379182156
aF468.8197026022305
aa(lp275
F323.97769516728624
aF470.02788104089217
aa(lp276
F323.0111524163569
aF471.2360594795539
aa(lp277
F322.0446096654275
aF472.4442379182156
aa(lp278
F321.07806691449815
aF473.6524163568773
aa(lp279
F320.1115241635688
aF474.86059479553904
aa(lp280
F318.2899628252788
aF473.93122676579924
aa(lp281
F316.35687732342006
aF472.7230483271376
aa(lp282
F314.42379182156134
aF471.51486988847586
aa(lp283
F312.4907063197026
aF470.30669144981414
aa(lp284
F310.5576208178439
aF469.0985130111524
aa(lp285
F308.62453531598516
aF467.8903345724907
aa(lp286
F306.6914498141264
aF466.682156133829
aa(lp287
F304.75836431226764
aF465.4739776951673
aa(lp288
F302.8252788104089
aF464.26579925650555
aa(lp289
F300.8921933085502
aF463.0576208178439
aa(lp290
F299.47955390334573
aF461.84944237918216
aa(lp291
F298.51301115241637
aF460.64126394052045
aa(lp292
F297.546468401487
aF459.4330855018587
aa(lp293
F296.57992565055764
aF458.224907063197
aa(lp294
F295.6133828996283
aF457.0167286245353
aa(lp295
F294.6468401486989
aF455.8085501858736
aa(lp296
F293.6802973977695
aF454.6003717472119
aa(lp297
F292.71375464684013
aF453.3921933085502
aa(lp298
F291.74721189591077
aF452.1840148698885
aa(lp299
F290.7806691449814
aF450.97583643122675
aa(lp300
F289.81412639405204
aF449.5353159851301
aa(lp301
F288.8475836431227
aF447.1189591078067
aa(lp302
F287.8810408921933
aF444.70260223048325
aa(lp303
F286.91449814126395
aF442.28624535315987
aa(lp304
F285.9479553903346
aF439.86988847583643
aa(lp305
F284.9814126394052
aF437.45353159851305
aa(lp306
F284.01486988847586
aF435.0371747211896
aa(lp307
F283.0483271375465
aF432.62081784386623
aa(lp308
F282.08178438661713
aF430.2044609665428
aa(lp309
F281.11524163568777
aF427.78810408921936
aa(lp310
F280.1486988847584
aF425.3717472118959
aa(lp311
F280.0
aF421.93308550185884
aa(lp312
F280.0
aF418.3085501858736
aa(lp313
F280.0
aF414.68401486988853
aa(lp314
F280.0
aF411.0594795539034
aa(lp315
F280.0
aF407.4349442379182
aa(lp316
F280.0
aF403.8104089219331
aa(lp317
F280.0
aF400.18587360594796
aa(lp318
F280.0
aF396.56133828996286
aa(lp319
F280.0
aF392.9368029739777
aa(lp320
F280.0
aF389.3122676579926
aa(lp321
F280.0
aF386.2918215613383
aa(lp322
F280.0
aF383.8754646840149
aa(lp323
F280.0
aF381.45910780669146
aa(lp324
F280.0
aF379.0427509293681
aa(lp325
F280.0
aF376.62639405204465
aa(lp326
F280.0
aF374.2100371747212
aa(lp327
F280.0
aF371.79368029739777
aa(lp328
F280.0
aF369.3773234200744
aa(lp329
F280.0
aF366.96096654275095
aa(lp330
F280.0
aF364.5446096654275
aa(lp331
F279.5539033457249
aF362.31412639405204
aa(lp332
F276.6542750929368
aF361.1059479553904
aa(lp333
F273.7546468401487
aF359.8977695167286
aa(lp334
F270.85501858736063
aF358.68959107806694
aa(lp335
F267.9553903345725
aF357.4814126394052
aa(lp336
F265.05576208178445
aF356.2732342007435
aa(lp337
F262.1561338289963
aF355.0650557620818
aa(lp338
F259.2565055762082
aF353.85687732342006
aa(lp339
F256.35687732342006
aF352.64869888475835
aa(lp340
F253.457249070632
aF351.4405204460967
aa(lp341
F250.55762081784388
aF350.23234200743497
aa(lp342
F248.4386617100372
aF348.0483271375465
aa(lp343
F246.50557620817844
aF345.63197026022306
aa(lp344
F244.57249070631974
aF343.2156133828997
aa(lp345
F242.63940520446099
aF340.79925650557624
aa(lp346
F240.70631970260223
aF338.3828996282528
aa(lp347
F238.7732342007435
aF335.96654275092936
aa(lp348
F236.84014869888478
aF333.550185873606
aa(lp349
F234.90706319702605
aF331.1338289962826
aa(lp350
F232.97397769516726
aF328.7174721189591
aa(lp351
F231.04089219330857
aF326.30111524163567
aa(lp352
F229.55390334572493
aF323.8847583643123
aa(lp353
F228.58736059479557
aF321.4684014869889
aa(lp354
F227.62081784386618
aF319.0520446096654
aa(lp355
F226.6542750929368
aF316.63568773234203
aa(lp356
F225.68773234200745
aF314.21933085501865
aa(lp357
F224.7211895910781
aF311.8029739776952
aa(lp358
F223.7546468401487
aF309.3866171003718
aa(lp359
F222.78810408921936
aF306.97026022304834
aa(lp360
F221.82156133829
aF304.55390334572496
aa(lp361
F220.85501858736063
aF302.1375464684016
aa(lp362
F220.0
aF299.58178438661713
aa(lp363
F220.0
aF295.95724907063203
aa(lp364
F220.0
aF292.33271375464693
aa(lp365
F220.0
aF288.70817843866183
aa(lp366
F220.0
aF285.0836431226766
aa(lp367
F220.0
aF281.45910780669146
aa(lp368
F220.0
aF277.83457249070636
aa(lp369
F220.0
aF274.21003717472126
aa(lp370
F220.0
aF270.58550185873605
aa(lp371
F220.0
aF266.96096654275095
aa(lp372
F220.0
aF263.33643122676585
aa(lp373
F220.0
aF260.6412639405205
aa(lp374
F220.0
aF258.224907063197
aa(lp375
F220.0
aF255.80855018587363
aa(lp376
F220.0
aF253.39219330855022
aa(lp377
F220.0
aF250.97583643122684
aa(lp378
F220.0
aF248.55947955390334
aa(lp379
F220.0
aF246.14312267657996
aa(lp380
F220.0
aF243.72676579925655
aa(lp381
F220.0
aF241.3104089219331
aag185
aasS'best_pin_pt'
p382
g38
sS'old_trajectory'
p383
(lp384
g111
ag187
ag188
ag189
ag190
ag191
ag192
ag193
ag194
ag195
ag196
ag197
ag198
ag199
ag200
ag201
ag202
ag203
ag204
ag205
ag206
ag207
ag208
ag209
ag210
ag211
ag212
ag213
ag214
ag215
ag216
ag217
ag218
ag219
ag220
ag221
ag222
ag223
ag224
ag225
ag226
ag227
ag228
ag229
ag230
ag231
ag232
ag233
ag234
ag235
ag236
ag237
ag238
ag239
ag240
ag241
ag242
ag243
ag244
ag245
ag246
ag247
ag248
ag249
ag250
ag251
ag252
ag253
ag254
ag255
ag256
ag257
ag258
ag259
ag260
ag261
ag262
ag263
ag264
ag265
ag266
ag267
ag268
ag269
ag270
ag271
ag272
ag273
ag274
ag275
ag276
ag277
ag278
ag279
ag280
ag281
ag282
ag283
ag284
ag285
ag286
ag287
ag288
ag289
ag290
ag291
ag292
ag293
ag294
ag295
ag296
ag297
ag298
ag299
ag300
ag301
ag302
ag303
ag304
ag305
ag306
ag307
ag308
ag309
ag310
ag311
ag312
ag313
ag314
ag315
ag316
ag317
ag318
ag319
ag320
ag321
ag322
ag323
ag324
ag325
ag326
ag327
ag328
ag329
ag330
ag331
ag332
ag333
ag334
ag335
ag336
ag337
ag338
ag339
ag340
ag341
ag342
ag343
ag344
ag345
ag346
ag347
ag348
ag349
ag350
ag351
ag352
ag353
ag354
ag355
ag356
ag357
ag358
ag359
ag360
ag361
ag362
ag363
ag364
ag365
ag366
ag367
ag368
ag369
ag370
ag371
ag372
ag373
ag374
ag375
ag376
ag377
ag378
ag379
ag380
ag381
ag185
ag111
ag112
ag113
ag114
ag115
ag116
ag117
ag118
ag119
ag120
ag121
ag122
ag123
ag124
ag125
ag126
ag127
ag128
ag129
ag130
ag131
ag132
ag133
ag134
ag135
ag136
ag137
ag138
ag139
ag140
ag141
ag142
ag143
ag144
ag145
ag146
ag147
ag148
ag149
ag150
ag151
ag152
ag153
ag154
ag155
ag156
ag157
ag158
ag159
ag160
ag161
ag162
ag163
ag164
ag165
ag166
ag167
ag168
ag169
ag170
ag171
ag172
ag173
ag174
ag175
ag176
ag177
ag178
ag179
ag180
ag181
ag182
ag183
ag184
ag185
asS'indices_of_pts'
p385
(lp386
(lp387
I0
aI269
aI268
aI267
aI266
aI265
aI264
aI263
aI262
aI261
aI260
aI259
aI258
aI257
aI256
aI255
aI254
aI253
aI252
aI251
aI250
aI249
aI248
aI247
aI246
aI245
aI244
aI243
aI242
aI241
aI240
aI239
aI238
aI237
aI236
aI235
aI234
aI233
aI232
aI231
aI230
aI229
aI228
aI227
aI226
aI225
aI224
aI223
aI222
aI221
aI220
aI219
aI218
aI217
aI216
aI215
aI214
aI213
aI212
aI211
aI210
aI209
aI208
aI207
aI206
aI205
aI204
aI203
aI202
aI201
aI200
aI199
aI198
aI197
aI196
aa(lp388
I0
aI1
aI2
aI3
aI4
aI5
aI6
aI7
aI8
aI9
aI10
aI11
aI12
aI13
aI14
aI15
aI16
aI17
aI18
aI19
aI20
aI21
aI22
aI23
aI24
aI25
aI26
aI27
aI28
aI29
aI30
aI31
aI32
aI33
aI34
aI35
aI36
aI37
aI38
aI39
aI40
aI41
aI42
aI43
aI44
aI45
aI46
aI47
aI48
aI49
aI50
aI51
aI52
aI53
aI54
aI55
aI56
aI57
aI58
aI59
aI60
aI61
aI62
aI63
aI64
aI65
aI66
aI67
aI68
aI69
aI70
aI71
aI72
aI73
aI74
aI75
aI76
aI77
aI78
aI79
aI80
aI81
aI82
aI83
aI84
aI85
aI86
aI87
aI88
aI89
aI90
aI91
aI92
aI93
aI94
aI95
aI96
aI97
aI98
aI99
aI100
aI101
aI102
aI103
aI104
aI105
aI106
aI107
aI108
aI109
aI110
aI111
aI112
aI113
aI114
aI115
aI116
aI117
aI118
aI119
aI120
aI121
aI122
aI123
aI124
aI125
aI126
aI127
aI128
aI129
aI130
aI131
aI132
aI133
aI134
aI135
aI136
aI137
aI138
aI139
aI140
aI141
aI142
aI143
aI144
aI145
aI146
aI147
aI148
aI149
aI150
aI151
aI152
aI153
aI154
aI155
aI156
aI157
aI158
aI159
aI160
aI161
aI162
aI163
aI164
aI165
aI166
aI167
aI168
aI169
aI170
aI171
aI172
aI173
aI174
aI175
aI176
aI177
aI178
aI179
aI180
aI181
aI182
aI183
aI184
aI185
aI186
aI187
aI188
aI189
aI190
aI191
aI192
aI193
aI194
aI195
aI196
aas.