(dp0
S'worst_score'
p1
cnumpy.core.multiarray
scalar
p2
(cnumpy
dtype
p3
(S'f8'
p4
I0
I1
tp5
Rp6
(I3
S'<'
p7
NNNI-1
I-1
I0
tp8
bS'\x00\x00\x00\x00\x00\xc0S\xc0'
p9
tp10
Rp11
sS'totalpts'
p12
I39
sS'trajectory'
p13
(lp14
(lp15
(lp16
F390.0
aF263.37349397590367
aa(lp17
F389.87951807228916
aF259.1566265060241
aa(lp18
F388.9156626506024
aF252.40963855421694
aa(lp19
F387.95180722891564
aF245.66265060240968
aa(lp20
F386.9879518072289
aF238.91566265060243
aa(lp21
F386.0240963855422
aF232.16867469879523
aa(lp22
F385.06024096385545
aF225.42168674698797
aa(lp23
F384.09638554216866
aF218.67469879518077
aa(lp24
F383.13253012048193
aF211.92771084337352
aa(lp25
F382.1686746987952
aF205.18072289156626
aa(lp26
F381.2048192771084
aF198.43373493975906
aa(lp27
F380.2409638554217
aF191.6867469879518
aa(lp28
F377.83132530120486
aF188.55421686746988
aa(lp29
F374.9397590361446
aF186.6265060240964
aa(lp30
F372.04819277108436
aF184.6987951807229
aa(lp31
F369.1566265060241
aF182.7710843373494
aa(lp32
F366.26506024096386
aF180.8433734939759
aa(lp33
F363.3734939759036
aF178.91566265060243
aa(lp34
F360.48192771084337
aF176.9879518072289
aa(lp35
F357.5903614457831
aF175.06024096385542
aa(lp36
F354.6987951807229
aF173.13253012048193
aa(lp37
F351.8072289156627
aF171.20481927710844
aa(lp38
F349.27710843373495
aF169.27710843373495
aa(lp39
F347.34939759036143
aF167.34939759036146
aa(lp40
F345.421686746988
aF165.42168674698794
aa(lp41
F343.49397590361446
aF163.49397590361446
aa(lp42
F341.566265060241
aF161.56626506024097
aa(lp43
F339.6385542168675
aF159.63855421686748
aa(lp44
F337.71084337349396
aF157.710843373494
aa(lp45
F335.7831325301205
aF155.7831325301205
aa(lp46
F333.855421686747
aF153.855421686747
aa(lp47
F331.9277108433735
aF151.92771084337352
aa(lp48
F330.0
aF150.0
aa(lp49
F326.144578313253
aF149.03614457831327
aa(lp50
F322.28915662650604
aF148.0722891566265
aa(lp51
F318.433734939759
aF147.10843373493975
aa(lp52
F314.578313253012
aF146.14457831325302
aa(lp53
F310.7228915662651
aF145.18072289156626
aa(lp54
F306.8674698795181
aF144.21686746987953
aa(lp55
F303.0120481927711
aF143.25301204819277
aa(lp56
F299.1566265060241
aF142.289156626506
aa(lp57
F295.30120481927713
aF141.32530120481928
aa(lp58
F291.4457831325301
aF140.36144578313252
aa(lp59
F286.9879518072289
aF140.6024096385542
aa(lp60
F282.1686746987952
aF141.56626506024097
aa(lp61
F277.3493975903615
aF142.5301204819277
aa(lp62
F272.5301204819277
aF143.49397590361446
aa(lp63
F267.710843373494
aF144.45783132530119
aa(lp64
F262.8915662650603
aF145.42168674698794
aa(lp65
F258.07228915662654
aF146.3855421686747
aa(lp66
F253.25301204819283
aF147.34939759036143
aa(lp67
F248.43373493975912
aF148.31325301204816
aa(lp68
F243.61445783132532
aF149.27710843373492
aa(lp69
F239.27710843373498
aF150.72289156626502
aa(lp70
F236.38554216867473
aF153.61445783132527
aa(lp71
F233.4939759036145
aF156.5060240963855
aa(lp72
F230.60240963855424
aF159.39759036144576
aa(lp73
F227.71084337349401
aF162.28915662650599
aa(lp74
F224.81927710843377
aF165.18072289156623
aa(lp75
F221.92771084337352
aF168.07228915662648
aa(lp76
F219.03614457831327
aF170.96385542168673
aa(lp77
F216.14457831325305
aF173.85542168674695
aa(lp78
F213.25301204819277
aF176.74698795180723
aa(lp79
F210.36144578313255
aF179.63855421686745
aa(lp80
F208.31325301204822
aF182.5301204819277
aa(lp81
F206.38554216867473
aF185.42168674698792
aa(lp82
F204.4578313253012
aF188.3132530120482
aa(lp83
F202.53012048192772
aF191.2048192771084
aa(lp84
F200.60240963855424
aF194.09638554216863
aa(lp85
F198.67469879518072
aF196.9879518072289
aa(lp86
F196.74698795180723
aF199.87951807228916
aa(lp87
F194.81927710843374
aF202.77108433734938
aa(lp88
F192.89156626506022
aF205.66265060240966
aa(lp89
F190.96385542168673
aF208.55421686746988
aa(lp90
F189.51807228915663
aF211.9277108433735
aa(lp91
F188.55421686746988
aF215.78313253012044
aa(lp92
F187.59036144578312
aF219.63855421686748
aa(lp93
F186.6265060240964
aF223.49397590361443
aa(lp94
F185.66265060240966
aF227.3493975903614
aa(lp95
F184.6987951807229
aF231.20481927710844
aa(lp96
F183.73493975903614
aF235.0602409638554
aa(lp97
F182.7710843373494
aF238.91566265060237
aa(lp98
F181.80722891566268
aF242.77108433734932
aa(lp99
F180.84337349397592
aF246.62650602409636
aa(lp100
F180.12048192771084
aF250.60240963855415
aaa(lp101
g16
a(lp102
F390.0
aF267.2289156626506
aa(lp103
F390.0
aF271.08433734939763
aa(lp104
F390.0
aF274.9397590361446
aa(lp105
F390.0
aF278.7951807228916
aa(lp106
F390.0
aF282.65060240963857
aa(lp107
F390.0
aF286.50602409638554
aa(lp108
F390.0
aF290.3614457831325
aa(lp109
F390.0
aF294.2168674698795
aa(lp110
F390.0
aF298.07228915662654
aa(lp111
F389.03614457831327
aF301.9277108433735
aa(lp112
F387.10843373493975
aF305.7831325301205
aa(lp113
F385.18072289156623
aF309.6385542168675
aa(lp114
F383.2530120481928
aF313.49397590361446
aa(lp115
F381.32530120481925
aF317.34939759036143
aa(lp116
F379.3975903614458
aF321.2048192771084
aa(lp117
F377.4698795180723
aF325.0602409638554
aa(lp118
F375.5421686746988
aF328.9156626506024
aa(lp119
F373.6144578313253
aF332.7710843373494
aa(lp120
F371.6867469879518
aF336.6265060240964
aa(lp121
F369.7590361445783
aF340.3614457831325
aa(lp122
F367.8313253012048
aF343.2530120481928
aa(lp123
F365.90361445783134
aF346.144578313253
aa(lp124
F363.9759036144578
aF349.03614457831327
aa(lp125
F362.04819277108436
aF351.9277108433735
aa(lp126
F360.12048192771084
aF354.8192771084337
aa(lp127
F358.1927710843373
aF357.71084337349396
aa(lp128
F356.26506024096386
aF360.6024096385542
aa(lp129
F354.33734939759034
aF363.49397590361446
aa(lp130
F352.4096385542169
aF366.3855421686747
aa(lp131
F350.48192771084337
aF369.27710843373495
aa(lp132
F348.5542168674699
aF371.4457831325301
aa(lp133
F346.6265060240964
aF373.3734939759036
aa(lp134
F344.69879518072287
aF375.30120481927713
aa(lp135
F342.7710843373494
aF377.2289156626506
aa(lp136
F340.8433734939759
aF379.1566265060241
aa(lp137
F338.9156626506024
aF381.0843373493976
aa(lp138
F336.9879518072289
aF383.0120481927711
aa(lp139
F335.06024096385545
aF384.93975903614455
aa(lp140
F333.13253012048193
aF386.86746987951807
aa(lp141
F331.2048192771084
aF388.7951807228916
aa(lp142
F329.6385542168675
aF390.3614457831325
aa(lp143
F328.67469879518075
aF391.32530120481925
aa(lp144
F327.71084337349396
aF392.28915662650604
aa(lp145
F326.7469879518072
aF393.2530120481928
aa(lp146
F325.7831325301205
aF394.2168674698795
aa(lp147
F324.8192771084337
aF395.1807228915663
aa(lp148
F323.855421686747
aF396.144578313253
aa(lp149
F322.89156626506025
aF397.10843373493975
aa(lp150
F321.9277108433735
aF398.0722891566265
aa(lp151
F320.96385542168673
aF399.03614457831327
aa(lp152
F320.0
aF400.0
aa(lp153
F320.0
aF400.0
aa(lp154
F319.03614457831327
aF400.96385542168673
aa(lp155
F318.07228915662654
aF401.92771084337346
aa(lp156
F317.10843373493975
aF402.89156626506025
aa(lp157
F316.14457831325296
aF403.85542168674704
aa(lp158
F315.18072289156623
aF404.81927710843377
aa(lp159
F314.2168674698795
aF405.7831325301205
aa(lp160
F313.2530120481928
aF406.7469879518072
aa(lp161
F312.289156626506
aF407.710843373494
aa(lp162
F311.32530120481925
aF408.67469879518075
aa(lp163
F310.36144578313247
aF409.63855421686753
aa(lp164
F309.39759036144574
aF411.80722891566273
aa(lp165
F308.433734939759
aF414.698795180723
aa(lp166
F307.4698795180723
aF417.5903614457832
aa(lp167
F306.50602409638554
aF420.4819277108434
aa(lp168
F305.54216867469876
aF423.37349397590367
aa(lp169
F304.578313253012
aF426.26506024096386
aa(lp170
F303.6144578313253
aF429.15662650602417
aa(lp171
F302.6506024096385
aF432.0481927710844
aa(lp172
F301.6867469879518
aF434.93975903614466
aa(lp173
F300.72289156626505
aF437.83132530120486
aa(lp174
F299.7590361445783
aF440.48192771084337
aa(lp175
F298.7951807228916
aF442.4096385542169
aa(lp176
F297.8313253012048
aF444.33734939759034
aa(lp177
F296.86746987951807
aF446.2650602409639
aa(lp178
F295.9036144578313
aF448.1927710843374
aa(lp179
F294.93975903614455
aF450.12048192771084
aa(lp180
F293.9759036144578
aF452.04819277108436
aa(lp181
F293.0120481927711
aF453.9759036144578
aa(lp182
F292.04819277108436
aF455.9036144578313
aa(lp183
F291.08433734939763
aF457.8313253012048
aa(lp184
F290.12048192771084
aF459.7590361445783
aa(lp185
F288.31325301204816
aF460.0
aa(lp186
F286.3855421686747
aF460.0
aa(lp187
F284.4578313253012
aF460.0
aa(lp188
F282.5301204819277
aF460.0
aa(lp189
F280.6024096385542
aF460.0
aa(lp190
F278.6746987951807
aF460.0
aa(lp191
F276.74698795180717
aF460.0
aa(lp192
F274.8192771084337
aF460.0
aa(lp193
F272.8915662650602
aF460.0
aa(lp194
F270.96385542168673
aF460.0
aa(lp195
F269.51807228915663
aF459.51807228915663
aa(lp196
F268.55421686746985
aF458.55421686746985
aa(lp197
F267.5903614457831
aF457.5903614457831
aa(lp198
F266.62650602409633
aF456.62650602409633
aa(lp199
F265.6626506024096
aF455.6626506024096
aa(lp200
F264.69879518072287
aF454.69879518072287
aa(lp201
F263.73493975903614
aF453.73493975903614
aa(lp202
F262.7710843373494
aF452.7710843373494
aa(lp203
F261.8072289156627
aF451.8072289156627
aa(lp204
F260.8433734939759
aF450.8433734939759
aa(lp205
F259.87951807228916
aF449.6385542168674
aa(lp206
F258.91566265060237
aF446.74698795180717
aa(lp207
F257.95180722891564
aF443.855421686747
aa(lp208
F256.9879518072289
aF440.96385542168673
aa(lp209
F256.0240963855422
aF438.07228915662654
aa(lp210
F255.0602409638554
aF435.1807228915662
aa(lp211
F254.09638554216866
aF432.289156626506
aa(lp212
F253.1325301204819
aF429.39759036144574
aa(lp213
F252.16867469879517
aF426.50602409638554
aa(lp214
F251.20481927710844
aF423.6144578313253
aa(lp215
F250.24096385542168
aF420.7228915662651
aa(lp216
F249.27710843373495
aF418.5542168674699
aa(lp217
F248.31325301204816
aF416.62650602409633
aa(lp218
F247.34939759036143
aF414.69879518072287
aa(lp219
F246.38554216867468
aF412.77108433734935
aa(lp220
F245.42168674698794
aF410.8433734939759
aa(lp221
F244.45783132530119
aF408.91566265060237
aa(lp222
F243.49397590361446
aF406.9879518072289
aa(lp223
F242.5301204819277
aF405.0602409638554
aa(lp224
F241.56626506024094
aF403.1325301204819
aa(lp225
F240.60240963855418
aF401.20481927710836
aa(lp226
F239.63855421686745
aF398.9156626506023
aa(lp227
F238.6746987951807
aF396.0240963855421
aa(lp228
F237.71084337349396
aF393.1325301204819
aa(lp229
F236.74698795180723
aF390.2409638554217
aa(lp230
F235.78313253012047
aF387.34939759036143
aa(lp231
F234.8192771084337
aF384.45783132530113
aa(lp232
F233.85542168674695
aF381.5662650602409
aa(lp233
F232.89156626506022
aF378.6746987951807
aa(lp234
F231.9277108433735
aF375.78313253012044
aa(lp235
F230.96385542168673
aF372.89156626506025
aa(lp236
F230.0
aF370.0
aa(lp237
F228.07228915662645
aF367.1084337349397
aa(lp238
F226.14457831325296
aF364.21686746987945
aa(lp239
F224.21686746987947
aF361.3253012048192
aa(lp240
F222.28915662650599
aF358.433734939759
aa(lp241
F220.3614457831325
aF355.54216867469876
aa(lp242
F218.43373493975903
aF352.6506024096385
aa(lp243
F216.50602409638552
aF349.75903614457826
aa(lp244
F214.57831325301203
aF346.867469879518
aa(lp245
F212.65060240963854
aF343.9759036144578
aa(lp246
F210.72289156626502
aF341.0843373493975
aa(lp247
F208.79518072289153
aF337.59036144578306
aa(lp248
F206.86746987951804
aF333.7349397590361
aa(lp249
F204.93975903614452
aF329.87951807228904
aa(lp250
F203.01204819277106
aF326.0240963855421
aa(lp251
F201.08433734939757
aF322.16867469879514
aa(lp252
F199.15662650602408
aF318.31325301204816
aa(lp253
F197.22891566265056
aF314.45783132530113
aa(lp254
F195.3012048192771
aF310.6024096385542
aa(lp255
F193.3734939759036
aF306.7469879518072
aa(lp256
F191.4457831325301
aF302.8915662650602
aa(lp257
F189.75903614457832
aF298.79518072289153
aa(lp258
F188.79518072289156
aF293.9759036144578
aa(lp259
F187.8313253012048
aF289.156626506024
aa(lp260
F186.86746987951807
aF284.3373493975903
aa(lp261
F185.9036144578313
aF279.5180722891566
aa(lp262
F184.93975903614458
aF274.69879518072287
aa(lp263
F183.97590361445782
aF269.8795180722891
aa(lp264
F183.01204819277106
aF265.0602409638554
aa(lp265
F182.04819277108433
aF260.2409638554217
aa(lp266
F181.08433734939757
aF255.42168674698786
aag100
aasS'best_score'
p267
g2
(g6
S'\x00\x00\x00\x00\x00\x80S\xc0'
p268
tp269
Rp270
sS'old_trajectory'
p271
(lp272
g16
ag17
ag18
ag19
ag20
ag21
ag22
ag23
ag24
ag25
ag26
ag27
ag28
ag29
ag30
ag31
ag32
ag33
ag34
ag35
ag36
ag37
ag38
ag39
ag40
ag41
ag42
ag43
ag44
ag45
ag46
ag47
ag48
ag49
ag50
ag51
ag52
ag53
ag54
ag55
ag56
ag57
ag58
ag59
ag60
ag61
ag62
ag63
ag64
ag65
ag66
ag67
ag68
ag69
ag70
ag71
ag72
ag73
ag74
ag75
ag76
ag77
ag78
ag79
ag80
ag81
ag82
ag83
ag84
ag85
ag86
ag87
ag88
ag89
ag90
ag91
ag92
ag93
ag94
ag95
ag96
ag97
ag98
ag99
ag100
ag16
ag102
ag103
ag104
ag105
ag106
ag107
ag108
ag109
ag110
ag111
ag112
ag113
ag114
ag115
ag116
ag117
ag118
ag119
ag120
ag121
ag122
ag123
ag124
ag125
ag126
ag127
ag128
ag129
ag130
ag131
ag132
ag133
ag134
ag135
ag136
ag137
ag138
ag139
ag140
ag141
ag142
ag143
ag144
ag145
ag146
ag147
ag148
ag149
ag150
ag151
ag152
ag153
ag154
ag155
ag156
ag157
ag158
ag159
ag160
ag161
ag162
ag163
ag164
ag165
ag166
ag167
ag168
ag169
ag170
ag171
ag172
ag173
ag174
ag175
ag176
ag177
ag178
ag179
ag180
ag181
ag182
ag183
ag184
ag185
ag186
ag187
ag188
ag189
ag190
ag191
ag192
ag193
ag194
ag195
ag196
ag197
ag198
ag199
ag200
ag201
ag202
ag203
ag204
ag205
ag206
ag207
ag208
ag209
ag210
ag211
ag212
ag213
ag214
ag215
ag216
ag217
ag218
ag219
ag220
ag221
ag222
ag223
ag224
ag225
ag226
ag227
ag228
ag229
ag230
ag231
ag232
ag233
ag234
ag235
ag236
ag237
ag238
ag239
ag240
ag241
ag242
ag243
ag244
ag245
ag246
ag247
ag248
ag249
ag250
ag251
ag252
ag253
ag254
ag255
ag256
ag257
ag258
ag259
ag260
ag261
ag262
ag263
ag264
ag265
ag266
ag100
asS'indices_of_pts'
p273
(lp274
(lp275
I51
aI52
aI53
aI54
aI55
aI56
aI57
aI58
aI59
aI60
aI61
aI62
aI63
aI64
aI65
aI66
aI67
aI68
aI69
aI70
aI71
aI72
aI73
aI74
aI75
aI76
aI77
aI78
aI79
aI80
aI81
aI82
aI83
aI84
aI85
aI86
aI87
aI88
aI89
aI90
aI91
aI92
aI93
aI94
aI95
aI96
aI97
aI98
aI99
aI100
aI101
aI102
aI103
aI104
aI105
aI106
aI107
aI108
aI109
aI110
aI111
aI112
aI113
aI114
aI115
aI116
aI117
aI118
aI119
aI120
aI121
aI122
aI123
aI124
aI125
aI126
aI127
aI128
aI129
aI130
aI131
aI132
aI133
aI134
aI135
aa(lp276
I51
aI50
aI49
aI48
aI47
aI46
aI45
aI44
aI43
aI42
aI41
aI40
aI39
aI38
aI37
aI36
aI35
aI34
aI33
aI32
aI31
aI30
aI29
aI28
aI27
aI26
aI25
aI24
aI23
aI22
aI21
aI20
aI19
aI18
aI17
aI16
aI15
aI14
aI13
aI12
aI11
aI10
aI9
aI8
aI7
aI6
aI5
aI4
aI3
aI2
aI1
aI0
aI249
aI248
aI247
aI246
aI245
aI244
aI243
aI242
aI241
aI240
aI239
aI238
aI237
aI236
aI235
aI234
aI233
aI232
aI231
aI230
aI229
aI228
aI227
aI226
aI225
aI224
aI223
aI222
aI221
aI220
aI219
aI218
aI217
aI216
aI215
aI214
aI213
aI212
aI211
aI210
aI209
aI208
aI207
aI206
aI205
aI204
aI203
aI202
aI201
aI200
aI199
aI198
aI197
aI196
aI195
aI194
aI193
aI192
aI191
aI190
aI189
aI188
aI187
aI186
aI185
aI184
aI183
aI182
aI181
aI180
aI179
aI178
aI177
aI176
aI175
aI174
aI173
aI172
aI171
aI170
aI169
aI168
aI167
aI166
aI165
aI164
aI163
aI162
aI161
aI160
aI159
aI158
aI157
aI156
aI155
aI154
aI153
aI152
aI151
aI150
aI149
aI148
aI147
aI146
aI145
aI144
aI143
aI142
aI141
aI140
aI139
aI138
aI137
aI136
aI135
aas.